ccopy_reg
_reconstructor
p0
(cneat.genome
DefaultGenome
p1
c__builtin__
object
p2
Ntp3
Rp4
(dp5
S'connections'
p6
(dp7
(I393
I1
tp8
g0
(cneat.genes
DefaultConnectionGene
p9
g2
Ntp10
Rp11
(dp12
S'enabled'
p13
I00
sS'weight'
p14
F-0.9486092002314732
sS'key'
p15
g8
sbs(I-18
I389
tp16
g0
(g9
g2
Ntp17
Rp18
(dp19
g13
I00
sg14
F2.6179641490200782
sg15
g16
sbs(I-13
I391
tp20
g0
(g9
g2
Ntp21
Rp22
(dp23
g13
I01
sg14
F1.15163058824178
sg15
g20
sbs(I-14
I389
tp24
g0
(g9
g2
Ntp25
Rp26
(dp27
g13
I01
sg14
F-1.923779485157591
sg15
g24
sbs(I-8
I396
tp28
g0
(g9
g2
Ntp29
Rp30
(dp31
g13
I01
sg14
F-0.06961956104093547
sg15
g28
sbs(I-4
I393
tp32
g0
(g9
g2
Ntp33
Rp34
(dp35
g13
I01
sg14
F1.3469375940731132
sg15
g32
sbs(I-3
I396
tp36
g0
(g9
g2
Ntp37
Rp38
(dp39
g13
I01
sg14
F-0.3402581825319315
sg15
g36
sbs(I-10
I391
tp40
g0
(g9
g2
Ntp41
Rp42
(dp43
g13
I01
sg14
F0.24776497962675115
sg15
g40
sbs(I398
I0
tp44
g0
(g9
g2
Ntp45
Rp46
(dp47
g13
I01
sg14
F0.34481703794833624
sg15
g44
sbs(I-16
I399
tp48
g0
(g9
g2
Ntp49
Rp50
(dp51
g13
I01
sg14
F-1.4785374675319058
sg15
g48
sbs(I-5
I389
tp52
g0
(g9
g2
Ntp53
Rp54
(dp55
g13
I01
sg14
F1.4376015116058176
sg15
g52
sbs(I-6
I391
tp56
g0
(g9
g2
Ntp57
Rp58
(dp59
g13
I01
sg14
F-1.3576649070998665
sg15
g56
sbs(I-9
I390
tp60
g0
(g9
g2
Ntp61
Rp62
(dp63
g13
I01
sg14
F3.0687609667892057
sg15
g60
sbs(I-15
I398
tp64
g0
(g9
g2
Ntp65
Rp66
(dp67
g13
I01
sg14
F-1.7866766774484146
sg15
g64
sbs(I-17
I399
tp68
g0
(g9
g2
Ntp69
Rp70
(dp71
g13
I01
sg14
F-0.8353115856414745
sg15
g68
sbs(I-19
I395
tp72
g0
(g9
g2
Ntp73
Rp74
(dp75
g13
I01
sg14
F-3.735923966077715
sg15
g72
sbs(I-7
I395
tp76
g0
(g9
g2
Ntp77
Rp78
(dp79
g13
I01
sg14
F1.125140150804504
sg15
g76
sbs(I-10
I399
tp80
g0
(g9
g2
Ntp81
Rp82
(dp83
g13
I01
sg14
F2.1380824514189625
sg15
g80
sbs(I-1
I391
tp84
g0
(g9
g2
Ntp85
Rp86
(dp87
g13
I01
sg14
F-0.19473629576250986
sg15
g84
sbs(I-18
I390
tp88
g0
(g9
g2
Ntp89
Rp90
(dp91
g13
I01
sg14
F-1.4213804019041638
sg15
g88
sbs(I390
I3
tp92
g0
(g9
g2
Ntp93
Rp94
(dp95
g13
I01
sg14
F0.25824658135718775
sg15
g92
sbs(I-14
I390
tp96
g0
(g9
g2
Ntp97
Rp98
(dp99
g13
I01
sg14
F-0.15998260587262053
sg15
g96
sbs(I-4
I398
tp100
g0
(g9
g2
Ntp101
Rp102
(dp103
g13
I01
sg14
F1.9214755087084137
sg15
g100
sbs(I-3
I399
tp104
g0
(g9
g2
Ntp105
Rp106
(dp107
g13
I01
sg14
F2.404761597458943
sg15
g104
sbs(I-1
I393
tp108
g0
(g9
g2
Ntp109
Rp110
(dp111
g13
I01
sg14
F-1.0726111676282668
sg15
g108
sbs(I-16
I396
tp112
g0
(g9
g2
Ntp113
Rp114
(dp115
g13
I01
sg14
F-1.2589086974897077
sg15
g112
sbs(I-20
I399
tp116
g0
(g9
g2
Ntp117
Rp118
(dp119
g13
I01
sg14
F0.7888687943373804
sg15
g116
sbs(I-9
I389
tp120
g0
(g9
g2
Ntp121
Rp122
(dp123
g13
I01
sg14
F-1.7627620146687764
sg15
g120
sbs(I-2
I399
tp124
g0
(g9
g2
Ntp125
Rp126
(dp127
g13
I01
sg14
F0.6549482770011446
sg15
g124
sbs(I-15
I393
tp128
g0
(g9
g2
Ntp129
Rp130
(dp131
g13
I01
sg14
F-0.287790309723427
sg15
g128
sbs(I-8
I391
tp132
g0
(g9
g2
Ntp133
Rp134
(dp135
g13
I01
sg14
F0.5818131237884802
sg15
g132
sbs(I-19
I398
tp136
g0
(g9
g2
Ntp137
Rp138
(dp139
g13
I01
sg14
F3.0853820654860398
sg15
g136
sbs(I-7
I390
tp140
g0
(g9
g2
Ntp141
Rp142
(dp143
g13
I01
sg14
F-1.6558508625079837
sg15
g140
sbs(I-18
I396
tp144
g0
(g9
g2
Ntp145
Rp146
(dp147
g13
I01
sg14
F0.07163883821402162
sg15
g144
sbs(I-13
I396
tp148
g0
(g9
g2
Ntp149
Rp150
(dp151
g13
I01
sg14
F-1.0662063113935196
sg15
g148
sbs(I-1
I1491
tp152
g0
(g9
g2
Ntp153
Rp154
(dp155
g13
I01
sg14
F-1.7520184303933892
sg15
g152
sbs(I-14
I395
tp156
g0
(g9
g2
Ntp157
Rp158
(dp159
g13
I01
sg14
F3.041745100927329
sg15
g156
sbs(I-3
I389
tp160
g0
(g9
g2
Ntp161
Rp162
(dp163
g13
I01
sg14
F0.7169515468719564
sg15
g160
sbs(I-16
I390
tp164
g0
(g9
g2
Ntp165
Rp166
(dp167
g13
I01
sg14
F-0.9079579434074272
sg15
g164
sbs(I-6
I398
tp168
g0
(g9
g2
Ntp169
Rp170
(dp171
g13
I01
sg14
F-0.3941209696033604
sg15
g168
sbs(I399
I2
tp172
g0
(g9
g2
Ntp173
Rp174
(dp175
g13
I01
sg14
F-1.7089317785532925
sg15
g172
sbs(I-15
I391
tp176
g0
(g9
g2
Ntp177
Rp178
(dp179
g13
I01
sg14
F-2.298942719862102
sg15
g176
sbs(I-16
I393
tp180
g0
(g9
g2
Ntp181
Rp182
(dp183
g13
I01
sg14
F-0.42608656531812455
sg15
g180
sbs(I-5
I399
tp184
g0
(g9
g2
Ntp185
Rp186
(dp187
g13
I01
sg14
F0.24238344699175582
sg15
g184
sbs(I-20
I396
tp188
g0
(g9
g2
Ntp189
Rp190
(dp191
g13
I01
sg14
F-0.12139637427680033
sg15
g188
sbs(I-7
I396
tp192
g0
(g9
g2
Ntp193
Rp194
(dp195
g13
I01
sg14
F0.23719228171874912
sg15
g192
sbs(I-11
I393
tp196
g0
(g9
g2
Ntp197
Rp198
(dp199
g13
I01
sg14
F-2.0351502960982124
sg15
g196
sbs(I-12
I391
tp200
g0
(g9
g2
Ntp201
Rp202
(dp203
g13
I01
sg14
F0.2576619366955785
sg15
g200
sbs(I-11
I390
tp204
g0
(g9
g2
Ntp205
Rp206
(dp207
g13
I01
sg14
F0.9355795779390652
sg15
g204
sbs(I-18
I393
tp208
g0
(g9
g2
Ntp209
Rp210
(dp211
g13
I01
sg14
F1.7726396441665957
sg15
g208
sbs(I-1
I390
tp212
g0
(g9
g2
Ntp213
Rp214
(dp215
g13
I01
sg14
F0.14316830832124486
sg15
g212
sbs(I389
I2
tp216
g0
(g9
g2
Ntp217
Rp218
(dp219
g13
I01
sg14
F-1.0738873000378042
sg15
g216
sbs(I-13
I395
tp220
g0
(g9
g2
Ntp221
Rp222
(dp223
g13
I01
sg14
F1.2135580025340806
sg15
g220
sbs(I-4
I389
tp224
g0
(g9
g2
Ntp225
Rp226
(dp227
g13
I01
sg14
F-0.7019373744657971
sg15
g224
sbs(I391
I3
tp228
g0
(g9
g2
Ntp229
Rp230
(dp231
g13
I01
sg14
F0.35828057982575046
sg15
g228
sbs(I396
I1
tp232
g0
(g9
g2
Ntp233
Rp234
(dp235
g13
I01
sg14
F1.4378085837176091
sg15
g232
sbs(I-14
I396
tp236
g0
(g9
g2
Ntp237
Rp238
(dp239
g13
I01
sg14
F-0.45712004251227367
sg15
g236
sbs(I398
I4
tp240
g0
(g9
g2
Ntp241
Rp242
(dp243
g13
I00
sg14
F-0.5797499584379708
sg15
g240
sbs(I-20
I390
tp244
g0
(g9
g2
Ntp245
Rp246
(dp247
g13
I01
sg14
F1.568744257613837
sg15
g244
sbs(I399
I1
tp248
g0
(g9
g2
Ntp249
Rp250
(dp251
g13
I01
sg14
F1.6733008833664558
sg15
g248
sbs(I-8
I398
tp252
g0
(g9
g2
Ntp253
Rp254
(dp255
g13
I01
sg14
F-1.4649321379974598
sg15
g252
sbs(I-19
I391
tp256
g0
(g9
g2
Ntp257
Rp258
(dp259
g13
I01
sg14
F2.08324078698589
sg15
g256
sbs(I-12
I393
tp260
g0
(g9
g2
Ntp261
Rp262
(dp263
g13
I01
sg14
F1.7456215002740618
sg15
g260
sbs(I-9
I399
tp264
g0
(g9
g2
Ntp265
Rp266
(dp267
g13
I01
sg14
F-0.48786815787349086
sg15
g264
sbs(I-1
I389
tp268
g0
(g9
g2
Ntp269
Rp270
(dp271
g13
I01
sg14
F-1.558236306041707
sg15
g268
sbs(I-7
I399
tp272
g0
(g9
g2
Ntp273
Rp274
(dp275
g13
I01
sg14
F1.385361174765832
sg15
g272
sbs(I-11
I396
tp276
g0
(g9
g2
Ntp277
Rp278
(dp279
g13
I01
sg14
F5.304070769412881
sg15
g276
sbs(I393
I0
tp280
g0
(g9
g2
Ntp281
Rp282
(dp283
g13
I01
sg14
F4.424303663599782
sg15
g280
sbs(I-13
I390
tp284
g0
(g9
g2
Ntp285
Rp286
(dp287
g13
I01
sg14
F0.5725579200178798
sg15
g284
sbs(I-6
I393
tp288
g0
(g9
g2
Ntp289
Rp290
(dp291
g13
I01
sg14
F-2.4440218574676713
sg15
g288
sbs(I-3
I395
tp292
g0
(g9
g2
Ntp293
Rp294
(dp295
g13
I01
sg14
F-1.1519123254732855
sg15
g292
sbs(I398
I1
tp296
g0
(g9
g2
Ntp297
Rp298
(dp299
g13
I01
sg14
F2.1220621894541423
sg15
g296
sbs(I-20
I395
tp300
g0
(g9
g2
Ntp301
Rp302
(dp303
g13
I01
sg14
F-1.0177369232115767
sg15
g300
sbs(I-12
I1
tp304
g0
(g9
g2
Ntp305
Rp306
(dp307
g13
I01
sg14
F-0.9517770993222456
sg15
g304
sbs(I399
I4
tp308
g0
(g9
g2
Ntp309
Rp310
(dp311
g13
I01
sg14
F-3.205324516191475
sg15
g308
sbs(I-17
I398
tp312
g0
(g9
g2
Ntp313
Rp314
(dp315
g13
I01
sg14
F0.2835905175495963
sg15
g312
sbs(I-5
I393
tp316
g0
(g9
g2
Ntp317
Rp318
(dp319
g13
I01
sg14
F1.2729621747002295
sg15
g316
sbs(I-2
I390
tp320
g0
(g9
g2
Ntp321
Rp322
(dp323
g13
I01
sg14
F0.3150944605254232
sg15
g320
sbs(I-11
I399
tp324
g0
(g9
g2
Ntp325
Rp326
(dp327
g13
I01
sg14
F-2.4151533263819105
sg15
g324
sbs(I393
I3
tp328
g0
(g9
g2
Ntp329
Rp330
(dp331
g13
I01
sg14
F0.3746446878153994
sg15
g328
sbs(I-18
I391
tp332
g0
(g9
g2
Ntp333
Rp334
(dp335
g13
I00
sg14
F-0.41247584114032665
sg15
g332
sbs(I390
I0
tp336
g0
(g9
g2
Ntp337
Rp338
(dp339
g13
I01
sg14
F-0.23590408414685582
sg15
g336
sbs(I-13
I389
tp340
g0
(g9
g2
Ntp341
Rp342
(dp343
g13
I01
sg14
F0.8689554979310197
sg15
g340
sbs(I395
I0
tp344
g0
(g9
g2
Ntp345
Rp346
(dp347
g13
I01
sg14
F-1.3579638367073963
sg15
g344
sbs(I-4
I399
tp348
g0
(g9
g2
Ntp349
Rp350
(dp351
g13
I01
sg14
F0.9249153450026278
sg15
g348
sbs(I-17
I389
tp352
g0
(g9
g2
Ntp353
Rp354
(dp355
g13
I01
sg14
F0.5601256185101604
sg15
g352
sbs(I-3
I398
tp356
g0
(g9
g2
Ntp357
Rp358
(dp359
g13
I01
sg14
F0.45790233622231746
sg15
g356
sbs(I398
I2
tp360
g0
(g9
g2
Ntp361
Rp362
(dp363
g13
I00
sg14
F0.19939311473537086
sg15
g360
sbs(I-1
I396
tp364
g0
(g9
g2
Ntp365
Rp366
(dp367
g13
I01
sg14
F-5.2051178103891305
sg15
g364
sbs(I-7
I389
tp368
g0
(g9
g2
Ntp369
Rp370
(dp371
g13
I01
sg14
F0.6717243813305731
sg15
g368
sbs(I-13
I399
tp372
g0
(g9
g2
Ntp373
Rp374
(dp375
g13
I00
sg14
F-1.562252211056461
sg15
g372
sbs(I-15
I396
tp376
g0
(g9
g2
Ntp377
Rp378
(dp379
g13
I01
sg14
F4.306096211818147
sg15
g376
sbs(I-4
I396
tp380
g0
(g9
g2
Ntp381
Rp382
(dp383
g13
I01
sg14
F2.938052454383723
sg15
g380
sbs(I-16
I391
tp384
g0
(g9
g2
Ntp385
Rp386
(dp387
g13
I01
sg14
F-0.09298363146661315
sg15
g384
sbs(I-6
I399
tp388
g0
(g9
g2
Ntp389
Rp390
(dp391
g13
I01
sg14
F5.283572824628583
sg15
g388
sbs(I-8
I393
tp392
g0
(g9
g2
Ntp393
Rp394
(dp395
g13
I01
sg14
F-0.6954361302791968
sg15
g392
sbs(I-15
I390
tp396
g0
(g9
g2
Ntp397
Rp398
(dp399
g13
I01
sg14
F-1.2771176462500635
sg15
g396
sbs(I-5
I398
tp400
g0
(g9
g2
Ntp401
Rp402
(dp403
g13
I01
sg14
F-1.2344652168952979
sg15
g400
sbs(I-9
I395
tp404
g0
(g9
g2
Ntp405
Rp406
(dp407
g13
I01
sg14
F0.29187690316709203
sg15
g404
sbs(I-2
I393
tp408
g0
(g9
g2
Ntp409
Rp410
(dp411
g13
I01
sg14
F-3.9997780606224564
sg15
g408
sbs(I-15
I395
tp412
g0
(g9
g2
Ntp413
Rp414
(dp415
g13
I01
sg14
F-0.07381589538759765
sg15
g412
sbs(I-8
I389
tp416
g0
(g9
g2
Ntp417
Rp418
(dp419
g13
I00
sg14
F0.29322108070305136
sg15
g416
sbs(I-19
I396
tp420
g0
(g9
g2
Ntp421
Rp422
(dp423
g13
I01
sg14
F-0.4301443930900846
sg15
g420
sbs(I-11
I389
tp424
g0
(g9
g2
Ntp425
Rp426
(dp427
g13
I01
sg14
F0.23347202423759666
sg15
g424
sbs(I393
I4
tp428
g0
(g9
g2
Ntp429
Rp430
(dp431
g13
I01
sg14
F1.224004978623019
sg15
g428
sbs(I-18
I398
tp432
g0
(g9
g2
Ntp433
Rp434
(dp435
g13
I01
sg14
F-0.18108035830779357
sg15
g432
sbs(I389
I1
tp436
g0
(g9
g2
Ntp437
Rp438
(dp439
g13
I01
sg14
F1.287890486733633
sg15
g436
sbs(I-4
I390
tp440
g0
(g9
g2
Ntp441
Rp442
(dp443
g13
I01
sg14
F-2.7327340939290297
sg15
g440
sbs(I391
I2
tp444
g0
(g9
g2
Ntp445
Rp446
(dp447
g13
I01
sg14
F-0.6708658898045227
sg15
g444
sbs(I-3
I391
tp448
g0
(g9
g2
Ntp449
Rp450
(dp451
g13
I01
sg14
F0.4606175850385093
sg15
g448
sbs(I-20
I391
tp452
g0
(g9
g2
Ntp453
Rp454
(dp455
g13
I01
sg14
F0.4518405203995173
sg15
g452
sbs(I399
I0
tp456
g0
(g9
g2
Ntp457
Rp458
(dp459
g13
I01
sg14
F-2.107353028831632
sg15
g456
sbs(I-19
I390
tp460
g0
(g9
g2
Ntp461
Rp462
(dp463
g13
I01
sg14
F1.5063649066247604
sg15
g460
sbs(I-9
I398
tp464
g0
(g9
g2
Ntp465
Rp466
(dp467
g13
I00
sg14
F0.2433596577849402
sg15
g464
sbs(I395
I1
tp468
g0
(g9
g2
Ntp469
Rp470
(dp471
g13
I01
sg14
F-0.7733241392656953
sg15
g468
sbs(I-7
I398
tp472
g0
(g9
g2
Ntp473
Rp474
(dp475
g13
I00
sg14
F-1.0507369817769923
sg15
g472
sbs(I-17
I391
tp476
g0
(g9
g2
Ntp477
Rp478
(dp479
g13
I01
sg14
F-0.5243322867401004
sg15
g476
sbs(I-12
I389
tp480
g0
(g9
g2
Ntp481
Rp482
(dp483
g13
I01
sg14
F1.997043542144858
sg15
g480
sbs(I-5
I4
tp484
g0
(g9
g2
Ntp485
Rp486
(dp487
g13
I01
sg14
F-1.5397266995724188
sg15
g484
sbs(I-18
I395
tp488
g0
(g9
g2
Ntp489
Rp490
(dp491
g13
I01
sg14
F-0.831364024032386
sg15
g488
sbs(I390
I4
tp492
g0
(g9
g2
Ntp493
Rp494
(dp495
g13
I01
sg14
F0.17940488112559422
sg15
g492
sbs(I389
I4
tp496
g0
(g9
g2
Ntp497
Rp498
(dp499
g13
I01
sg14
F0.5617929822379755
sg15
g496
sbs(I-13
I393
tp500
g0
(g9
g2
Ntp501
Rp502
(dp503
g13
I00
sg14
F-0.07887586191657081
sg15
g500
sbs(I395
I4
tp504
g0
(g9
g2
Ntp505
Rp506
(dp507
g13
I01
sg14
F1.2229415088590958
sg15
g504
sbs(I-2
I396
tp508
g0
(g9
g2
Ntp509
Rp510
(dp511
g13
I01
sg14
F0.5260170299170353
sg15
g508
sbs(I-14
I398
tp512
g0
(g9
g2
Ntp513
Rp514
(dp515
g13
I00
sg14
F1.5050289993388037
sg15
g512
sbs(I-10
I389
tp516
g0
(g9
g2
Ntp517
Rp518
(dp519
g13
I01
sg14
F-0.6339488829394324
sg15
g516
sbs(I-5
I391
tp520
g0
(g9
g2
Ntp521
Rp522
(dp523
g13
I01
sg14
F1.2397239175709938
sg15
g520
sbs(I-6
I389
tp524
g0
(g9
g2
Ntp525
Rp526
(dp527
g13
I00
sg14
F0.1834761801162188
sg15
g524
sbs(I-1
I395
tp528
g0
(g9
g2
Ntp529
Rp530
(dp531
g13
I01
sg14
F-0.7963982835469091
sg15
g528
sbs(I393
I1348
tp532
g0
(g9
g2
Ntp533
Rp534
(dp535
g13
I01
sg14
F-1.2696767286071342
sg15
g532
sbs(I-17
I393
tp536
g0
(g9
g2
Ntp537
Rp538
(dp539
g13
I01
sg14
F-0.00256981433610437
sg15
g536
sbs(I-19
I393
tp540
g0
(g9
g2
Ntp541
Rp542
(dp543
g13
I01
sg14
F1.1519357756172395
sg15
g540
sbs(I-12
I399
tp544
g0
(g9
g2
Ntp545
Rp546
(dp547
g13
I01
sg14
F0.010629648526070068
sg15
g544
sbs(I-10
I398
tp548
g0
(g9
g2
Ntp549
Rp550
(dp551
g13
I01
sg14
F0.7853750408853912
sg15
g548
sbs(I-2
I391
tp552
g0
(g9
g2
Ntp553
Rp554
(dp555
g13
I01
sg14
F-1.5711921742579549
sg15
g552
sbs(I-7
I393
tp556
g0
(g9
g2
Ntp557
Rp558
(dp559
g13
I01
sg14
F0.1573343801186461
sg15
g556
sbs(I-11
I398
tp560
g0
(g9
g2
Ntp561
Rp562
(dp563
g13
I00
sg14
F1.4304250924858806
sg15
g560
sbs(I-10
I396
tp564
g0
(g9
g2
Ntp565
Rp566
(dp567
g13
I01
sg14
F0.2319049829968497
sg15
g564
sbs(I-17
I395
tp568
g0
(g9
g2
Ntp569
Rp570
(dp571
g13
I01
sg14
F-1.0308836437646407
sg15
g568
sbs(I393
I2
tp572
g0
(g9
g2
Ntp573
Rp574
(dp575
g13
I01
sg14
F-0.6457816436443242
sg15
g572
sbs(I390
I1
tp576
g0
(g9
g2
Ntp577
Rp578
(dp579
g13
I01
sg14
F-1.1474757671232583
sg15
g576
sbs(I395
I3
tp580
g0
(g9
g2
Ntp581
Rp582
(dp583
g13
I01
sg14
F2.325582761629366
sg15
g580
sbs(I391
I4
tp584
g0
(g9
g2
Ntp585
Rp586
(dp587
g13
I01
sg14
F-0.22380894285089095
sg15
g584
sbs(I396
I4
tp588
g0
(g9
g2
Ntp589
Rp590
(dp591
g13
I01
sg14
F0.26908944581673694
sg15
g588
sbs(I-6
I395
tp592
g0
(g9
g2
Ntp593
Rp594
(dp595
g13
I01
sg14
F-0.2942382549830615
sg15
g592
sbs(I-10
I390
tp596
g0
(g9
g2
Ntp597
Rp598
(dp599
g13
I01
sg14
F1.6909410145149768
sg15
g596
sbs(I398
I3
tp600
g0
(g9
g2
Ntp601
Rp602
(dp603
g13
I01
sg14
F-0.37628858899430606
sg15
g600
sbs(I-16
I398
tp604
g0
(g9
g2
Ntp605
Rp606
(dp607
g13
I01
sg14
F-0.18334683554995435
sg15
g604
sbs(I-6
I390
tp608
g0
(g9
g2
Ntp609
Rp610
(dp611
g13
I01
sg14
F-1.7412611017894644
sg15
g608
sbs(I-20
I393
tp612
g0
(g9
g2
Ntp613
Rp614
(dp615
g13
I01
sg14
F-2.183734622301745
sg15
g612
sbs(I-9
I391
tp616
g0
(g9
g2
Ntp617
Rp618
(dp619
g13
I01
sg14
F-6.692279096913923
sg15
g616
sbs(I-15
I399
tp620
g0
(g9
g2
Ntp621
Rp622
(dp623
g13
I01
sg14
F-3.2270477128598283
sg15
g620
sbs(I-17
I396
tp624
g0
(g9
g2
Ntp625
Rp626
(dp627
g13
I01
sg14
F2.593158027910501
sg15
g624
sbs(I395
I2
tp628
g0
(g9
g2
Ntp629
Rp630
(dp631
g13
I01
sg14
F3.459846355450514
sg15
g628
sbs(I-12
I396
tp632
g0
(g9
g2
Ntp633
Rp634
(dp635
g13
I00
sg14
F-0.6927571478434584
sg15
g632
sbs(I-13
I398
tp636
g0
(g9
g2
Ntp637
Rp638
(dp639
g13
I01
sg14
F0.09066575890859885
sg15
g636
sbs(I390
I2
tp640
g0
(g9
g2
Ntp641
Rp642
(dp643
g13
I01
sg14
F-1.0290047006267233
sg15
g640
sbs(I-14
I393
tp644
g0
(g9
g2
Ntp645
Rp646
(dp647
g13
I01
sg14
F-0.41026556559945426
sg15
g644
sbs(I-8
I395
tp648
g0
(g9
g2
Ntp649
Rp650
(dp651
g13
I01
sg14
F0.38693112905734084
sg15
g648
sbs(I-1
I399
tp652
g0
(g9
g2
Ntp653
Rp654
(dp655
g13
I01
sg14
F1.0982550618460092
sg15
g652
sbs(I-6
I396
tp656
g0
(g9
g2
Ntp657
Rp658
(dp659
g13
I01
sg14
F1.1044721852123283
sg15
g656
sbs(I-15
I389
tp660
g0
(g9
g2
Ntp661
Rp662
(dp663
g13
I01
sg14
F-0.5663523047764937
sg15
g660
sbs(I-16
I395
tp664
g0
(g9
g2
Ntp665
Rp666
(dp667
g13
I01
sg14
F4.311277040810346
sg15
g664
sbs(I-20
I398
tp668
g0
(g9
g2
Ntp669
Rp670
(dp671
g13
I01
sg14
F-0.17973354664744212
sg15
g668
sbs(I-2
I398
tp672
g0
(g9
g2
Ntp673
Rp674
(dp675
g13
I01
sg14
F1.2313181880850173
sg15
g672
sbs(I-8
I390
tp676
g0
(g9
g2
Ntp677
Rp678
(dp679
g13
I01
sg14
F1.1080960021289594
sg15
g676
sbs(I-19
I399
tp680
g0
(g9
g2
Ntp681
Rp682
(dp683
g13
I01
sg14
F-0.9174059590013857
sg15
g680
sbs(I-14
I391
tp684
g0
(g9
g2
Ntp685
Rp686
(dp687
g13
I01
sg14
F-1.0670736871359485
sg15
g684
sbs(I-7
I391
tp688
g0
(g9
g2
Ntp689
Rp690
(dp691
g13
I01
sg14
F-1.3315160779886386
sg15
g688
sbs(I-18
I399
tp692
g0
(g9
g2
Ntp693
Rp694
(dp695
g13
I01
sg14
F-1.9578974195205692
sg15
g692
sbs(I389
I0
tp696
g0
(g9
g2
Ntp697
Rp698
(dp699
g13
I01
sg14
F3.1850299026130044
sg15
g696
sbs(I-4
I391
tp700
g0
(g9
g2
Ntp701
Rp702
(dp703
g13
I01
sg14
F-0.4912876683901394
sg15
g700
sbs(I396
I3
tp704
g0
(g9
g2
Ntp705
Rp706
(dp707
g13
I01
sg14
F0.6256000388304329
sg15
g704
sbs(I-3
I390
tp708
g0
(g9
g2
Ntp709
Rp710
(dp711
g13
I01
sg14
F1.7771801431417467
sg15
g708
sbs(I-16
I389
tp712
g0
(g9
g2
Ntp713
Rp714
(dp715
g13
I00
sg14
F-0.30110096600444414
sg15
g712
sbs(I399
I3
tp716
g0
(g9
g2
Ntp717
Rp718
(dp719
g13
I01
sg14
F-0.6519483397982384
sg15
g716
sbs(I-19
I389
tp720
g0
(g9
g2
Ntp721
Rp722
(dp723
g13
I01
sg14
F0.925129273050203
sg15
g720
sbs(I-12
I395
tp724
g0
(g9
g2
Ntp725
Rp726
(dp727
g13
I01
sg14
F-0.605888955621732
sg15
g724
sbs(I-9
I393
tp728
g0
(g9
g2
Ntp729
Rp730
(dp731
g13
I01
sg14
F-0.7739861611244059
sg15
g728
sbs(I-2
I395
tp732
g0
(g9
g2
Ntp733
Rp734
(dp735
g13
I01
sg14
F-1.485015071093918
sg15
g732
sbs(I-17
I390
tp736
g0
(g9
g2
Ntp737
Rp738
(dp739
g13
I01
sg14
F-1.3962585475499238
sg15
g736
sbs(I-12
I390
tp740
g0
(g9
g2
Ntp741
Rp742
(dp743
g13
I01
sg14
F-1.2120861241005305
sg15
g740
sbs(I-11
I391
tp744
g0
(g9
g2
Ntp745
Rp746
(dp747
g13
I01
sg14
F-1.1811349549528523
sg15
g744
sbs(I389
I3
tp748
g0
(g9
g2
Ntp749
Rp750
(dp751
g13
I01
sg14
F-2.6151304954911954
sg15
g748
sbs(I391
I1
tp752
g0
(g9
g2
Ntp753
Rp754
(dp755
g13
I01
sg14
F-0.23893570747138104
sg15
g752
sbs(I1491
I391
tp756
g0
(g9
g2
Ntp757
Rp758
(dp759
g13
I01
sg14
F1.4236736072152552
sg15
g756
sbs(I391
I0
tp760
g0
(g9
g2
Ntp761
Rp762
(dp763
g13
I01
sg14
F0.04732746172910862
sg15
g760
sbs(I396
I0
tp764
g0
(g9
g2
Ntp765
Rp766
(dp767
g13
I01
sg14
F0.3711238083332516
sg15
g764
sbs(I-14
I399
tp768
g0
(g9
g2
Ntp769
Rp770
(dp771
g13
I01
sg14
F-3.951854378399386
sg15
g768
sbs(I-3
I393
tp772
g0
(g9
g2
Ntp773
Rp774
(dp775
g13
I01
sg14
F0.47931865455872347
sg15
g772
sbs(I-1
I398
tp776
g0
(g9
g2
Ntp777
Rp778
(dp779
g13
I01
sg14
F-1.4474484767655384
sg15
g776
sbs(I-5
I390
tp780
g0
(g9
g2
Ntp781
Rp782
(dp783
g13
I01
sg14
F2.1912833715785154
sg15
g780
sbs(I-20
I389
tp784
g0
(g9
g2
Ntp785
Rp786
(dp787
g13
I01
sg14
F-1.9990697416403291
sg15
g784
sbs(I-10
I393
tp788
g0
(g9
g2
Ntp789
Rp790
(dp791
g13
I01
sg14
F0.7234011792300945
sg15
g788
sbs(I-9
I396
tp792
g0
(g9
g2
Ntp793
Rp794
(dp795
g13
I01
sg14
F1.9309586791160505
sg15
g792
sbs(I-10
I395
tp796
g0
(g9
g2
Ntp797
Rp798
(dp799
g13
I01
sg14
F0.7395161694426291
sg15
g796
sbs(I1348
I1
tp800
g0
(g9
g2
Ntp801
Rp802
(dp803
g13
I01
sg14
F2.6469244586500937
sg15
g800
sbssS'nodes'
p804
(dp805
I0
g0
(cneat.genes
DefaultNodeGene
p806
g2
Ntp807
Rp808
(dp809
S'activation'
p810
S'tanh'
p811
sS'bias'
p812
F-0.32192183266291985
sS'response'
p813
F1.0
sg15
I0
sS'aggregation'
p814
S'sum'
p815
sbsI1
g0
(g806
g2
Ntp816
Rp817
(dp818
g810
g811
sg812
F-0.9558524854317436
sg813
F1.0
sg15
I1
sg814
g815
sbsI2
g0
(g806
g2
Ntp819
Rp820
(dp821
g810
g811
sg812
F-1.191370431990592
sg813
F1.0
sg15
I2
sg814
g815
sbsI3
g0
(g806
g2
Ntp822
Rp823
(dp824
g810
g811
sg812
F0.04423325604674497
sg813
F1.0
sg15
I3
sg814
g815
sbsI4
g0
(g806
g2
Ntp825
Rp826
(dp827
g810
g811
sg812
F0.8474949005660799
sg813
F1.0
sg15
I4
sg814
g815
sbsI389
g0
(g806
g2
Ntp828
Rp829
(dp830
g810
g811
sg812
F-0.7066569933754857
sg813
F1.0
sg15
I389
sg814
g815
sbsI390
g0
(g806
g2
Ntp831
Rp832
(dp833
g810
g811
sg812
F1.1187633204136207
sg813
F1.0
sg15
I390
sg814
g815
sbsI391
g0
(g806
g2
Ntp834
Rp835
(dp836
g810
g811
sg812
F-1.4862849757204646
sg813
F1.0
sg15
I391
sg814
g815
sbsI393
g0
(g806
g2
Ntp837
Rp838
(dp839
g810
g811
sg812
F0.8389127129845018
sg813
F1.0
sg15
I393
sg814
g815
sbsI395
g0
(g806
g2
Ntp840
Rp841
(dp842
g810
g811
sg812
F-1.738691135870792
sg813
F1.0
sg15
I395
sg814
g815
sbsI396
g0
(g806
g2
Ntp843
Rp844
(dp845
g810
g811
sg812
F0.9444996877839416
sg813
F1.0
sg15
I396
sg814
g815
sbsI398
g0
(g806
g2
Ntp846
Rp847
(dp848
g810
g811
sg812
F-0.029482184208526885
sg813
F1.0
sg15
I398
sg814
g815
sbsI399
g0
(g806
g2
Ntp849
Rp850
(dp851
g810
g811
sg812
F-0.24358177682632354
sg813
F1.0
sg15
I399
sg814
g815
sbsI1491
g0
(g806
g2
Ntp852
Rp853
(dp854
g810
g811
sg812
F0.9209703893636181
sg813
F1.0
sg15
I1491
sg814
g815
sbsI1348
g0
(g806
g2
Ntp855
Rp856
(dp857
g810
g811
sg812
F0.2735492647185758
sg813
F1.0
sg15
I1348
sg814
g815
sbssg15
I1999
sS'fitness'
p858
F90.0
sb.