ccopy_reg
_reconstructor
p0
(cneat.genome
DefaultGenome
p1
c__builtin__
object
p2
Ntp3
Rp4
(dp5
S'connections'
p6
(dp7
(I279
I3
tp8
g0
(cneat.genes
DefaultConnectionGene
p9
g2
Ntp10
Rp11
(dp12
S'enabled'
p13
I01
sS'weight'
p14
F0.18160932885897058
sS'key'
p15
g8
sbs(I-10
I276
tp16
g0
(g9
g2
Ntp17
Rp18
(dp19
g13
I01
sg14
F-1.0
sg15
g16
sbs(I-11
I276
tp20
g0
(g9
g2
Ntp21
Rp22
(dp23
g13
I01
sg14
F1.0
sg15
g20
sbs(I-20
I276
tp24
g0
(g9
g2
Ntp25
Rp26
(dp27
g13
I01
sg14
F1.0
sg15
g24
sbs(I-5
I276
tp28
g0
(g9
g2
Ntp29
Rp30
(dp31
g13
I01
sg14
F0.8838794107944888
sg15
g28
sbs(I-6
I276
tp32
g0
(g9
g2
Ntp33
Rp34
(dp35
g13
I01
sg14
F0.143432410534755
sg15
g32
sbs(I-15
I284
tp36
g0
(g9
g2
Ntp37
Rp38
(dp39
g13
I01
sg14
F-0.6939191155190124
sg15
g36
sbs(I-10
I283
tp40
g0
(g9
g2
Ntp41
Rp42
(dp43
g13
I01
sg14
F0.21220080623981025
sg15
g40
sbs(I-19
I281
tp44
g0
(g9
g2
Ntp45
Rp46
(dp47
g13
I01
sg14
F-0.9126126395351924
sg15
g44
sbs(I-4
I279
tp48
g0
(g9
g2
Ntp49
Rp50
(dp51
g13
I01
sg14
F0.26578550234989806
sg15
g48
sbs(I-5
I281
tp52
g0
(g9
g2
Ntp53
Rp54
(dp55
g13
I01
sg14
F1.0
sg15
g52
sbs(I-14
I283
tp56
g0
(g9
g2
Ntp57
Rp58
(dp59
g13
I01
sg14
F-0.13484647184776694
sg15
g56
sbs(I-3
I278
tp60
g0
(g9
g2
Ntp61
Rp62
(dp63
g13
I01
sg14
F-1.0
sg15
g60
sbs(I-18
I279
tp64
g0
(g9
g2
Ntp65
Rp66
(dp67
g13
I01
sg14
F0.2239655097247729
sg15
g64
sbs(I-2
I280
tp68
g0
(g9
g2
Ntp69
Rp70
(dp71
g13
I01
sg14
F0.7757976890649495
sg15
g68
sbs(I-12
I283
tp72
g0
(g9
g2
Ntp73
Rp74
(dp75
g13
I01
sg14
F0.9595976031462055
sg15
g72
sbs(I-13
I277
tp76
g0
(g9
g2
Ntp77
Rp78
(dp79
g13
I01
sg14
F-0.3814397815783544
sg15
g76
sbs(I-8
I275
tp80
g0
(g9
g2
Ntp81
Rp82
(dp83
g13
I01
sg14
F1.0
sg15
g80
sbs(I-17
I275
tp84
g0
(g9
g2
Ntp85
Rp86
(dp87
g13
I01
sg14
F-0.7610128655002615
sg15
g84
sbs(I-11
I282
tp88
g0
(g9
g2
Ntp89
Rp90
(dp91
g13
I01
sg14
F0.14052564576636267
sg15
g88
sbs(I-12
I278
tp92
g0
(g9
g2
Ntp93
Rp94
(dp95
g13
I01
sg14
F-0.49825203486782077
sg15
g92
sbs(I281
I4
tp96
g0
(g9
g2
Ntp97
Rp98
(dp99
g13
I01
sg14
F0.21332855515395646
sg15
g96
sbs(I-6
I282
tp100
g0
(g9
g2
Ntp101
Rp102
(dp103
g13
I01
sg14
F-0.1433709756613368
sg15
g100
sbs(I277
I1
tp104
g0
(g9
g2
Ntp105
Rp106
(dp107
g13
I01
sg14
F1.0
sg15
g104
sbs(I-11
I279
tp108
g0
(g9
g2
Ntp109
Rp110
(dp111
g13
I01
sg14
F0.3640894189111441
sg15
g108
sbs(I-20
I281
tp112
g0
(g9
g2
Ntp113
Rp114
(dp115
g13
I01
sg14
F-0.989671121464723
sg15
g112
sbs(I-5
I275
tp116
g0
(g9
g2
Ntp117
Rp118
(dp119
g13
I01
sg14
F0.8623321691994456
sg15
g116
sbs(I279
I2
tp120
g0
(g9
g2
Ntp121
Rp122
(dp123
g13
I01
sg14
F0.3493405601701579
sg15
g120
sbs(I-9
I276
tp124
g0
(g9
g2
Ntp125
Rp126
(dp127
g13
I01
sg14
F-0.7559941989037314
sg15
g124
sbs(I284
I2
tp128
g0
(g9
g2
Ntp129
Rp130
(dp131
g13
I01
sg14
F1.0
sg15
g128
sbs(I-19
I284
tp132
g0
(g9
g2
Ntp133
Rp134
(dp135
g13
I01
sg14
F1.0
sg15
g132
sbs(I-4
I276
tp136
g0
(g9
g2
Ntp137
Rp138
(dp139
g13
I01
sg14
F-0.473392132687592
sg15
g136
sbs(I-14
I284
tp140
g0
(g9
g2
Ntp141
Rp142
(dp143
g13
I01
sg14
F1.0
sg15
g140
sbs(I-3
I281
tp144
g0
(g9
g2
Ntp145
Rp146
(dp147
g13
I01
sg14
F1.0
sg15
g144
sbs(I279
I4
tp148
g0
(g9
g2
Ntp149
Rp150
(dp151
g13
I01
sg14
F0.7388857217679999
sg15
g148
sbs(I-17
I280
tp152
g0
(g9
g2
Ntp153
Rp154
(dp155
g13
I01
sg14
F1.0
sg15
g152
sbs(I-1
I277
tp156
g0
(g9
g2
Ntp157
Rp158
(dp159
g13
I01
sg14
F-0.5706861575277268
sg15
g156
sbs(I-12
I280
tp160
g0
(g9
g2
Ntp161
Rp162
(dp163
g13
I01
sg14
F0.5629434741811455
sg15
g160
sbs(I-2
I279
tp164
g0
(g9
g2
Ntp165
Rp166
(dp167
g13
I01
sg14
F-0.08981199295890178
sg15
g164
sbs(I-7
I280
tp168
g0
(g9
g2
Ntp169
Rp170
(dp171
g13
I01
sg14
F-0.42517330838935946
sg15
g168
sbs(I-17
I277
tp172
g0
(g9
g2
Ntp173
Rp174
(dp175
g13
I01
sg14
F0.5264243063033096
sg15
g172
sbs(I276
I1
tp176
g0
(g9
g2
Ntp177
Rp178
(dp179
g13
I01
sg14
F-0.1907365075671461
sg15
g176
sbs(I-20
I275
tp180
g0
(g9
g2
Ntp181
Rp182
(dp183
g13
I01
sg14
F0.20848912019898888
sg15
g180
sbs(I-15
I277
tp184
g0
(g9
g2
Ntp185
Rp186
(dp187
g13
I01
sg14
F0.437241530613572
sg15
g184
sbs(I-16
I283
tp188
g0
(g9
g2
Ntp189
Rp190
(dp191
g13
I01
sg14
F-0.9360249326324604
sg15
g188
sbs(I283
I4
tp192
g0
(g9
g2
Ntp193
Rp194
(dp195
g13
I01
sg14
F-0.9383681994033586
sg15
g192
sbs(I282
I4
tp196
g0
(g9
g2
Ntp197
Rp198
(dp199
g13
I01
sg14
F0.31454287931695407
sg15
g196
sbs(I279
I1
tp200
g0
(g9
g2
Ntp201
Rp202
(dp203
g13
I01
sg14
F-0.034474088361942
sg15
g200
sbs(I-15
I282
tp204
g0
(g9
g2
Ntp205
Rp206
(dp207
g13
I01
sg14
F0.4487745862503318
sg15
g204
sbs(I-9
I283
tp208
g0
(g9
g2
Ntp209
Rp210
(dp211
g13
I01
sg14
F0.2882717688212399
sg15
g208
sbs(I-4
I281
tp212
g0
(g9
g2
Ntp213
Rp214
(dp215
g13
I01
sg14
F-0.2929367156119273
sg15
g212
sbs(I-1
I281
tp216
g0
(g9
g2
Ntp217
Rp218
(dp219
g13
I01
sg14
F0.1047939683897071
sg15
g216
sbs(I-3
I284
tp220
g0
(g9
g2
Ntp221
Rp222
(dp223
g13
I01
sg14
F-0.05145175874351028
sg15
g220
sbs(I282
I1
tp224
g0
(g9
g2
Ntp225
Rp226
(dp227
g13
I01
sg14
F-0.0988380151186949
sg15
g224
sbs(I278
I4
tp228
g0
(g9
g2
Ntp229
Rp230
(dp231
g13
I01
sg14
F1.0
sg15
g228
sbs(I-13
I282
tp232
g0
(g9
g2
Ntp233
Rp234
(dp235
g13
I01
sg14
F-0.9395142256012282
sg15
g232
sbs(I-8
I282
tp236
g0
(g9
g2
Ntp237
Rp238
(dp239
g13
I01
sg14
F1.0
sg15
g236
sbs(I-2
I278
tp240
g0
(g9
g2
Ntp241
Rp242
(dp243
g13
I01
sg14
F0.3990613165273767
sg15
g240
sbs(I280
I3
tp244
g0
(g9
g2
Ntp245
Rp246
(dp247
g13
I01
sg14
F0.6256837597351628
sg15
g244
sbs(I-7
I283
tp248
g0
(g9
g2
Ntp249
Rp250
(dp251
g13
I01
sg14
F1.0
sg15
g248
sbs(I-16
I277
tp252
g0
(g9
g2
Ntp253
Rp254
(dp255
g13
I01
sg14
F-0.0862361947386219
sg15
g252
sbs(I281
I2
tp256
g0
(g9
g2
Ntp257
Rp258
(dp259
g13
I01
sg14
F-0.752363966720119
sg15
g256
sbs(I278
I1
tp260
g0
(g9
g2
Ntp261
Rp262
(dp263
g13
I01
sg14
F0.3115139304719323
sg15
g260
sbs(I-16
I280
tp264
g0
(g9
g2
Ntp265
Rp266
(dp267
g13
I01
sg14
F-1.0
sg15
g264
sbs(I-19
I277
tp268
g0
(g9
g2
Ntp269
Rp270
(dp271
g13
I01
sg14
F-0.0767847147491439
sg15
g268
sbs(I-4
I275
tp272
g0
(g9
g2
Ntp273
Rp274
(dp275
g13
I01
sg14
F-0.337358378805144
sg15
g272
sbs(I-14
I279
tp276
g0
(g9
g2
Ntp277
Rp278
(dp279
g13
I01
sg14
F0.7086239615616188
sg15
g276
sbs(I-17
I278
tp280
g0
(g9
g2
Ntp281
Rp282
(dp283
g13
I01
sg14
F-0.3945249288935267
sg15
g280
sbs(I-18
I283
tp284
g0
(g9
g2
Ntp285
Rp286
(dp287
g13
I01
sg14
F-0.40296302881173346
sg15
g284
sbs(I-2
I284
tp288
g0
(g9
g2
Ntp289
Rp290
(dp291
g13
I01
sg14
F-0.5253370103121296
sg15
g288
sbs(I-13
I281
tp292
g0
(g9
g2
Ntp293
Rp294
(dp295
g13
I01
sg14
F1.0
sg15
g292
sbs(I-8
I279
tp296
g0
(g9
g2
Ntp297
Rp298
(dp299
g13
I01
sg14
F0.323834253759971
sg15
g296
sbs(I-2
I275
tp300
g0
(g9
g2
Ntp301
Rp302
(dp303
g13
I01
sg14
F-0.25274651362288425
sg15
g300
sbs(I283
I0
tp304
g0
(g9
g2
Ntp305
Rp306
(dp307
g13
I01
sg14
F0.06190945216315211
sg15
g304
sbs(I-1
I278
tp308
g0
(g9
g2
Ntp309
Rp310
(dp311
g13
I01
sg14
F-1.0
sg15
g308
sbs(I-7
I278
tp312
g0
(g9
g2
Ntp313
Rp314
(dp315
g13
I01
sg14
F0.7125278807095365
sg15
g312
sbs(I283
I2
tp316
g0
(g9
g2
Ntp317
Rp318
(dp319
g13
I01
sg14
F-1.0
sg15
g316
sbs(I-10
I277
tp320
g0
(g9
g2
Ntp321
Rp322
(dp323
g13
I01
sg14
F-0.13376572962519837
sg15
g320
sbs(I-11
I275
tp324
g0
(g9
g2
Ntp325
Rp326
(dp327
g13
I01
sg14
F-1.0
sg15
g324
sbs(I-20
I277
tp328
g0
(g9
g2
Ntp329
Rp330
(dp331
g13
I01
sg14
F-0.7646758965898179
sg15
g328
sbs(I-5
I279
tp332
g0
(g9
g2
Ntp333
Rp334
(dp335
g13
I01
sg14
F0.5248158784025346
sg15
g332
sbs(I-6
I277
tp336
g0
(g9
g2
Ntp337
Rp338
(dp339
g13
I01
sg14
F0.28652445521301106
sg15
g336
sbs(I-15
I275
tp340
g0
(g9
g2
Ntp341
Rp342
(dp343
g13
I01
sg14
F-1.0
sg15
g340
sbs(I-10
I280
tp344
g0
(g9
g2
Ntp345
Rp346
(dp347
g13
I01
sg14
F-0.0596186225537222
sg15
g344
sbs(I-19
I280
tp348
g0
(g9
g2
Ntp349
Rp350
(dp351
g13
I01
sg14
F0.05417405355630834
sg15
g348
sbs(I-5
I280
tp352
g0
(g9
g2
Ntp353
Rp354
(dp355
g13
I01
sg14
F-1.0
sg15
g352
sbs(I-14
I280
tp356
g0
(g9
g2
Ntp357
Rp358
(dp359
g13
I01
sg14
F0.24894682372854757
sg15
g356
sbs(I-3
I277
tp360
g0
(g9
g2
Ntp361
Rp362
(dp363
g13
I01
sg14
F-0.8255254869060674
sg15
g360
sbs(I-1
I280
tp364
g0
(g9
g2
Ntp365
Rp366
(dp367
g13
I01
sg14
F0.2334011851614927
sg15
g364
sbs(I282
I0
tp368
g0
(g9
g2
Ntp369
Rp370
(dp371
g13
I01
sg14
F1.0
sg15
g368
sbs(I-18
I276
tp372
g0
(g9
g2
Ntp373
Rp374
(dp375
g13
I01
sg14
F1.0
sg15
g372
sbs(I-2
I281
tp376
g0
(g9
g2
Ntp377
Rp378
(dp379
g13
I01
sg14
F0.15217740603333807
sg15
g376
sbs(I-13
I276
tp380
g0
(g9
g2
Ntp381
Rp382
(dp383
g13
I01
sg14
F-0.44561673337192886
sg15
g380
sbs(I-7
I284
tp384
g0
(g9
g2
Ntp385
Rp386
(dp387
g13
I01
sg14
F0.4990518807828658
sg15
g384
sbs(I-8
I276
tp388
g0
(g9
g2
Ntp389
Rp390
(dp391
g13
I01
sg14
F-0.885216908358324
sg15
g388
sbs(I-11
I281
tp392
g0
(g9
g2
Ntp393
Rp394
(dp395
g13
I01
sg14
F-1.0
sg15
g392
sbs(I-12
I279
tp396
g0
(g9
g2
Ntp397
Rp398
(dp399
g13
I01
sg14
F-0.9083991094521617
sg15
g396
sbs(I-6
I283
tp400
g0
(g9
g2
Ntp401
Rp402
(dp403
g13
I01
sg14
F-0.43858311575886544
sg15
g400
sbs(I277
I0
tp404
g0
(g9
g2
Ntp405
Rp406
(dp407
g13
I01
sg14
F-0.56959186622843
sg15
g404
sbs(I-10
I278
tp408
g0
(g9
g2
Ntp409
Rp410
(dp411
g13
I01
sg14
F-0.9672986067742919
sg15
g408
sbs(I-11
I278
tp412
g0
(g9
g2
Ntp413
Rp414
(dp415
g13
I01
sg14
F0.15682252320686516
sg15
g412
sbs(I-20
I282
tp416
g0
(g9
g2
Ntp417
Rp418
(dp419
g13
I01
sg14
F1.0
sg15
g416
sbs(I-6
I278
tp420
g0
(g9
g2
Ntp421
Rp422
(dp423
g13
I01
sg14
F-1.0
sg15
g420
sbs(I-9
I279
tp424
g0
(g9
g2
Ntp425
Rp426
(dp427
g13
I01
sg14
F-1.0
sg15
g424
sbs(I284
I3
tp428
g0
(g9
g2
Ntp429
Rp430
(dp431
g13
I01
sg14
F-0.18872672099699891
sg15
g428
sbs(I-19
I283
tp432
g0
(g9
g2
Ntp433
Rp434
(dp435
g13
I01
sg14
F0.13546299153560182
sg15
g432
sbs(I-4
I277
tp436
g0
(g9
g2
Ntp437
Rp438
(dp439
g13
I01
sg14
F-0.427107802224396
sg15
g436
sbs(I-3
I280
tp440
g0
(g9
g2
Ntp441
Rp442
(dp443
g13
I01
sg14
F1.0
sg15
g440
sbs(I-17
I283
tp444
g0
(g9
g2
Ntp445
Rp446
(dp447
g13
I01
sg14
F1.0
sg15
g444
sbs(I-2
I282
tp448
g0
(g9
g2
Ntp449
Rp450
(dp451
g13
I01
sg14
F1.0
sg15
g448
sbs(I-12
I281
tp452
g0
(g9
g2
Ntp453
Rp454
(dp455
g13
I01
sg14
F0.32499421534306494
sg15
g452
sbs(I-13
I275
tp456
g0
(g9
g2
Ntp457
Rp458
(dp459
g13
I01
sg14
F1.0
sg15
g456
sbs(I-17
I276
tp460
g0
(g9
g2
Ntp461
Rp462
(dp463
g13
I01
sg14
F-0.9023181155320178
sg15
g460
sbs(I276
I2
tp464
g0
(g9
g2
Ntp465
Rp466
(dp467
g13
I01
sg14
F0.2924759561496146
sg15
g464
sbs(I-11
I284
tp468
g0
(g9
g2
Ntp469
Rp470
(dp471
g13
I01
sg14
F0.07267725178966866
sg15
g468
sbs(I-12
I276
tp472
g0
(g9
g2
Ntp473
Rp474
(dp475
g13
I01
sg14
F-1.0
sg15
g472
sbs(I-6
I284
tp476
g0
(g9
g2
Ntp477
Rp478
(dp479
g13
I01
sg14
F-0.19765007630373366
sg15
g476
sbs(I-15
I276
tp480
g0
(g9
g2
Ntp481
Rp482
(dp483
g13
I01
sg14
F-0.17275790247302233
sg15
g480
sbs(I-16
I284
tp484
g0
(g9
g2
Ntp485
Rp486
(dp487
g13
I01
sg14
F0.9309642520108014
sg15
g484
sbs(I-10
I275
tp488
g0
(g9
g2
Ntp489
Rp490
(dp491
g13
I01
sg14
F-0.9569429963285284
sg15
g488
sbs(I-14
I275
tp492
g0
(g9
g2
Ntp493
Rp494
(dp495
g13
I01
sg14
F0.8484852932430058
sg15
g492
sbs(I-15
I281
tp496
g0
(g9
g2
Ntp497
Rp498
(dp499
g13
I01
sg14
F-0.5904497593486168
sg15
g496
sbs(I-9
I282
tp500
g0
(g9
g2
Ntp501
Rp502
(dp503
g13
I01
sg14
F1.0
sg15
g500
sbs(I284
I0
tp504
g0
(g9
g2
Ntp505
Rp506
(dp507
g13
I01
sg14
F1.0
sg15
g504
sbs(I-4
I282
tp508
g0
(g9
g2
Ntp509
Rp510
(dp511
g13
I01
sg14
F-0.4932548555535175
sg15
g508
sbs(I-3
I283
tp512
g0
(g9
g2
Ntp513
Rp514
(dp515
g13
I01
sg14
F0.43198743171451837
sg15
g512
sbs(I-2
I283
tp516
g0
(g9
g2
Ntp517
Rp518
(dp519
g13
I01
sg14
F-0.18933092545439997
sg15
g516
sbs(I282
I3
tp520
g0
(g9
g2
Ntp521
Rp522
(dp523
g13
I01
sg14
F-0.02282198288075303
sg15
g520
sbs(I-8
I283
tp524
g0
(g9
g2
Ntp525
Rp526
(dp527
g13
I01
sg14
F-1.0
sg15
g524
sbs(I-1
I279
tp528
g0
(g9
g2
Ntp529
Rp530
(dp531
g13
I01
sg14
F0.7510175543437012
sg15
g528
sbs(I280
I4
tp532
g0
(g9
g2
Ntp533
Rp534
(dp535
g13
I01
sg14
F-0.4075991427273681
sg15
g532
sbs(I-7
I282
tp536
g0
(g9
g2
Ntp537
Rp538
(dp539
g13
I01
sg14
F-0.24823878453899384
sg15
g536
sbs(I-16
I278
tp540
g0
(g9
g2
Ntp541
Rp542
(dp543
g13
I01
sg14
F0.7664048127198806
sg15
g540
sbs(I284
I4
tp544
g0
(g9
g2
Ntp545
Rp546
(dp547
g13
I01
sg14
F-1.0
sg15
g544
sbs(I281
I1
tp548
g0
(g9
g2
Ntp549
Rp550
(dp551
g13
I01
sg14
F0.687602369096882
sg15
g548
sbs(I-15
I279
tp552
g0
(g9
g2
Ntp553
Rp554
(dp555
g13
I01
sg14
F0.4976908078986129
sg15
g552
sbs(I-16
I281
tp556
g0
(g9
g2
Ntp557
Rp558
(dp559
g13
I01
sg14
F-0.8538186981893372
sg15
g556
sbs(I-10
I284
tp560
g0
(g9
g2
Ntp561
Rp562
(dp563
g13
I01
sg14
F-0.19548424205927856
sg15
g560
sbs(I-19
I276
tp564
g0
(g9
g2
Ntp565
Rp566
(dp567
g13
I01
sg14
F1.0
sg15
g564
sbs(I-20
I284
tp568
g0
(g9
g2
Ntp569
Rp570
(dp571
g13
I01
sg14
F-1.0
sg15
g568
sbs(I-5
I284
tp572
g0
(g9
g2
Ntp573
Rp574
(dp575
g13
I01
sg14
F-0.00873863690313793
sg15
g572
sbs(I-14
I276
tp576
g0
(g9
g2
Ntp577
Rp578
(dp579
g13
I01
sg14
F0.17070888690800326
sg15
g576
sbs(I-9
I281
tp580
g0
(g9
g2
Ntp581
Rp582
(dp583
g13
I01
sg14
F-1.0
sg15
g580
sbs(I278
I2
tp584
g0
(g9
g2
Ntp585
Rp586
(dp587
g13
I01
sg14
F0.6124446615657504
sg15
g584
sbs(I-18
I280
tp588
g0
(g9
g2
Ntp589
Rp590
(dp591
g13
I01
sg14
F-0.486231639143552
sg15
g588
sbs(I-13
I280
tp592
g0
(g9
g2
Ntp593
Rp594
(dp595
g13
I01
sg14
F1.0
sg15
g592
sbs(I-8
I280
tp596
g0
(g9
g2
Ntp597
Rp598
(dp599
g13
I01
sg14
F-1.0
sg15
g596
sbs(I275
I3
tp600
g0
(g9
g2
Ntp601
Rp602
(dp603
g13
I01
sg14
F-0.43683202424787815
sg15
g600
sbs(I-12
I275
tp604
g0
(g9
g2
Ntp605
Rp606
(dp607
g13
I01
sg14
F0.4826531832325906
sg15
g604
sbs(I280
I1
tp608
g0
(g9
g2
Ntp609
Rp610
(dp611
g13
I01
sg14
F0.30610367677702605
sg15
g608
sbs(I-7
I277
tp612
g0
(g9
g2
Ntp613
Rp614
(dp615
g13
I01
sg14
F-0.004929858580028084
sg15
g612
sbs(I-16
I275
tp616
g0
(g9
g2
Ntp617
Rp618
(dp619
g13
I01
sg14
F-0.6777771995823098
sg15
g616
sbs(I276
I4
tp620
g0
(g9
g2
Ntp621
Rp622
(dp623
g13
I01
sg14
F0.31282980164351953
sg15
g620
sbs(I-20
I278
tp624
g0
(g9
g2
Ntp625
Rp626
(dp627
g13
I01
sg14
F0.5761955974167102
sg15
g624
sbs(I-5
I278
tp628
g0
(g9
g2
Ntp629
Rp630
(dp631
g13
I01
sg14
F0.523862733830421
sg15
g628
sbs(I278
I3
tp632
g0
(g9
g2
Ntp633
Rp634
(dp635
g13
I01
sg14
F0.7237198666189737
sg15
g632
sbs(I-9
I275
tp636
g0
(g9
g2
Ntp637
Rp638
(dp639
g13
I01
sg14
F-0.13988008214074457
sg15
g636
sbs(I-10
I281
tp640
g0
(g9
g2
Ntp641
Rp642
(dp643
g13
I01
sg14
F1.0
sg15
g640
sbs(I-19
I279
tp644
g0
(g9
g2
Ntp645
Rp646
(dp647
g13
I01
sg14
F0.5481873049594854
sg15
g644
sbs(I-5
I283
tp648
g0
(g9
g2
Ntp649
Rp650
(dp651
g13
I01
sg14
F-0.8485802307156564
sg15
g648
sbs(I-14
I281
tp652
g0
(g9
g2
Ntp653
Rp654
(dp655
g13
I01
sg14
F0.1723054397888461
sg15
g652
sbs(I-9
I284
tp656
g0
(g9
g2
Ntp657
Rp658
(dp659
g13
I01
sg14
F0.4455554267714811
sg15
g656
sbs(I-3
I276
tp660
g0
(g9
g2
Ntp661
Rp662
(dp663
g13
I01
sg14
F-1.0
sg15
g660
sbs(I-4
I284
tp664
g0
(g9
g2
Ntp665
Rp666
(dp667
g13
I01
sg14
F-0.8520330533008681
sg15
g664
sbs(I-1
I282
tp668
g0
(g9
g2
Ntp669
Rp670
(dp671
g13
I01
sg14
F-0.1924425342160321
sg15
g668
sbs(I-18
I277
tp672
g0
(g9
g2
Ntp673
Rp674
(dp675
g13
I01
sg14
F0.8118614276166838
sg15
g672
sbs(I-13
I279
tp676
g0
(g9
g2
Ntp677
Rp678
(dp679
g13
I01
sg14
F-0.00029357220499025017
sg15
g676
sbs(I282
I2
tp680
g0
(g9
g2
Ntp681
Rp682
(dp683
g13
I01
sg14
F-0.380028832033308
sg15
g680
sbs(I-8
I277
tp684
g0
(g9
g2
Ntp685
Rp686
(dp687
g13
I01
sg14
F-0.4627217739921189
sg15
g684
sbs(I-11
I280
tp688
g0
(g9
g2
Ntp689
Rp690
(dp691
g13
I01
sg14
F-0.26475171907885964
sg15
g688
sbs(I-6
I280
tp692
g0
(g9
g2
Ntp693
Rp694
(dp695
g13
I01
sg14
F-1.0
sg15
g692
sbs(I-10
I279
tp696
g0
(g9
g2
Ntp697
Rp698
(dp699
g13
I01
sg14
F-0.38995815900170716
sg15
g696
sbs(I-11
I277
tp700
g0
(g9
g2
Ntp701
Rp702
(dp703
g13
I01
sg14
F-0.846846272016199
sg15
g700
sbs(I-20
I283
tp704
g0
(g9
g2
Ntp705
Rp706
(dp707
g13
I01
sg14
F-0.16359944749623564
sg15
g704
sbs(I-5
I277
tp708
g0
(g9
g2
Ntp709
Rp710
(dp711
g13
I01
sg14
F1.0
sg15
g708
sbs(I-6
I279
tp712
g0
(g9
g2
Ntp713
Rp714
(dp715
g13
I01
sg14
F1.0
sg15
g712
sbs(I-9
I278
tp716
g0
(g9
g2
Ntp717
Rp718
(dp719
g13
I01
sg14
F0.2787499036654646
sg15
g716
sbs(I-10
I282
tp720
g0
(g9
g2
Ntp721
Rp722
(dp723
g13
I01
sg14
F-1.0
sg15
g720
sbs(I-19
I282
tp724
g0
(g9
g2
Ntp725
Rp726
(dp727
g13
I01
sg14
F-0.46385798781448573
sg15
g724
sbs(I-4
I278
tp728
g0
(g9
g2
Ntp729
Rp730
(dp731
g13
I01
sg14
F0.8639513827255622
sg15
g728
sbs(I283
I3
tp732
g0
(g9
g2
Ntp733
Rp734
(dp735
g13
I01
sg14
F1.0
sg15
g732
sbs(I-14
I282
tp736
g0
(g9
g2
Ntp737
Rp738
(dp739
g13
I01
sg14
F0.13115531190810908
sg15
g736
sbs(I-3
I279
tp740
g0
(g9
g2
Ntp741
Rp742
(dp743
g13
I01
sg14
F0.7575812578274768
sg15
g740
sbs(I-17
I282
tp744
g0
(g9
g2
Ntp745
Rp746
(dp747
g13
I01
sg14
F-0.19945172583887835
sg15
g744
sbs(I-18
I278
tp748
g0
(g9
g2
Ntp749
Rp750
(dp751
g13
I01
sg14
F-1.0
sg15
g748
sbs(I-1
I283
tp752
g0
(g9
g2
Ntp753
Rp754
(dp755
g13
I01
sg14
F0.25346714403797194
sg15
g752
sbs(I-12
I282
tp756
g0
(g9
g2
Ntp757
Rp758
(dp759
g13
I01
sg14
F1.0
sg15
g756
sbs(I-17
I279
tp760
g0
(g9
g2
Ntp761
Rp762
(dp763
g13
I01
sg14
F-0.3196735725769238
sg15
g760
sbs(I276
I3
tp764
g0
(g9
g2
Ntp765
Rp766
(dp767
g13
I01
sg14
F0.021753155112969897
sg15
g764
sbs(I-11
I283
tp768
g0
(g9
g2
Ntp769
Rp770
(dp771
g13
I01
sg14
F-1.0
sg15
g768
sbs(I-12
I277
tp772
g0
(g9
g2
Ntp773
Rp774
(dp775
g13
I01
sg14
F-0.7444348562022861
sg15
g772
sbs(I-7
I275
tp776
g0
(g9
g2
Ntp777
Rp778
(dp779
g13
I01
sg14
F0.889203789374755
sg15
g776
sbs(I277
I2
tp780
g0
(g9
g2
Ntp781
Rp782
(dp783
g13
I01
sg14
F-1.0
sg15
g780
sbs(I-20
I280
tp784
g0
(g9
g2
Ntp785
Rp786
(dp787
g13
I01
sg14
F0.4364410980465376
sg15
g784
sbs(I-1
I275
tp788
g0
(g9
g2
Ntp789
Rp790
(dp791
g13
I01
sg14
F-0.6075239903609507
sg15
g788
sbs(I-15
I280
tp792
g0
(g9
g2
Ntp793
Rp794
(dp795
g13
I01
sg14
F0.5634629293408053
sg15
g792
sbs(I-9
I277
tp796
g0
(g9
g2
Ntp797
Rp798
(dp799
g13
I01
sg14
F0.5254539209900095
sg15
g796
sbs(I284
I1
tp800
g0
(g9
g2
Ntp801
Rp802
(dp803
g13
I01
sg14
F-1.0
sg15
g800
sbs(I-4
I283
tp804
g0
(g9
g2
Ntp805
Rp806
(dp807
g13
I01
sg14
F1.0
sg15
g804
sbs(I277
I3
tp808
g0
(g9
g2
Ntp809
Rp810
(dp811
g13
I01
sg14
F-0.8873970818365817
sg15
g808
sbs(I-3
I282
tp812
g0
(g9
g2
Ntp813
Rp814
(dp815
g13
I01
sg14
F0.5985814515366281
sg15
g812
sbs(I-18
I284
tp816
g0
(g9
g2
Ntp817
Rp818
(dp819
g13
I01
sg14
F-0.21656981059536576
sg15
g816
sbs(I275
I0
tp820
g0
(g9
g2
Ntp821
Rp822
(dp823
g13
I01
sg14
F1.0
sg15
g820
sbs(I280
I0
tp824
g0
(g9
g2
Ntp825
Rp826
(dp827
g13
I01
sg14
F0.333981475539309
sg15
g824
sbs(I-13
I284
tp828
g0
(g9
g2
Ntp829
Rp830
(dp831
g13
I01
sg14
F-1.0
sg15
g828
sbs(I-2
I277
tp832
g0
(g9
g2
Ntp833
Rp834
(dp835
g13
I01
sg14
F-0.9761396881115185
sg15
g832
sbs(I-8
I284
tp836
g0
(g9
g2
Ntp837
Rp838
(dp839
g13
I01
sg14
F-0.7609574274687235
sg15
g836
sbs(I-18
I275
tp840
g0
(g9
g2
Ntp841
Rp842
(dp843
g13
I01
sg14
F-0.045313523864024007
sg15
g840
sbs(I-1
I276
tp844
g0
(g9
g2
Ntp845
Rp846
(dp847
g13
I01
sg14
F-0.5706538294717834
sg15
g844
sbs(I-7
I281
tp848
g0
(g9
g2
Ntp849
Rp850
(dp851
g13
I01
sg14
F0.2907599757370901
sg15
g848
sbs(I-16
I279
tp852
g0
(g9
g2
Ntp853
Rp854
(dp855
g13
I01
sg14
F1.0
sg15
g852
sbs(I276
I0
tp856
g0
(g9
g2
Ntp857
Rp858
(dp859
g13
I01
sg14
F0.6272423657701788
sg15
g856
sbs(I281
I0
tp860
g0
(g9
g2
Ntp861
Rp862
(dp863
g13
I01
sg14
F-1.0
sg15
g860
sbs(I-15
I278
tp864
g0
(g9
g2
Ntp865
Rp866
(dp867
g13
I01
sg14
F0.09299800792314226
sg15
g864
sbs(I-16
I282
tp868
g0
(g9
g2
Ntp869
Rp870
(dp871
g13
I01
sg14
F1.0
sg15
g868
sbs(I-19
I275
tp872
g0
(g9
g2
Ntp873
Rp874
(dp875
g13
I01
sg14
F-0.7341857596981902
sg15
g872
sbs(I279
I0
tp876
g0
(g9
g2
Ntp877
Rp878
(dp879
g13
I01
sg14
F0.5837645895581649
sg15
g876
sbs(I-14
I277
tp880
g0
(g9
g2
Ntp881
Rp882
(dp883
g13
I01
sg14
F1.0
sg15
g880
sbs(I-15
I283
tp884
g0
(g9
g2
Ntp885
Rp886
(dp887
g13
I01
sg14
F1.0
sg15
g884
sbs(I-9
I280
tp888
g0
(g9
g2
Ntp889
Rp890
(dp891
g13
I01
sg14
F0.21542818485384993
sg15
g888
sbs(I-4
I280
tp892
g0
(g9
g2
Ntp893
Rp894
(dp895
g13
I01
sg14
F0.7668902179800021
sg15
g892
sbs(I283
I1
tp896
g0
(g9
g2
Ntp897
Rp898
(dp899
g13
I01
sg14
F1.0
sg15
g896
sbs(I-17
I284
tp900
g0
(g9
g2
Ntp901
Rp902
(dp903
g13
I01
sg14
F0.3494955759843827
sg15
g900
sbs(I-18
I281
tp904
g0
(g9
g2
Ntp905
Rp906
(dp907
g13
I01
sg14
F-0.2580449501120592
sg15
g904
sbs(I-13
I283
tp908
g0
(g9
g2
Ntp909
Rp910
(dp911
g13
I01
sg14
F0.44427422318600296
sg15
g908
sbs(I-8
I281
tp912
g0
(g9
g2
Ntp913
Rp914
(dp915
g13
I01
sg14
F-0.7252805834801694
sg15
g912
sbs(I275
I2
tp916
g0
(g9
g2
Ntp917
Rp918
(dp919
g13
I01
sg14
F-0.14438439026705624
sg15
g916
sbs(I-12
I284
tp920
g0
(g9
g2
Ntp921
Rp922
(dp923
g13
I01
sg14
F0.3293001882825393
sg15
g920
sbs(I280
I2
tp924
g0
(g9
g2
Ntp925
Rp926
(dp927
g13
I01
sg14
F1.0
sg15
g924
sbs(I-7
I276
tp928
g0
(g9
g2
Ntp929
Rp930
(dp931
g13
I01
sg14
F0.10015758473853616
sg15
g928
sbs(I-16
I276
tp932
g0
(g9
g2
Ntp933
Rp934
(dp935
g13
I01
sg14
F0.5443700799531096
sg15
g932
sbs(I-20
I279
tp936
g0
(g9
g2
Ntp937
Rp938
(dp939
g13
I01
sg14
F0.6956904673397168
sg15
g936
sbs(I281
I3
tp940
g0
(g9
g2
Ntp941
Rp942
(dp943
g13
I01
sg14
F-0.10861533229692329
sg15
g940
sbs(I-6
I275
tp944
g0
(g9
g2
Ntp945
Rp946
(dp947
g13
I01
sg14
F1.0
sg15
g944
sbs(I278
I0
tp948
g0
(g9
g2
Ntp949
Rp950
(dp951
g13
I01
sg14
F0.6098949753164559
sg15
g948
sbs(I-19
I278
tp952
g0
(g9
g2
Ntp953
Rp954
(dp955
g13
I01
sg14
F1.0
sg15
g952
sbs(I-5
I282
tp956
g0
(g9
g2
Ntp957
Rp958
(dp959
g13
I01
sg14
F-0.1484602361052245
sg15
g956
sbs(I-14
I278
tp960
g0
(g9
g2
Ntp961
Rp962
(dp963
g13
I01
sg14
F-1.0
sg15
g960
sbs(I275
I4
tp964
g0
(g9
g2
Ntp965
Rp966
(dp967
g13
I01
sg14
F0.8037234836967073
sg15
g964
sbs(I-3
I275
tp968
g0
(g9
g2
Ntp969
Rp970
(dp971
g13
I01
sg14
F1.0
sg15
g968
sbs(I-1
I284
tp972
g0
(g9
g2
Ntp973
Rp974
(dp975
g13
I01
sg14
F-1.0
sg15
g972
sbs(I-17
I281
tp976
g0
(g9
g2
Ntp977
Rp978
(dp979
g13
I01
sg14
F-1.0
sg15
g976
sbs(I277
I4
tp980
g0
(g9
g2
Ntp981
Rp982
(dp983
g13
I01
sg14
F0.10126829504668475
sg15
g980
sbs(I-18
I282
tp984
g0
(g9
g2
Ntp985
Rp986
(dp987
g13
I01
sg14
F-0.20897553846109224
sg15
g984
sbs(I-13
I278
tp988
g0
(g9
g2
Ntp989
Rp990
(dp991
g13
I01
sg14
F-1.0
sg15
g988
sbs(I-2
I276
tp992
g0
(g9
g2
Ntp993
Rp994
(dp995
g13
I01
sg14
F0.39983574110427506
sg15
g992
sbs(I-8
I278
tp996
g0
(g9
g2
Ntp997
Rp998
(dp999
g13
I01
sg14
F-0.36021777282010153
sg15
g996
sbs(I275
I1
tp1000
g0
(g9
g2
Ntp1001
Rp1002
(dp1003
g13
I01
sg14
F-0.5181778161233155
sg15
g1000
sbs(I-6
I281
tp1004
g0
(g9
g2
Ntp1005
Rp1006
(dp1007
g13
I01
sg14
F-0.4952862724415148
sg15
g1004
sbs(I-7
I279
tp1008
g0
(g9
g2
Ntp1009
Rp1010
(dp1011
g13
I01
sg14
F-1.0
sg15
g1008
sbssS'nodes'
p1012
(dp1013
I0
g0
(cneat.genes
DefaultNodeGene
p1014
g2
Ntp1015
Rp1016
(dp1017
S'activation'
p1018
S'sigmoid'
p1019
sS'bias'
p1020
F0.5800131336130404
sS'response'
p1021
F1.0
sg15
I0
sS'aggregation'
p1022
S'product'
p1023
sbsI1
g0
(g1014
g2
Ntp1024
Rp1025
(dp1026
g1018
g1019
sg1020
F0.5634988243640666
sg1021
F1.0
sg15
I1
sg1022
g1023
sbsI2
g0
(g1014
g2
Ntp1027
Rp1028
(dp1029
g1018
g1019
sg1020
F-0.8654637917032559
sg1021
F1.0
sg15
I2
sg1022
g1023
sbsI3
g0
(g1014
g2
Ntp1030
Rp1031
(dp1032
g1018
g1019
sg1020
F0.9807972419504327
sg1021
F1.0
sg15
I3
sg1022
g1023
sbsI4
g0
(g1014
g2
Ntp1033
Rp1034
(dp1035
g1018
g1019
sg1020
F1.0
sg1021
F1.0
sg15
I4
sg1022
g1023
sbsI275
g0
(g1014
g2
Ntp1036
Rp1037
(dp1038
g1018
g1019
sg1020
F-0.858736078109855
sg1021
F1.0
sg15
I275
sg1022
g1023
sbsI276
g0
(g1014
g2
Ntp1039
Rp1040
(dp1041
g1018
g1019
sg1020
F0.6832510508910881
sg1021
F1.0
sg15
I276
sg1022
g1023
sbsI277
g0
(g1014
g2
Ntp1042
Rp1043
(dp1044
g1018
g1019
sg1020
F1.0
sg1021
F1.0
sg15
I277
sg1022
g1023
sbsI278
g0
(g1014
g2
Ntp1045
Rp1046
(dp1047
g1018
g1019
sg1020
F1.0
sg1021
F1.0
sg15
I278
sg1022
g1023
sbsI279
g0
(g1014
g2
Ntp1048
Rp1049
(dp1050
g1018
g1019
sg1020
F-0.8637238966893351
sg1021
F1.0
sg15
I279
sg1022
g1023
sbsI280
g0
(g1014
g2
Ntp1051
Rp1052
(dp1053
g1018
g1019
sg1020
F-1.0
sg1021
F1.0
sg15
I280
sg1022
g1023
sbsI281
g0
(g1014
g2
Ntp1054
Rp1055
(dp1056
g1018
g1019
sg1020
F-0.3484577003294954
sg1021
F1.0
sg15
I281
sg1022
g1023
sbsI282
g0
(g1014
g2
Ntp1057
Rp1058
(dp1059
g1018
g1019
sg1020
F-0.7900414734093166
sg1021
F1.0
sg15
I282
sg1022
g1023
sbsI283
g0
(g1014
g2
Ntp1060
Rp1061
(dp1062
g1018
g1019
sg1020
F1.0
sg1021
F1.0
sg15
I283
sg1022
g1023
sbsI284
g0
(g1014
g2
Ntp1063
Rp1064
(dp1065
g1018
g1019
sg1020
F0.7884221526291636
sg1021
F1.0
sg15
I284
sg1022
g1023
sbssg15
I28
sS'fitness'
p1066
cnumpy.core.multiarray
scalar
p1067
(cnumpy
dtype
p1068
(S'f8'
p1069
I0
I1
tp1070
Rp1071
(I3
S'<'
p1072
NNNI-1
I-1
I0
tp1073
bS'}\xca\xf9@\x90!D@'
p1074
tp1075
Rp1076
sb.