ccopy_reg
_reconstructor
p0
(cneat.genome
DefaultGenome
p1
c__builtin__
object
p2
Ntp3
Rp4
(dp5
S'connections'
p6
(dp7
(I-1
I454
tp8
g0
(cneat.genes
DefaultConnectionGene
p9
g2
Ntp10
Rp11
(dp12
S'enabled'
p13
I01
sS'weight'
p14
F-0.9214750809974692
sS'key'
p15
g8
sbs(I-8
I446
tp16
g0
(g9
g2
Ntp17
Rp18
(dp19
g13
I01
sg14
F-0.21952391391355375
sg15
g16
sbs(I-7
I447
tp20
g0
(g9
g2
Ntp21
Rp22
(dp23
g13
I01
sg14
F1.0
sg15
g20
sbs(I449
I4
tp24
g0
(g9
g2
Ntp25
Rp26
(dp27
g13
I01
sg14
F0.33031179068575744
sg15
g24
sbs(I445
I1
tp28
g0
(g9
g2
Ntp29
Rp30
(dp31
g13
I01
sg14
F-1.0
sg15
g28
sbs(I-1
I447
tp32
g0
(g9
g2
Ntp33
Rp34
(dp35
g13
I01
sg14
F0.4255139860481127
sg15
g32
sbs(I-5
I454
tp36
g0
(g9
g2
Ntp37
Rp38
(dp39
g13
I01
sg14
F0.19051988806090142
sg15
g36
sbs(I447
I2
tp40
g0
(g9
g2
Ntp41
Rp42
(dp43
g13
I01
sg14
F-1.0
sg15
g40
sbs(I452
I2
tp44
g0
(g9
g2
Ntp45
Rp46
(dp47
g13
I01
sg14
F0.3100129731955734
sg15
g44
sbs(I-10
I449
tp48
g0
(g9
g2
Ntp49
Rp50
(dp51
g13
I01
sg14
F0.9638931910908618
sg15
g48
sbs(I-8
I452
tp52
g0
(g9
g2
Ntp53
Rp54
(dp55
g13
I01
sg14
F-0.6540542399475537
sg15
g52
sbs(I453
I3
tp56
g0
(g9
g2
Ntp57
Rp58
(dp59
g13
I01
sg14
F-0.48537307809818764
sg15
g56
sbs(I-12
I451
tp60
g0
(g9
g2
Ntp61
Rp62
(dp63
g13
I01
sg14
F-0.7920826834826722
sg15
g60
sbs(I-9
I451
tp64
g0
(g9
g2
Ntp65
Rp66
(dp67
g13
I01
sg14
F-1.0
sg15
g64
sbs(I-1
I451
tp68
g0
(g9
g2
Ntp69
Rp70
(dp71
g13
I01
sg14
F0.752258166599018
sg15
g68
sbs(I-18
I452
tp72
g0
(g9
g2
Ntp73
Rp74
(dp75
g13
I01
sg14
F-0.7416827021847981
sg15
g72
sbs(I-17
I446
tp76
g0
(g9
g2
Ntp77
Rp78
(dp79
g13
I01
sg14
F-0.7399230247438627
sg15
g76
sbs(I-13
I452
tp80
g0
(g9
g2
Ntp81
Rp82
(dp83
g13
I01
sg14
F-1.0
sg15
g80
sbs(I-11
I445
tp84
g0
(g9
g2
Ntp85
Rp86
(dp87
g13
I01
sg14
F-0.2602260099064134
sg15
g84
sbs(I-3
I448
tp88
g0
(g9
g2
Ntp89
Rp90
(dp91
g13
I01
sg14
F-0.26173555213758337
sg15
g88
sbs(I-4
I449
tp92
g0
(g9
g2
Ntp93
Rp94
(dp95
g13
I01
sg14
F-0.27081592038488356
sg15
g92
sbs(I-20
I446
tp96
g0
(g9
g2
Ntp97
Rp98
(dp99
g13
I01
sg14
F-0.1700351095516168
sg15
g96
sbs(I446
I4
tp100
g0
(g9
g2
Ntp101
Rp102
(dp103
g13
I01
sg14
F-0.5301571384042693
sg15
g100
sbs(I-5
I450
tp104
g0
(g9
g2
Ntp105
Rp106
(dp107
g13
I01
sg14
F-1.0
sg15
g104
sbs(I-19
I447
tp108
g0
(g9
g2
Ntp109
Rp110
(dp111
g13
I01
sg14
F0.41245865300184475
sg15
g108
sbs(I451
I4
tp112
g0
(g9
g2
Ntp113
Rp114
(dp115
g13
I01
sg14
F0.15368538036054202
sg15
g112
sbs(I450
I4
tp116
g0
(g9
g2
Ntp117
Rp118
(dp119
g13
I01
sg14
F1.0
sg15
g116
sbs(I-9
I450
tp120
g0
(g9
g2
Ntp121
Rp122
(dp123
g13
I01
sg14
F-0.17994408708194892
sg15
g120
sbs(I447
I1
tp124
g0
(g9
g2
Ntp125
Rp126
(dp127
g13
I01
sg14
F-0.9637837953000029
sg15
g124
sbs(I-20
I450
tp128
g0
(g9
g2
Ntp129
Rp130
(dp131
g13
I01
sg14
F0.4759980703634007
sg15
g128
sbs(I-4
I447
tp132
g0
(g9
g2
Ntp133
Rp134
(dp135
g13
I01
sg14
F1.0
sg15
g132
sbs(I-10
I450
tp136
g0
(g9
g2
Ntp137
Rp138
(dp139
g13
I01
sg14
F-0.48357664843294124
sg15
g136
sbs(I-7
I452
tp140
g0
(g9
g2
Ntp141
Rp142
(dp143
g13
I01
sg14
F0.7734434947137989
sg15
g140
sbs(I-3
I446
tp144
g0
(g9
g2
Ntp145
Rp146
(dp147
g13
I01
sg14
F-1.0
sg15
g144
sbs(I-11
I449
tp148
g0
(g9
g2
Ntp149
Rp150
(dp151
g13
I01
sg14
F0.45716482109547335
sg15
g148
sbs(I-8
I453
tp152
g0
(g9
g2
Ntp153
Rp154
(dp155
g13
I01
sg14
F-0.3381770116852516
sg15
g152
sbs(I-2
I449
tp156
g0
(g9
g2
Ntp157
Rp158
(dp159
g13
I01
sg14
F-0.8101422304562897
sg15
g156
sbs(I-12
I448
tp160
g0
(g9
g2
Ntp161
Rp162
(dp163
g13
I01
sg14
F0.279666048285101
sg15
g160
sbs(I-12
I445
tp164
g0
(g9
g2
Ntp165
Rp166
(dp167
g13
I01
sg14
F-1.0
sg15
g164
sbs(I-13
I448
tp168
g0
(g9
g2
Ntp169
Rp170
(dp171
g13
I01
sg14
F1.0
sg15
g168
sbs(I-18
I449
tp172
g0
(g9
g2
Ntp173
Rp174
(dp175
g13
I01
sg14
F1.0
sg15
g172
sbs(I-17
I445
tp176
g0
(g9
g2
Ntp177
Rp178
(dp179
g13
I01
sg14
F-0.5899214959866762
sg15
g176
sbs(I-13
I451
tp180
g0
(g9
g2
Ntp181
Rp182
(dp183
g13
I01
sg14
F0.37606407838876216
sg15
g180
sbs(I-3
I451
tp184
g0
(g9
g2
Ntp185
Rp186
(dp187
g13
I01
sg14
F-0.09101856385204032
sg15
g184
sbs(I448
I3
tp188
g0
(g9
g2
Ntp189
Rp190
(dp191
g13
I01
sg14
F1.0
sg15
g188
sbs(I-6
I446
tp192
g0
(g9
g2
Ntp193
Rp194
(dp195
g13
I00
sg14
F0.5236402273172548
sg15
g192
sbs(I-4
I454
tp196
g0
(g9
g2
Ntp197
Rp198
(dp199
g13
I01
sg14
F0.24911805107957555
sg15
g196
sbs(I-18
I445
tp200
g0
(g9
g2
Ntp201
Rp202
(dp203
g13
I01
sg14
F0.7997182081628558
sg15
g200
sbs(I449
I2
tp204
g0
(g9
g2
Ntp205
Rp206
(dp207
g13
I01
sg14
F1.0
sg15
g204
sbs(I-15
I453
tp208
g0
(g9
g2
Ntp209
Rp210
(dp211
g13
I01
sg14
F-0.2526291995094114
sg15
g208
sbs(I446
I1
tp212
g0
(g9
g2
Ntp213
Rp214
(dp215
g13
I01
sg14
F1.0
sg15
g212
sbs(I-5
I449
tp216
g0
(g9
g2
Ntp217
Rp218
(dp219
g13
I01
sg14
F0.9433291433374353
sg15
g216
sbs(I-19
I450
tp220
g0
(g9
g2
Ntp221
Rp222
(dp223
g13
I01
sg14
F-0.581017331803656
sg15
g220
sbs(I451
I3
tp224
g0
(g9
g2
Ntp225
Rp226
(dp227
g13
I01
sg14
F1.0
sg15
g224
sbs(I-16
I452
tp228
g0
(g9
g2
Ntp229
Rp230
(dp231
g13
I01
sg14
F-0.549109309620728
sg15
g228
sbs(I447
I4
tp232
g0
(g9
g2
Ntp233
Rp234
(dp235
g13
I01
sg14
F-0.12087616314115046
sg15
g232
sbs(I-6
I448
tp236
g0
(g9
g2
Ntp237
Rp238
(dp239
g13
I01
sg14
F-1.0
sg15
g236
sbs(I452
I4
tp240
g0
(g9
g2
Ntp241
Rp242
(dp243
g13
I01
sg14
F0.16655448727668423
sg15
g240
sbs(I-8
I451
tp244
g0
(g9
g2
Ntp245
Rp246
(dp247
g13
I00
sg14
F0.3494936701664644
sg15
g244
sbs(I454
I3
tp248
g0
(g9
g2
Ntp249
Rp250
(dp251
g13
I01
sg14
F0.2742466480410425
sg15
g248
sbs(I-11
I452
tp252
g0
(g9
g2
Ntp253
Rp254
(dp255
g13
I01
sg14
F0.424978576826171
sg15
g252
sbs(I-8
I450
tp256
g0
(g9
g2
Ntp257
Rp258
(dp259
g13
I01
sg14
F0.3000764455139542
sg15
g256
sbs(I-5
I446
tp260
g0
(g9
g2
Ntp261
Rp262
(dp263
g13
I01
sg14
F1.0
sg15
g260
sbs(I-12
I453
tp264
g0
(g9
g2
Ntp265
Rp266
(dp267
g13
I01
sg14
F1.0
sg15
g264
sbs(I-9
I448
tp268
g0
(g9
g2
Ntp269
Rp270
(dp271
g13
I01
sg14
F-0.25445656497501623
sg15
g268
sbs(I-18
I450
tp272
g0
(g9
g2
Ntp273
Rp274
(dp275
g13
I01
sg14
F1.0
sg15
g272
sbs(I-3
I454
tp276
g0
(g9
g2
Ntp277
Rp278
(dp279
g13
I01
sg14
F0.2606925909177866
sg15
g276
sbs(I448
I0
tp280
g0
(g9
g2
Ntp281
Rp282
(dp283
g13
I01
sg14
F-1.0
sg15
g280
sbs(I-14
I451
tp284
g0
(g9
g2
Ntp285
Rp286
(dp287
g13
I01
sg14
F-1.0
sg15
g284
sbs(I-18
I446
tp288
g0
(g9
g2
Ntp289
Rp290
(dp291
g13
I01
sg14
F0.6079845460214504
sg15
g288
sbs(I-15
I445
tp292
g0
(g9
g2
Ntp293
Rp294
(dp295
g13
I01
sg14
F-0.9800371895525146
sg15
g292
sbs(I-15
I448
tp296
g0
(g9
g2
Ntp297
Rp298
(dp299
g13
I01
sg14
F0.805150634018438
sg15
g296
sbs(I446
I2
tp300
g0
(g9
g2
Ntp301
Rp302
(dp303
g13
I01
sg14
F1.0
sg15
g300
sbs(I-19
I453
tp304
g0
(g9
g2
Ntp305
Rp306
(dp307
g13
I01
sg14
F0.0979399031831852
sg15
g304
sbs(I-10
I453
tp308
g0
(g9
g2
Ntp309
Rp310
(dp311
g13
I01
sg14
F0.6729289865445389
sg15
g308
sbs(I-16
I449
tp312
g0
(g9
g2
Ntp313
Rp314
(dp315
g13
I01
sg14
F0.9153651198034297
sg15
g312
sbs(I-6
I453
tp316
g0
(g9
g2
Ntp317
Rp318
(dp319
g13
I01
sg14
F-0.3306015968692794
sg15
g316
sbs(I-20
I452
tp320
g0
(g9
g2
Ntp321
Rp322
(dp323
g13
I01
sg14
F-0.32883432633351417
sg15
g320
sbs(I-10
I445
tp324
g0
(g9
g2
Ntp325
Rp326
(dp327
g13
I01
sg14
F-0.036001430248981836
sg15
g324
sbs(I-7
I450
tp328
g0
(g9
g2
Ntp329
Rp330
(dp331
g13
I01
sg14
F0.40589911308361815
sg15
g328
sbs(I-8
I447
tp332
g0
(g9
g2
Ntp333
Rp334
(dp335
g13
I01
sg14
F0.7044406703311984
sg15
g332
sbs(I-5
I445
tp336
g0
(g9
g2
Ntp337
Rp338
(dp339
g13
I01
sg14
F-1.0
sg15
g336
sbs(I-6
I447
tp340
g0
(g9
g2
Ntp341
Rp342
(dp343
g13
I01
sg14
F-1.0
sg15
g340
sbs(I-13
I449
tp344
g0
(g9
g2
Ntp345
Rp346
(dp347
g13
I01
sg14
F1.0
sg15
g344
sbs(I-7
I446
tp348
g0
(g9
g2
Ntp349
Rp350
(dp351
g13
I01
sg14
F0.7603384331851184
sg15
g348
sbs(I-16
I445
tp352
g0
(g9
g2
Ntp353
Rp354
(dp355
g13
I01
sg14
F-0.25448767416388823
sg15
g352
sbs(I-14
I452
tp356
g0
(g9
g2
Ntp357
Rp358
(dp359
g13
I01
sg14
F-0.43803014234303617
sg15
g356
sbs(I445
I0
tp360
g0
(g9
g2
Ntp361
Rp362
(dp363
g13
I01
sg14
F0.49035065934390143
sg15
g360
sbs(I450
I0
tp364
g0
(g9
g2
Ntp365
Rp366
(dp367
g13
I01
sg14
F-0.6368029921235685
sg15
g364
sbs(I-15
I451
tp368
g0
(g9
g2
Ntp369
Rp370
(dp371
g13
I01
sg14
F0.6646580510079518
sg15
g368
sbs(I452
I3
tp372
g0
(g9
g2
Ntp373
Rp374
(dp375
g13
I01
sg14
F0.7999258514250867
sg15
g372
sbs(I-10
I454
tp376
g0
(g9
g2
Ntp377
Rp378
(dp379
g13
I01
sg14
F0.28132399305036515
sg15
g376
sbs(I-5
I452
tp380
g0
(g9
g2
Ntp381
Rp382
(dp383
g13
I01
sg14
F-1.0
sg15
g380
sbs(I-6
I454
tp384
g0
(g9
g2
Ntp385
Rp386
(dp387
g13
I01
sg14
F0.6226972767933767
sg15
g384
sbs(I453
I2
tp388
g0
(g9
g2
Ntp389
Rp390
(dp391
g13
I01
sg14
F-0.8170949209370478
sg15
g388
sbs(I-10
I446
tp392
g0
(g9
g2
Ntp393
Rp394
(dp395
g13
I01
sg14
F0.9949944719582433
sg15
g392
sbs(I-9
I447
tp396
g0
(g9
g2
Ntp397
Rp398
(dp399
g13
I01
sg14
F-0.014062030300985129
sg15
g396
sbs(I-18
I453
tp400
g0
(g9
g2
Ntp401
Rp402
(dp403
g13
I01
sg14
F-1.0
sg15
g400
sbs(I-13
I447
tp404
g0
(g9
g2
Ntp405
Rp406
(dp407
g13
I01
sg14
F-0.8706960566464419
sg15
g404
sbs(I-2
I446
tp408
g0
(g9
g2
Ntp409
Rp410
(dp411
g13
I01
sg14
F-1.0
sg15
g408
sbs(I-1
I449
tp412
g0
(g9
g2
Ntp413
Rp414
(dp415
g13
I01
sg14
F-0.7001519489097643
sg15
g412
sbs(I-4
I450
tp416
g0
(g9
g2
Ntp417
Rp418
(dp419
g13
I01
sg14
F0.6410541474254986
sg15
g416
sbs(I-20
I447
tp420
g0
(g9
g2
Ntp421
Rp422
(dp423
g13
I01
sg14
F-0.8525688528561217
sg15
g420
sbs(I-5
I453
tp424
g0
(g9
g2
Ntp425
Rp426
(dp427
g13
I01
sg14
F-0.7402154587304932
sg15
g424
sbs(I-19
I446
tp428
g0
(g9
g2
Ntp429
Rp430
(dp431
g13
I01
sg14
F1.0
sg15
g428
sbs(I-9
I454
tp432
g0
(g9
g2
Ntp433
Rp434
(dp435
g13
I01
sg14
F1.0
sg15
g432
sbs(I447
I0
tp436
g0
(g9
g2
Ntp437
Rp438
(dp439
g13
I01
sg14
F0.7566982273872158
sg15
g436
sbs(I-20
I451
tp440
g0
(g9
g2
Ntp441
Rp442
(dp443
g13
I01
sg14
F-1.0
sg15
g440
sbs(I452
I0
tp444
g0
(g9
g2
Ntp445
Rp446
(dp447
g13
I01
sg14
F-0.14874964623595144
sg15
g444
sbs(I-10
I451
tp448
g0
(g9
g2
Ntp449
Rp450
(dp451
g13
I01
sg14
F-1.0
sg15
g448
sbs(I-3
I445
tp452
g0
(g9
g2
Ntp453
Rp454
(dp455
g13
I01
sg14
F-1.0
sg15
g452
sbs(I-11
I448
tp456
g0
(g9
g2
Ntp457
Rp458
(dp459
g13
I01
sg14
F0.04919330857687848
sg15
g456
sbs(I-17
I451
tp460
g0
(g9
g2
Ntp461
Rp462
(dp463
g13
I01
sg14
F-0.10904550943974223
sg15
g460
sbs(I-12
I449
tp464
g0
(g9
g2
Ntp465
Rp466
(dp467
g13
I01
sg14
F1.0
sg15
g464
sbs(I-12
I446
tp468
g0
(g9
g2
Ntp469
Rp470
(dp471
g13
I01
sg14
F-0.7541955211839905
sg15
g468
sbs(I-18
I454
tp472
g0
(g9
g2
Ntp473
Rp474
(dp475
g13
I01
sg14
F0.626538499782578
sg15
g472
sbs(I-2
I451
tp476
g0
(g9
g2
Ntp477
Rp478
(dp479
g13
I01
sg14
F-1.0
sg15
g476
sbs(I-13
I450
tp480
g0
(g9
g2
Ntp481
Rp482
(dp483
g13
I01
sg14
F1.0
sg15
g480
sbs(I-11
I447
tp484
g0
(g9
g2
Ntp485
Rp486
(dp487
g13
I01
sg14
F0.026700062046286333
sg15
g484
sbs(I-3
I450
tp488
g0
(g9
g2
Ntp489
Rp490
(dp491
g13
I01
sg14
F1.0
sg15
g488
sbs(I448
I4
tp492
g0
(g9
g2
Ntp493
Rp494
(dp495
g13
I01
sg14
F-0.5481505744542352
sg15
g492
sbs(I449
I1
tp496
g0
(g9
g2
Ntp497
Rp498
(dp499
g13
I01
sg14
F-0.6039688566228284
sg15
g496
sbs(I-15
I452
tp500
g0
(g9
g2
Ntp501
Rp502
(dp503
g13
I01
sg14
F0.25159745120688976
sg15
g500
sbs(I-5
I448
tp504
g0
(g9
g2
Ntp505
Rp506
(dp507
g13
I01
sg14
F-0.28084097715012823
sg15
g504
sbs(I-19
I449
tp508
g0
(g9
g2
Ntp509
Rp510
(dp511
g13
I01
sg14
F1.0
sg15
g508
sbs(I451
I2
tp512
g0
(g9
g2
Ntp513
Rp514
(dp515
g13
I01
sg14
F0.6801263073302236
sg15
g512
sbs(I-9
I453
tp516
g0
(g9
g2
Ntp517
Rp518
(dp519
g13
I01
sg14
F-0.8215350772086867
sg15
g516
sbs(I-16
I453
tp520
g0
(g9
g2
Ntp521
Rp522
(dp523
g13
I01
sg14
F0.03801271724960675
sg15
g520
sbs(I-2
I453
tp524
g0
(g9
g2
Ntp525
Rp526
(dp527
g13
I01
sg14
F0.5089138598443465
sg15
g524
sbs(I-6
I449
tp528
g0
(g9
g2
Ntp529
Rp530
(dp531
g13
I00
sg14
F1.0
sg15
g528
sbs(I-20
I448
tp532
g0
(g9
g2
Ntp533
Rp534
(dp535
g13
I01
sg14
F-0.6445862811204282
sg15
g532
sbs(I-4
I445
tp536
g0
(g9
g2
Ntp537
Rp538
(dp539
g13
I01
sg14
F-0.5332434283211681
sg15
g536
sbs(I445
I3
tp540
g0
(g9
g2
Ntp541
Rp542
(dp543
g13
I01
sg14
F0.6341389492824259
sg15
g540
sbs(I-7
I454
tp544
g0
(g9
g2
Ntp545
Rp546
(dp547
g13
I01
sg14
F-0.5263219878946708
sg15
g544
sbs(I454
I0
tp548
g0
(g9
g2
Ntp549
Rp550
(dp551
g13
I01
sg14
F1.0
sg15
g548
sbs(I-11
I451
tp552
g0
(g9
g2
Ntp553
Rp554
(dp555
g13
I01
sg14
F0.4327068372455794
sg15
g552
sbs(I-8
I449
tp556
g0
(g9
g2
Ntp557
Rp558
(dp559
g13
I01
sg14
F0.649291556397086
sg15
g556
sbs(I-17
I454
tp560
g0
(g9
g2
Ntp561
Rp562
(dp563
g13
I01
sg14
F-0.9843425250158045
sg15
g560
sbs(I-12
I454
tp564
g0
(g9
g2
Ntp565
Rp566
(dp567
g13
I01
sg14
F0.7948068617339679
sg15
g564
sbs(I-5
I447
tp568
g0
(g9
g2
Ntp569
Rp570
(dp571
g13
I01
sg14
F-0.4105404732173772
sg15
g568
sbs(I-18
I451
tp572
g0
(g9
g2
Ntp573
Rp574
(dp575
g13
I01
sg14
F-0.5028912472982031
sg15
g572
sbs(I-13
I446
tp576
g0
(g9
g2
Ntp577
Rp578
(dp579
g13
I01
sg14
F0.6991357372878033
sg15
g576
sbs(I-14
I446
tp580
g0
(g9
g2
Ntp581
Rp582
(dp583
g13
I01
sg14
F-1.0
sg15
g580
sbs(I-3
I453
tp584
g0
(g9
g2
Ntp585
Rp586
(dp587
g13
I01
sg14
F-0.9772656451032997
sg15
g584
sbs(I448
I1
tp588
g0
(g9
g2
Ntp589
Rp590
(dp591
g13
I01
sg14
F0.08200117010514774
sg15
g588
sbs(I-14
I448
tp592
g0
(g9
g2
Ntp593
Rp594
(dp595
g13
I01
sg14
F1.0
sg15
g592
sbs(I-4
I452
tp596
g0
(g9
g2
Ntp597
Rp598
(dp599
g13
I01
sg14
F-0.9674552836333964
sg15
g596
sbs(I-18
I447
tp600
g0
(g9
g2
Ntp601
Rp602
(dp603
g13
I01
sg14
F0.46125637230235916
sg15
g600
sbs(I446
I3
tp604
g0
(g9
g2
Ntp605
Rp606
(dp607
g13
I01
sg14
F0.7521787160408899
sg15
g604
sbs(I-19
I452
tp608
g0
(g9
g2
Ntp609
Rp610
(dp611
g13
I01
sg14
F-0.8908414521032381
sg15
g608
sbs(I451
I1
tp612
g0
(g9
g2
Ntp613
Rp614
(dp615
g13
I01
sg14
F0.1381081779059736
sg15
g612
sbs(I-2
I450
tp616
g0
(g9
g2
Ntp617
Rp618
(dp619
g13
I01
sg14
F-1.0
sg15
g616
sbs(I-16
I450
tp620
g0
(g9
g2
Ntp621
Rp622
(dp623
g13
I01
sg14
F-0.32809217325194917
sg15
g620
sbs(I-6
I450
tp624
g0
(g9
g2
Ntp625
Rp626
(dp627
g13
I01
sg14
F-0.3720537843512425
sg15
g624
sbs(I-20
I453
tp628
g0
(g9
g2
Ntp629
Rp630
(dp631
g13
I01
sg14
F-0.6976290683708826
sg15
g628
sbs(I-12
I452
tp632
g0
(g9
g2
Ntp633
Rp634
(dp635
g13
I01
sg14
F-1.0
sg15
g632
sbs(I-7
I449
tp636
g0
(g9
g2
Ntp637
Rp638
(dp639
g13
I01
sg14
F0.24877373465739577
sg15
g636
sbs(I-11
I454
tp640
g0
(g9
g2
Ntp641
Rp642
(dp643
g13
I01
sg14
F1.0
sg15
g640
sbs(I-2
I452
tp644
g0
(g9
g2
Ntp645
Rp646
(dp647
g13
I01
sg14
F1.0
sg15
g644
sbs(I-8
I448
tp648
g0
(g9
g2
Ntp649
Rp650
(dp651
g13
I01
sg14
F1.0
sg15
g648
sbs(I-7
I445
tp652
g0
(g9
g2
Ntp653
Rp654
(dp655
g13
I01
sg14
F0.7905914868393793
sg15
g652
sbs(I-9
I445
tp656
g0
(g9
g2
Ntp657
Rp658
(dp659
g13
I01
sg14
F-1.0
sg15
g656
sbs(I-1
I445
tp660
g0
(g9
g2
Ntp661
Rp662
(dp663
g13
I01
sg14
F1.0
sg15
g660
sbs(I450
I1
tp664
g0
(g9
g2
Ntp665
Rp666
(dp667
g13
I01
sg14
F0.6944778826500684
sg15
g664
sbs(I-16
I446
tp668
g0
(g9
g2
Ntp669
Rp670
(dp671
g13
I01
sg14
F1.0
sg15
g668
sbs(I-14
I453
tp672
g0
(g9
g2
Ntp673
Rp674
(dp675
g13
I01
sg14
F-1.0
sg15
g672
sbs(I-2
I445
tp676
g0
(g9
g2
Ntp677
Rp678
(dp679
g13
I01
sg14
F0.4869839333962546
sg15
g676
sbs(I-15
I447
tp680
g0
(g9
g2
Ntp681
Rp682
(dp683
g13
I01
sg14
F-0.5909918016464515
sg15
g680
sbs(I-15
I450
tp684
g0
(g9
g2
Ntp685
Rp686
(dp687
g13
I01
sg14
F-0.3081731247093822
sg15
g684
sbs(I-1
I452
tp688
g0
(g9
g2
Ntp689
Rp690
(dp691
g13
I01
sg14
F-0.971123687505293
sg15
g688
sbs(I453
I1
tp692
g0
(g9
g2
Ntp693
Rp694
(dp695
g13
I01
sg14
F0.7611115943024847
sg15
g692
sbs(I-10
I447
tp696
g0
(g9
g2
Ntp697
Rp698
(dp699
g13
I01
sg14
F0.5858064068920128
sg15
g696
sbs(I445
I4
tp700
g0
(g9
g2
Ntp701
Rp702
(dp703
g13
I01
sg14
F0.8447049076373659
sg15
g700
sbs(I-9
I446
tp704
g0
(g9
g2
Ntp705
Rp706
(dp707
g13
I01
sg14
F0.042655450424095936
sg15
g704
sbs(I-17
I453
tp708
g0
(g9
g2
Ntp709
Rp710
(dp711
g13
I01
sg14
F-1.0
sg15
g708
sbs(I-8
I445
tp712
g0
(g9
g2
Ntp713
Rp714
(dp715
g13
I01
sg14
F1.0
sg15
g712
sbs(I-13
I454
tp716
g0
(g9
g2
Ntp717
Rp718
(dp719
g13
I01
sg14
F-0.5382585937616169
sg15
g716
sbs(I-2
I448
tp720
g0
(g9
g2
Ntp721
Rp722
(dp723
g13
I01
sg14
F-0.3708902032483619
sg15
g720
sbs(I-13
I445
tp724
g0
(g9
g2
Ntp725
Rp726
(dp727
g13
I01
sg14
F-0.8051050901237163
sg15
g724
sbs(I-4
I451
tp728
g0
(g9
g2
Ntp729
Rp730
(dp731
g13
I01
sg14
F-1.0
sg15
g728
sbs(I-14
I454
tp732
g0
(g9
g2
Ntp733
Rp734
(dp735
g13
I01
sg14
F-1.0
sg15
g732
sbs(I445
I2
tp736
g0
(g9
g2
Ntp737
Rp738
(dp739
g13
I01
sg14
F-1.0
sg15
g736
sbs(I-19
I445
tp740
g0
(g9
g2
Ntp741
Rp742
(dp743
g13
I01
sg14
F-1.0
sg15
g740
sbs(I-9
I449
tp744
g0
(g9
g2
Ntp745
Rp746
(dp747
g13
I01
sg14
F0.005101329723201209
sg15
g744
sbs(I447
I3
tp748
g0
(g9
g2
Ntp749
Rp750
(dp751
g13
I01
sg14
F-1.0
sg15
g748
sbs(I452
I1
tp752
g0
(g9
g2
Ntp753
Rp754
(dp755
g13
I01
sg14
F-0.05073634901902707
sg15
g752
sbs(I-10
I448
tp756
g0
(g9
g2
Ntp757
Rp758
(dp759
g13
I01
sg14
F0.55533659466885
sg15
g756
sbs(I454
I4
tp760
g0
(g9
g2
Ntp761
Rp762
(dp763
g13
I01
sg14
F0.4700050773904308
sg15
g760
sbs(I453
I4
tp764
g0
(g9
g2
Ntp765
Rp766
(dp767
g13
I01
sg14
F0.2090122970769549
sg15
g764
sbs(I-17
I450
tp768
g0
(g9
g2
Ntp769
Rp770
(dp771
g13
I01
sg14
F1.0
sg15
g768
sbs(I-12
I450
tp772
g0
(g9
g2
Ntp773
Rp774
(dp775
g13
I01
sg14
F1.0
sg15
g772
sbs(I-12
I447
tp776
g0
(g9
g2
Ntp777
Rp778
(dp779
g13
I01
sg14
F-1.0
sg15
g776
sbs(I-1
I450
tp780
g0
(g9
g2
Ntp781
Rp782
(dp783
g13
I01
sg14
F-0.8054095182050626
sg15
g780
sbs(I-17
I447
tp784
g0
(g9
g2
Ntp785
Rp786
(dp787
g13
I01
sg14
F-0.5757675402704246
sg15
g784
sbs(I-13
I453
tp788
g0
(g9
g2
Ntp789
Rp790
(dp791
g13
I01
sg14
F0.6347371423652187
sg15
g788
sbs(I-11
I446
tp792
g0
(g9
g2
Ntp793
Rp794
(dp795
g13
I01
sg14
F0.8144345102464513
sg15
g792
sbs(I-3
I449
tp796
g0
(g9
g2
Ntp797
Rp798
(dp799
g13
I01
sg14
F1.0
sg15
g796
sbs(I-4
I448
tp800
g0
(g9
g2
Ntp801
Rp802
(dp803
g13
I01
sg14
F-0.14539231343558162
sg15
g800
sbs(I-20
I445
tp804
g0
(g9
g2
Ntp805
Rp806
(dp807
g13
I01
sg14
F0.5327755541130523
sg15
g804
sbs(I449
I0
tp808
g0
(g9
g2
Ntp809
Rp810
(dp811
g13
I01
sg14
F0.3369702822852502
sg15
g808
sbs(I-8
I454
tp812
g0
(g9
g2
Ntp813
Rp814
(dp815
g13
I01
sg14
F-1.0
sg15
g812
sbs(I-5
I451
tp816
g0
(g9
g2
Ntp817
Rp818
(dp819
g13
I01
sg14
F-0.5105125024940748
sg15
g816
sbs(I-19
I448
tp820
g0
(g9
g2
Ntp821
Rp822
(dp823
g13
I01
sg14
F-0.45876626796328746
sg15
g820
sbs(I-9
I452
tp824
g0
(g9
g2
Ntp825
Rp826
(dp827
g13
I01
sg14
F-0.17973318064749044
sg15
g824
sbs(I-16
I454
tp828
g0
(g9
g2
Ntp829
Rp830
(dp831
g13
I01
sg14
F1.0
sg15
g828
sbs(I-2
I447
tp832
g0
(g9
g2
Ntp833
Rp834
(dp835
g13
I01
sg14
F-1.0
sg15
g832
sbs(I-1
I446
tp836
g0
(g9
g2
Ntp837
Rp838
(dp839
g13
I01
sg14
F0.7109505360385767
sg15
g836
sbs(I-1
I448
tp840
g0
(g9
g2
Ntp841
Rp842
(dp843
g13
I01
sg14
F-1.0
sg15
g840
sbs(I-4
I446
tp844
g0
(g9
g2
Ntp845
Rp846
(dp847
g13
I01
sg14
F-0.6114191503423138
sg15
g844
sbs(I-7
I453
tp848
g0
(g9
g2
Ntp849
Rp850
(dp851
g13
I01
sg14
F1.0
sg15
g848
sbs(I-6
I445
tp852
g0
(g9
g2
Ntp853
Rp854
(dp855
g13
I01
sg14
F-0.21703552659082695
sg15
g852
sbs(I-3
I447
tp856
g0
(g9
g2
Ntp857
Rp858
(dp859
g13
I01
sg14
F-0.47805101502316893
sg15
g856
sbs(I-11
I450
tp860
g0
(g9
g2
Ntp861
Rp862
(dp863
g13
I01
sg14
F0.5573015723887986
sg15
g860
sbs(I-14
I445
tp864
g0
(g9
g2
Ntp865
Rp866
(dp867
g13
I01
sg14
F-0.7447971380318242
sg15
g864
sbs(I-17
I449
tp868
g0
(g9
g2
Ntp869
Rp870
(dp871
g13
I01
sg14
F0.15003007092452633
sg15
g868
sbs(I-18
I448
tp872
g0
(g9
g2
Ntp873
Rp874
(dp875
g13
I01
sg14
F0.8170451818550003
sg15
g872
sbs(I-14
I447
tp876
g0
(g9
g2
Ntp877
Rp878
(dp879
g13
I01
sg14
F-1.0
sg15
g876
sbs(I-3
I452
tp880
g0
(g9
g2
Ntp881
Rp882
(dp883
g13
I01
sg14
F1.0
sg15
g880
sbs(I448
I2
tp884
g0
(g9
g2
Ntp885
Rp886
(dp887
g13
I01
sg14
F1.0
sg15
g884
sbs(I-14
I449
tp888
g0
(g9
g2
Ntp889
Rp890
(dp891
g13
I01
sg14
F0.0736871748206954
sg15
g888
sbs(I-4
I453
tp892
g0
(g9
g2
Ntp893
Rp894
(dp895
g13
I01
sg14
F-0.8570767094952727
sg15
g892
sbs(I449
I3
tp896
g0
(g9
g2
Ntp897
Rp898
(dp899
g13
I01
sg14
F-0.4918885609972832
sg15
g896
sbs(I-15
I454
tp900
g0
(g9
g2
Ntp901
Rp902
(dp903
g13
I01
sg14
F-0.9032760901327227
sg15
g900
sbs(I446
I0
tp904
g0
(g9
g2
Ntp905
Rp906
(dp907
g13
I01
sg14
F0.6261608615505927
sg15
g904
sbs(I-19
I451
tp908
g0
(g9
g2
Ntp909
Rp910
(dp911
g13
I01
sg14
F0.6646760876820719
sg15
g908
sbs(I451
I0
tp912
g0
(g9
g2
Ntp913
Rp914
(dp915
g13
I01
sg14
F-0.5223552344509833
sg15
g912
sbs(I-17
I448
tp916
g0
(g9
g2
Ntp917
Rp918
(dp919
g13
I01
sg14
F0.982648881555327
sg15
g916
sbs(I-16
I451
tp920
g0
(g9
g2
Ntp921
Rp922
(dp923
g13
I01
sg14
F1.0
sg15
g920
sbs(I-6
I451
tp924
g0
(g9
g2
Ntp925
Rp926
(dp927
g13
I01
sg14
F0.7220556180881301
sg15
g924
sbs(I-20
I454
tp928
g0
(g9
g2
Ntp929
Rp930
(dp931
g13
I01
sg14
F0.3438164376375652
sg15
g928
sbs(I-7
I448
tp932
g0
(g9
g2
Ntp933
Rp934
(dp935
g13
I01
sg14
F0.7133588361195082
sg15
g932
sbs(I454
I2
tp936
g0
(g9
g2
Ntp937
Rp938
(dp939
g13
I01
sg14
F-0.22589336711514832
sg15
g936
sbs(I-11
I453
tp940
g0
(g9
g2
Ntp941
Rp942
(dp943
g13
I01
sg14
F0.2233866096537126
sg15
g940
sbs(I-1
I453
tp944
g0
(g9
g2
Ntp945
Rp946
(dp947
g13
I01
sg14
F1.0
sg15
g944
sbs(I-17
I452
tp948
g0
(g9
g2
Ntp949
Rp950
(dp951
g13
I01
sg14
F-1.0
sg15
g948
sbs(I-20
I449
tp952
g0
(g9
g2
Ntp953
Rp954
(dp955
g13
I00
sg14
F-1.0
sg15
g952
sbs(I450
I3
tp956
g0
(g9
g2
Ntp957
Rp958
(dp959
g13
I01
sg14
F-1.0
sg15
g956
sbs(I-16
I447
tp960
g0
(g9
g2
Ntp961
Rp962
(dp963
g13
I01
sg14
F-0.9118523453285965
sg15
g960
sbs(I-14
I450
tp964
g0
(g9
g2
Ntp965
Rp966
(dp967
g13
I01
sg14
F0.13295536161334837
sg15
g964
sbs(I-15
I446
tp968
g0
(g9
g2
Ntp969
Rp970
(dp971
g13
I01
sg14
F0.5179432129334898
sg15
g968
sbs(I-15
I449
tp972
g0
(g9
g2
Ntp973
Rp974
(dp975
g13
I01
sg14
F0.5393055399623717
sg15
g972
sbs(I-19
I454
tp976
g0
(g9
g2
Ntp977
Rp978
(dp979
g13
I01
sg14
F-0.18718719167801992
sg15
g976
sbs(I-10
I452
tp980
g0
(g9
g2
Ntp981
Rp982
(dp983
g13
I01
sg14
F-0.6003940960032692
sg15
g980
sbs(I-16
I448
tp984
g0
(g9
g2
Ntp985
Rp986
(dp987
g13
I01
sg14
F-1.0
sg15
g984
sbs(I-6
I452
tp988
g0
(g9
g2
Ntp989
Rp990
(dp991
g13
I01
sg14
F-0.8687895389054707
sg15
g988
sbs(I453
I0
tp992
g0
(g9
g2
Ntp993
Rp994
(dp995
g13
I01
sg14
F0.8830267283673736
sg15
g992
sbs(I-7
I451
tp996
g0
(g9
g2
Ntp997
Rp998
(dp999
g13
I01
sg14
F-0.08747369102314878
sg15
g996
sbs(I454
I1
tp1000
g0
(g9
g2
Ntp1001
Rp1002
(dp1003
g13
I01
sg14
F-0.7501367192667837
sg15
g1000
sbs(I450
I2
tp1004
g0
(g9
g2
Ntp1005
Rp1006
(dp1007
g13
I01
sg14
F-0.33142500691977916
sg15
g1004
sbs(I-2
I454
tp1008
g0
(g9
g2
Ntp1009
Rp1010
(dp1011
g13
I01
sg14
F0.12076102262101282
sg15
g1008
sbssS'nodes'
p1012
(dp1013
I0
g0
(cneat.genes
DefaultNodeGene
p1014
g2
Ntp1015
Rp1016
(dp1017
S'activation'
p1018
S'sigmoid'
p1019
sS'bias'
p1020
F-0.5489189091736315
sS'response'
p1021
F1.0
sg15
I0
sS'aggregation'
p1022
S'product'
p1023
sbsI1
g0
(g1014
g2
Ntp1024
Rp1025
(dp1026
g1018
g1019
sg1020
F-0.05397142914199937
sg1021
F1.0
sg15
I1
sg1022
g1023
sbsI2
g0
(g1014
g2
Ntp1027
Rp1028
(dp1029
g1018
g1019
sg1020
F1.0
sg1021
F1.0
sg15
I2
sg1022
g1023
sbsI3
g0
(g1014
g2
Ntp1030
Rp1031
(dp1032
g1018
g1019
sg1020
F-1.0
sg1021
F1.0
sg15
I3
sg1022
g1023
sbsI4
g0
(g1014
g2
Ntp1033
Rp1034
(dp1035
g1018
g1019
sg1020
F-0.28523224931292984
sg1021
F1.0
sg15
I4
sg1022
g1023
sbsI453
g0
(g1014
g2
Ntp1036
Rp1037
(dp1038
g1018
g1019
sg1020
F0.6382971163356312
sg1021
F1.0
sg15
I453
sg1022
g1023
sbsI454
g0
(g1014
g2
Ntp1039
Rp1040
(dp1041
g1018
g1019
sg1020
F-1.0
sg1021
F1.0
sg15
I454
sg1022
g1023
sbsI449
g0
(g1014
g2
Ntp1042
Rp1043
(dp1044
g1018
g1019
sg1020
F-1.0
sg1021
F1.0
sg15
I449
sg1022
g1023
sbsI450
g0
(g1014
g2
Ntp1045
Rp1046
(dp1047
g1018
g1019
sg1020
F0.7080084432731906
sg1021
F1.0
sg15
I450
sg1022
g1023
sbsI451
g0
(g1014
g2
Ntp1048
Rp1049
(dp1050
g1018
g1019
sg1020
F0.7290571690939444
sg1021
F1.0
sg15
I451
sg1022
g1023
sbsI448
g0
(g1014
g2
Ntp1051
Rp1052
(dp1053
g1018
g1019
sg1020
F0.1991659030549721
sg1021
F1.0
sg15
I448
sg1022
g1023
sbsI452
g0
(g1014
g2
Ntp1054
Rp1055
(dp1056
g1018
g1019
sg1020
F0.15833266306082705
sg1021
F1.0
sg15
I452
sg1022
g1023
sbsI445
g0
(g1014
g2
Ntp1057
Rp1058
(dp1059
g1018
g1019
sg1020
F1.0
sg1021
F1.0
sg15
I445
sg1022
g1023
sbsI446
g0
(g1014
g2
Ntp1060
Rp1061
(dp1062
g1018
g1019
sg1020
F1.0
sg1021
F1.0
sg15
I446
sg1022
g1023
sbsI447
g0
(g1014
g2
Ntp1063
Rp1064
(dp1065
g1018
g1019
sg1020
F0.9202912188478628
sg1021
F1.0
sg15
I447
sg1022
g1023
sbssg15
I264
sS'fitness'
p1066
cnumpy.core.multiarray
scalar
p1067
(cnumpy
dtype
p1068
(S'f8'
p1069
I0
I1
tp1070
Rp1071
(I3
S'<'
p1072
NNNI-1
I-1
I0
tp1073
bS't\x8c\xcf\x908\x84@@'
p1074
tp1075
Rp1076
sb.