ccopy_reg
_reconstructor
p0
(cneat.genome
DefaultGenome
p1
c__builtin__
object
p2
Ntp3
Rp4
(dp5
S'connections'
p6
(dp7
(I-18
I459
tp8
g0
(cneat.genes
DefaultConnectionGene
p9
g2
Ntp10
Rp11
(dp12
S'enabled'
p13
I01
sS'weight'
p14
F0.6005119069597332
sS'key'
p15
g8
sbs(I-13
I457
tp16
g0
(g9
g2
Ntp17
Rp18
(dp19
g13
I01
sg14
F0.2238718359152539
sg15
g16
sbs(I461
I2
tp20
g0
(g9
g2
Ntp21
Rp22
(dp23
g13
I01
sg14
F-0.671299055826491
sg15
g20
sbs(I-16
I463
tp24
g0
(g9
g2
Ntp25
Rp26
(dp27
g13
I01
sg14
F-1.0
sg15
g24
sbs(I463
I3
tp28
g0
(g9
g2
Ntp29
Rp30
(dp31
g13
I01
sg14
F0.8398852199341337
sg15
g28
sbs(I-7
I463
tp32
g0
(g9
g2
Ntp33
Rp34
(dp35
g13
I01
sg14
F-0.45533905455716717
sg15
g32
sbs(I-3
I458
tp36
g0
(g9
g2
Ntp37
Rp38
(dp39
g13
I01
sg14
F-1.0
sg15
g36
sbs(I-2
I456
tp40
g0
(g9
g2
Ntp41
Rp42
(dp43
g13
I01
sg14
F-1.0
sg15
g40
sbs(I-14
I455
tp44
g0
(g9
g2
Ntp45
Rp46
(dp47
g13
I01
sg14
F0.5637591758692408
sg15
g44
sbs(I-5
I455
tp48
g0
(g9
g2
Ntp49
Rp50
(dp51
g13
I01
sg14
F0.158000141665059
sg15
g48
sbs(I-4
I463
tp52
g0
(g9
g2
Ntp53
Rp54
(dp55
g13
I01
sg14
F1.0
sg15
g52
sbs(I-15
I460
tp56
g0
(g9
g2
Ntp57
Rp58
(dp59
g13
I01
sg14
F-1.0
sg15
g56
sbs(I-6
I458
tp60
g0
(g9
g2
Ntp61
Rp62
(dp63
g13
I01
sg14
F1.0
sg15
g60
sbs(I-5
I456
tp64
g0
(g9
g2
Ntp65
Rp66
(dp67
g13
I01
sg14
F-1.0
sg15
g64
sbs(I-19
I457
tp68
g0
(g9
g2
Ntp69
Rp70
(dp71
g13
I01
sg14
F-1.0
sg15
g68
sbs(I-9
I461
tp72
g0
(g9
g2
Ntp73
Rp74
(dp75
g13
I01
sg14
F1.0
sg15
g72
sbs(I-16
I461
tp76
g0
(g9
g2
Ntp77
Rp78
(dp79
g13
I01
sg14
F-1.0
sg15
g76
sbs(I-7
I457
tp80
g0
(g9
g2
Ntp81
Rp82
(dp83
g13
I01
sg14
F0.36301206561146093
sg15
g80
sbs(I-12
I464
tp84
g0
(g9
g2
Ntp85
Rp86
(dp87
g13
I01
sg14
F-0.2512888640314689
sg15
g84
sbs(I-11
I462
tp88
g0
(g9
g2
Ntp89
Rp90
(dp91
g13
I01
sg14
F-0.33402043783263846
sg15
g88
sbs(I-1
I460
tp92
g0
(g9
g2
Ntp93
Rp94
(dp95
g13
I01
sg14
F-0.9183135894694168
sg15
g92
sbs(I-8
I456
tp96
g0
(g9
g2
Ntp97
Rp98
(dp99
g13
I01
sg14
F-0.32962508435038307
sg15
g96
sbs(I455
I0
tp100
g0
(g9
g2
Ntp101
Rp102
(dp103
g13
I01
sg14
F-0.4220687215358739
sg15
g100
sbs(I460
I0
tp104
g0
(g9
g2
Ntp105
Rp106
(dp107
g13
I00
sg14
F-1.0
sg15
g104
sbs(I-8
I458
tp108
g0
(g9
g2
Ntp109
Rp110
(dp111
g13
I01
sg14
F-1.0
sg15
g108
sbs(I-3
I461
tp112
g0
(g9
g2
Ntp113
Rp114
(dp115
g13
I01
sg14
F-0.5657549237367512
sg15
g112
sbs(I-6
I464
tp116
g0
(g9
g2
Ntp117
Rp118
(dp119
g13
I01
sg14
F1.0
sg15
g116
sbs(I-4
I460
tp120
g0
(g9
g2
Ntp121
Rp122
(dp123
g13
I01
sg14
F-0.4574337675151101
sg15
g120
sbs(I-9
I455
tp124
g0
(g9
g2
Ntp125
Rp126
(dp127
g13
I01
sg14
F0.2309799861977343
sg15
g124
sbs(I-16
I455
tp128
g0
(g9
g2
Ntp129
Rp130
(dp131
g13
I01
sg14
F-0.6804256531893536
sg15
g128
sbs(I-15
I463
tp132
g0
(g9
g2
Ntp133
Rp134
(dp135
g13
I01
sg14
F-1.0
sg15
g132
sbs(I-6
I463
tp136
g0
(g9
g2
Ntp137
Rp138
(dp139
g13
I01
sg14
F0.8220855050460458
sg15
g136
sbs(I-19
I460
tp140
g0
(g9
g2
Ntp141
Rp142
(dp143
g13
I01
sg14
F-0.809086854308176
sg15
g140
sbs(I-8
I464
tp144
g0
(g9
g2
Ntp145
Rp146
(dp147
g13
I01
sg14
F-0.037804488025684035
sg15
g144
sbs(I-16
I458
tp148
g0
(g9
g2
Ntp149
Rp150
(dp151
g13
I01
sg14
F0.02926192244833592
sg15
g148
sbs(I-20
I461
tp152
g0
(g9
g2
Ntp153
Rp154
(dp155
g13
I01
sg14
F-0.5236147051285164
sg15
g152
sbs(I-2
I457
tp156
g0
(g9
g2
Ntp157
Rp158
(dp159
g13
I01
sg14
F-1.0
sg15
g156
sbs(I464
I2
tp160
g0
(g9
g2
Ntp161
Rp162
(dp163
g13
I01
sg14
F0.8094081115472982
sg15
g160
sbs(I-13
I462
tp164
g0
(g9
g2
Ntp165
Rp166
(dp167
g13
I01
sg14
F0.32975723489951136
sg15
g164
sbs(I462
I0
tp168
g0
(g9
g2
Ntp169
Rp170
(dp171
g13
I01
sg14
F-0.238271603928922
sg15
g168
sbs(I-7
I456
tp172
g0
(g9
g2
Ntp173
Rp174
(dp175
g13
I01
sg14
F-0.8845401724188053
sg15
g172
sbs(I-2
I459
tp176
g0
(g9
g2
Ntp177
Rp178
(dp179
g13
I01
sg14
F0.1678673465498185
sg15
g176
sbs(I-14
I461
tp180
g0
(g9
g2
Ntp181
Rp182
(dp183
g13
I01
sg14
F-1.0
sg15
g180
sbs(I-9
I458
tp184
g0
(g9
g2
Ntp185
Rp186
(dp187
g13
I00
sg14
F-0.5122480353008803
sg15
g184
sbs(I-15
I458
tp188
g0
(g9
g2
Ntp189
Rp190
(dp191
g13
I01
sg14
F-0.59908653158303
sg15
g188
sbs(I-20
I455
tp192
g0
(g9
g2
Ntp193
Rp194
(dp195
g13
I01
sg14
F0.5161147196974007
sg15
g192
sbs(I-19
I463
tp196
g0
(g9
g2
Ntp197
Rp198
(dp199
g13
I01
sg14
F-1.0
sg15
g196
sbs(I-10
I463
tp200
g0
(g9
g2
Ntp201
Rp202
(dp203
g13
I01
sg14
F0.014119961521596142
sg15
g200
sbs(I-8
I463
tp204
g0
(g9
g2
Ntp205
Rp206
(dp207
g13
I01
sg14
F0.1615135350610598
sg15
g204
sbs(I-7
I455
tp208
g0
(g9
g2
Ntp209
Rp210
(dp211
g13
I01
sg14
F0.7871100273601165
sg15
g208
sbs(I-12
I458
tp212
g0
(g9
g2
Ntp213
Rp214
(dp215
g13
I01
sg14
F0.5206459620218311
sg15
g212
sbs(I-2
I458
tp216
g0
(g9
g2
Ntp217
Rp218
(dp219
g13
I01
sg14
F-0.3152562790335672
sg15
g216
sbs(I-18
I463
tp220
g0
(g9
g2
Ntp221
Rp222
(dp223
g13
I00
sg14
F-1.0
sg15
g220
sbs(I-2
I461
tp224
g0
(g9
g2
Ntp225
Rp226
(dp227
g13
I01
sg14
F0.9721830620858763
sg15
g224
sbs(I-13
I461
tp228
g0
(g9
g2
Ntp229
Rp230
(dp231
g13
I01
sg14
F-0.6506134249818223
sg15
g228
sbs(I-8
I457
tp232
g0
(g9
g2
Ntp233
Rp234
(dp235
g13
I01
sg14
F-0.2804360103764665
sg15
g232
sbs(I-9
I459
tp236
g0
(g9
g2
Ntp237
Rp238
(dp239
g13
I01
sg14
F-1.0
sg15
g236
sbs(I-15
I456
tp240
g0
(g9
g2
Ntp241
Rp242
(dp243
g13
I01
sg14
F0.41653437057723397
sg15
g240
sbs(I-4
I459
tp244
g0
(g9
g2
Ntp245
Rp246
(dp247
g13
I01
sg14
F0.2765882933867254
sg15
g244
sbs(I-14
I462
tp248
g0
(g9
g2
Ntp249
Rp250
(dp251
g13
I01
sg14
F-0.0441887553573127
sg15
g248
sbs(I-5
I460
tp252
g0
(g9
g2
Ntp253
Rp254
(dp255
g13
I01
sg14
F-1.0
sg15
g252
sbs(I-9
I457
tp256
g0
(g9
g2
Ntp257
Rp258
(dp259
g13
I00
sg14
F-0.7621576551517255
sg15
g256
sbs(I-7
I461
tp260
g0
(g9
g2
Ntp261
Rp262
(dp263
g13
I01
sg14
F0.3399601361748095
sg15
g260
sbs(I-11
I458
tp264
g0
(g9
g2
Ntp265
Rp266
(dp267
g13
I01
sg14
F-0.3587270799756396
sg15
g264
sbs(I-10
I456
tp268
g0
(g9
g2
Ntp269
Rp270
(dp271
g13
I01
sg14
F0.2852166681052788
sg15
g268
sbs(I458
I1
tp272
g0
(g9
g2
Ntp273
Rp274
(dp275
g13
I01
sg14
F-0.3068831370084931
sg15
g272
sbs(I-8
I460
tp276
g0
(g9
g2
Ntp277
Rp278
(dp279
g13
I01
sg14
F0.911225941036591
sg15
g276
sbs(I-1
I456
tp280
g0
(g9
g2
Ntp281
Rp282
(dp283
g13
I01
sg14
F-0.45966120420156087
sg15
g280
sbs(I-12
I463
tp284
g0
(g9
g2
Ntp285
Rp286
(dp287
g13
I01
sg14
F-0.1962707237681014
sg15
g284
sbs(I-11
I455
tp288
g0
(g9
g2
Ntp289
Rp290
(dp291
g13
I01
sg14
F0.2697789798458671
sg15
g288
sbs(I-2
I455
tp292
g0
(g9
g2
Ntp293
Rp294
(dp295
g13
I01
sg14
F-0.15765031975008909
sg15
g292
sbs(I-18
I456
tp296
g0
(g9
g2
Ntp297
Rp298
(dp299
g13
I01
sg14
F0.7679185820348877
sg15
g296
sbs(I-13
I456
tp300
g0
(g9
g2
Ntp301
Rp302
(dp303
g13
I01
sg14
F-1.0
sg15
g300
sbs(I461
I1
tp304
g0
(g9
g2
Ntp305
Rp306
(dp307
g13
I01
sg14
F-0.5008649417880322
sg15
g304
sbs(I463
I2
tp308
g0
(g9
g2
Ntp309
Rp310
(dp311
g13
I01
sg14
F-0.5251934615546872
sg15
g308
sbs(I-3
I457
tp312
g0
(g9
g2
Ntp313
Rp314
(dp315
g13
I01
sg14
F-0.025627161320658075
sg15
g312
sbs(I-4
I456
tp316
g0
(g9
g2
Ntp317
Rp318
(dp319
g13
I01
sg14
F0.9059372064186055
sg15
g316
sbs(I-1
I458
tp320
g0
(g9
g2
Ntp321
Rp322
(dp323
g13
I01
sg14
F-0.3232953665032567
sg15
g320
sbs(I-6
I459
tp324
g0
(g9
g2
Ntp325
Rp326
(dp327
g13
I01
sg14
F-0.37372622173393827
sg15
g324
sbs(I-5
I459
tp328
g0
(g9
g2
Ntp329
Rp330
(dp331
g13
I01
sg14
F0.6873547188940782
sg15
g328
sbs(I-19
I456
tp332
g0
(g9
g2
Ntp333
Rp334
(dp335
g13
I01
sg14
F-1.0
sg15
g332
sbs(I-13
I455
tp336
g0
(g9
g2
Ntp337
Rp338
(dp339
g13
I00
sg14
F1.0
sg15
g336
sbs(I-9
I460
tp340
g0
(g9
g2
Ntp341
Rp342
(dp343
g13
I01
sg14
F0.9827557382213645
sg15
g340
sbs(I-16
I462
tp344
g0
(g9
g2
Ntp345
Rp346
(dp347
g13
I01
sg14
F0.6001448241950464
sg15
g344
sbs(I-15
I464
tp348
g0
(g9
g2
Ntp349
Rp350
(dp351
g13
I01
sg14
F-0.9746797537645866
sg15
g348
sbs(I-20
I456
tp352
g0
(g9
g2
Ntp353
Rp354
(dp355
g13
I01
sg14
F-0.7389333454790888
sg15
g352
sbs(I-20
I457
tp356
g0
(g9
g2
Ntp357
Rp358
(dp359
g13
I01
sg14
F0.4430278708767661
sg15
g356
sbs(I-11
I461
tp360
g0
(g9
g2
Ntp361
Rp362
(dp363
g13
I01
sg14
F-0.6058364847570582
sg15
g360
sbs(I-1
I461
tp364
g0
(g9
g2
Ntp365
Rp366
(dp367
g13
I01
sg14
F1.0
sg15
g364
sbs(I458
I2
tp368
g0
(g9
g2
Ntp369
Rp370
(dp371
g13
I01
sg14
F-0.31442333532318645
sg15
g368
sbs(I-17
I460
tp372
g0
(g9
g2
Ntp373
Rp374
(dp375
g13
I01
sg14
F1.0
sg15
g372
sbs(I455
I3
tp376
g0
(g9
g2
Ntp377
Rp378
(dp379
g13
I01
sg14
F1.0
sg15
g376
sbs(I-12
I460
tp380
g0
(g9
g2
Ntp381
Rp382
(dp383
g13
I01
sg14
F-0.39548950230760893
sg15
g380
sbs(I460
I1
tp384
g0
(g9
g2
Ntp385
Rp386
(dp387
g13
I01
sg14
F1.0
sg15
g384
sbs(I-2
I460
tp388
g0
(g9
g2
Ntp389
Rp390
(dp391
g13
I01
sg14
F1.0
sg15
g388
sbs(I462
I4
tp392
g0
(g9
g2
Ntp393
Rp394
(dp395
g13
I01
sg14
F-1.0
sg15
g392
sbs(I461
I4
tp396
g0
(g9
g2
Ntp397
Rp398
(dp399
g13
I01
sg14
F-0.6560737537016879
sg15
g396
sbs(I463
I1
tp400
g0
(g9
g2
Ntp401
Rp402
(dp403
g13
I01
sg14
F-0.0641357430858655
sg15
g400
sbs(I-5
I464
tp404
g0
(g9
g2
Ntp405
Rp406
(dp407
g13
I01
sg14
F0.1471956436927765
sg15
g404
sbs(I-3
I460
tp408
g0
(g9
g2
Ntp409
Rp410
(dp411
g13
I01
sg14
F1.0
sg15
g408
sbs(I-16
I464
tp412
g0
(g9
g2
Ntp413
Rp414
(dp415
g13
I01
sg14
F0.34874808726305173
sg15
g412
sbs(I-11
I456
tp416
g0
(g9
g2
Ntp417
Rp418
(dp419
g13
I01
sg14
F0.6191123040399586
sg15
g416
sbs(I-14
I457
tp420
g0
(g9
g2
Ntp421
Rp422
(dp423
g13
I01
sg14
F-0.17564216679609868
sg15
g420
sbs(I-4
I461
tp424
g0
(g9
g2
Ntp425
Rp426
(dp427
g13
I01
sg14
F0.8853875440855851
sg15
g424
sbs(I-10
I462
tp428
g0
(g9
g2
Ntp429
Rp430
(dp431
g13
I01
sg14
F0.00247022371462724
sg15
g428
sbs(I-15
I462
tp432
g0
(g9
g2
Ntp433
Rp434
(dp435
g13
I01
sg14
F0.9506126799964174
sg15
g432
sbs(I-6
I460
tp436
g0
(g9
g2
Ntp437
Rp438
(dp439
g13
I01
sg14
F-1.0
sg15
g436
sbs(I-17
I464
tp440
g0
(g9
g2
Ntp441
Rp442
(dp443
g13
I01
sg14
F-1.0
sg15
g440
sbs(I-19
I459
tp444
g0
(g9
g2
Ntp445
Rp446
(dp447
g13
I01
sg14
F-0.26976636109410174
sg15
g444
sbs(I-11
I464
tp448
g0
(g9
g2
Ntp449
Rp450
(dp451
g13
I01
sg14
F-0.999483488557705
sg15
g448
sbs(I-9
I462
tp452
g0
(g9
g2
Ntp453
Rp454
(dp455
g13
I01
sg14
F0.7331175790472283
sg15
g452
sbs(I457
I0
tp456
g0
(g9
g2
Ntp457
Rp458
(dp459
g13
I01
sg14
F-0.7118648747097052
sg15
g456
sbs(I-7
I459
tp460
g0
(g9
g2
Ntp461
Rp462
(dp463
g13
I01
sg14
F0.858543675511908
sg15
g460
sbs(I-20
I462
tp464
g0
(g9
g2
Ntp465
Rp466
(dp467
g13
I01
sg14
F0.011067571667149223
sg15
g464
sbs(I-1
I462
tp468
g0
(g9
g2
Ntp469
Rp470
(dp471
g13
I01
sg14
F0.5565957914008188
sg15
g468
sbs(I464
I3
tp472
g0
(g9
g2
Ntp473
Rp474
(dp475
g13
I01
sg14
F-1.0
sg15
g472
sbs(I462
I1
tp476
g0
(g9
g2
Ntp477
Rp478
(dp479
g13
I01
sg14
F-0.7335011823250073
sg15
g476
sbs(I-2
I464
tp480
g0
(g9
g2
Ntp481
Rp482
(dp483
g13
I01
sg14
F-0.9803680492497536
sg15
g480
sbs(I463
I4
tp484
g0
(g9
g2
Ntp485
Rp486
(dp487
g13
I01
sg14
F1.0
sg15
g484
sbs(I-4
I455
tp488
g0
(g9
g2
Ntp489
Rp490
(dp491
g13
I01
sg14
F1.0
sg15
g488
sbs(I-3
I463
tp492
g0
(g9
g2
Ntp493
Rp494
(dp495
g13
I01
sg14
F-1.0
sg15
g492
sbs(I-14
I458
tp496
g0
(g9
g2
Ntp497
Rp498
(dp499
g13
I01
sg14
F1.0
sg15
g496
sbs(I456
I2
tp500
g0
(g9
g2
Ntp501
Rp502
(dp503
g13
I01
sg14
F1.0
sg15
g500
sbs(I-19
I462
tp504
g0
(g9
g2
Ntp505
Rp506
(dp507
g13
I01
sg14
F0.6954102288976374
sg15
g504
sbs(I-10
I460
tp508
g0
(g9
g2
Ntp509
Rp510
(dp511
g13
I01
sg14
F0.7595326270964001
sg15
g508
sbs(I-16
I456
tp512
g0
(g9
g2
Ntp513
Rp514
(dp515
g13
I01
sg14
F0.4728684831918507
sg15
g512
sbs(I-12
I459
tp516
g0
(g9
g2
Ntp517
Rp518
(dp519
g13
I01
sg14
F-0.31085042002386803
sg15
g516
sbs(I-1
I459
tp520
g0
(g9
g2
Ntp521
Rp522
(dp523
g13
I01
sg14
F-0.4043397351115019
sg15
g520
sbs(I-18
I460
tp524
g0
(g9
g2
Ntp525
Rp526
(dp527
g13
I01
sg14
F-0.3438399044278797
sg15
g524
sbs(I-17
I459
tp528
g0
(g9
g2
Ntp529
Rp530
(dp531
g13
I01
sg14
F-0.3491598590513352
sg15
g528
sbs(I464
I0
tp532
g0
(g9
g2
Ntp533
Rp534
(dp535
g13
I01
sg14
F1.0
sg15
g532
sbs(I-13
I460
tp536
g0
(g9
g2
Ntp537
Rp538
(dp539
g13
I01
sg14
F1.0
sg15
g536
sbs(I-1
I463
tp540
g0
(g9
g2
Ntp541
Rp542
(dp543
g13
I01
sg14
F1.0
sg15
g540
sbs(I462
I2
tp544
g0
(g9
g2
Ntp545
Rp546
(dp547
g13
I00
sg14
F-0.487443872122837
sg15
g544
sbs(I-18
I464
tp548
g0
(g9
g2
Ntp549
Rp550
(dp551
g13
I00
sg14
F1.0
sg15
g548
sbs(I-1
I457
tp552
g0
(g9
g2
Ntp553
Rp554
(dp555
g13
I01
sg14
F-0.05246979791814809
sg15
g552
sbs(I-15
I455
tp556
g0
(g9
g2
Ntp557
Rp558
(dp559
g13
I01
sg14
F-1.0
sg15
g556
sbs(I-14
I463
tp560
g0
(g9
g2
Ntp561
Rp562
(dp563
g13
I01
sg14
F-1.0
sg15
g560
sbs(I-5
I463
tp564
g0
(g9
g2
Ntp565
Rp566
(dp567
g13
I01
sg14
F-1.0
sg15
g564
sbs(I455
I1
tp568
g0
(g9
g2
Ntp569
Rp570
(dp571
g13
I01
sg14
F0.6303550220972253
sg15
g568
sbs(I-9
I456
tp572
g0
(g9
g2
Ntp573
Rp574
(dp575
g13
I01
sg14
F0.34497704515952854
sg15
g572
sbs(I-7
I460
tp576
g0
(g9
g2
Ntp577
Rp578
(dp579
g13
I01
sg14
F0.7302069698908842
sg15
g576
sbs(I-11
I457
tp580
g0
(g9
g2
Ntp581
Rp582
(dp583
g13
I01
sg14
F-0.5639105686492887
sg15
g580
sbs(I-10
I457
tp584
g0
(g9
g2
Ntp585
Rp586
(dp587
g13
I01
sg14
F-0.8494000432057066
sg15
g584
sbs(I459
I1
tp588
g0
(g9
g2
Ntp589
Rp590
(dp591
g13
I01
sg14
F0.342875215711953
sg15
g588
sbs(I-8
I461
tp592
g0
(g9
g2
Ntp593
Rp594
(dp595
g13
I01
sg14
F0.5473541084748803
sg15
g592
sbs(I-12
I456
tp596
g0
(g9
g2
Ntp597
Rp598
(dp599
g13
I01
sg14
F-1.0
sg15
g596
sbs(I-17
I456
tp600
g0
(g9
g2
Ntp601
Rp602
(dp603
g13
I01
sg14
F-0.12482944894836755
sg15
g600
sbs(I-18
I457
tp604
g0
(g9
g2
Ntp605
Rp606
(dp607
g13
I01
sg14
F0.6415264773241698
sg15
g604
sbs(I-13
I459
tp608
g0
(g9
g2
Ntp609
Rp610
(dp611
g13
I01
sg14
F-0.6422295301208203
sg15
g608
sbs(I461
I0
tp612
g0
(g9
g2
Ntp613
Rp614
(dp615
g13
I00
sg14
F1.0
sg15
g612
sbs(I-3
I456
tp616
g0
(g9
g2
Ntp617
Rp618
(dp619
g13
I01
sg14
F-0.490455248113405
sg15
g616
sbs(I-20
I464
tp620
g0
(g9
g2
Ntp621
Rp622
(dp623
g13
I01
sg14
F0.527864251918398
sg15
g620
sbs(I-4
I457
tp624
g0
(g9
g2
Ntp625
Rp626
(dp627
g13
I01
sg14
F0.6285229585059219
sg15
g624
sbs(I-16
I459
tp628
g0
(g9
g2
Ntp629
Rp630
(dp631
g13
I01
sg14
F-0.6510332827983838
sg15
g628
sbs(I-6
I456
tp632
g0
(g9
g2
Ntp633
Rp634
(dp635
g13
I01
sg14
F0.35477240118413944
sg15
g632
sbs(I-5
I458
tp636
g0
(g9
g2
Ntp637
Rp638
(dp639
g13
I00
sg14
F-1.0
sg15
g636
sbs(I-19
I455
tp640
g0
(g9
g2
Ntp641
Rp642
(dp643
g13
I01
sg14
F0.34005197385956176
sg15
g640
sbs(I-10
I455
tp644
g0
(g9
g2
Ntp645
Rp646
(dp647
g13
I01
sg14
F-0.27641073689924484
sg15
g644
sbs(I-9
I463
tp648
g0
(g9
g2
Ntp649
Rp650
(dp651
g13
I01
sg14
F0.1956562598564795
sg15
g648
sbs(I457
I4
tp652
g0
(g9
g2
Ntp653
Rp654
(dp655
g13
I01
sg14
F0.5823802277394312
sg15
g652
sbs(I-14
I456
tp656
g0
(g9
g2
Ntp657
Rp658
(dp659
g13
I01
sg14
F-1.0
sg15
g656
sbs(I-6
I455
tp660
g0
(g9
g2
Ntp661
Rp662
(dp663
g13
I01
sg14
F-0.600889035574482
sg15
g660
sbs(I-20
I458
tp664
g0
(g9
g2
Ntp665
Rp666
(dp667
g13
I01
sg14
F-0.7955833767571431
sg15
g664
sbs(I-11
I460
tp668
g0
(g9
g2
Ntp669
Rp670
(dp671
g13
I01
sg14
F-0.09588596127233842
sg15
g668
sbs(I-10
I458
tp672
g0
(g9
g2
Ntp673
Rp674
(dp675
g13
I01
sg14
F-0.7896288801222258
sg15
g672
sbs(I458
I3
tp676
g0
(g9
g2
Ntp677
Rp678
(dp679
g13
I01
sg14
F0.0973216122089785
sg15
g676
sbs(I-17
I463
tp680
g0
(g9
g2
Ntp681
Rp682
(dp683
g13
I01
sg14
F-0.44255967170074123
sg15
g680
sbs(I455
I2
tp684
g0
(g9
g2
Ntp685
Rp686
(dp687
g13
I01
sg14
F-0.7028208375867704
sg15
g684
sbs(I-12
I461
tp688
g0
(g9
g2
Ntp689
Rp690
(dp691
g13
I01
sg14
F-0.4592167320956726
sg15
g688
sbs(I460
I2
tp692
g0
(g9
g2
Ntp693
Rp694
(dp695
g13
I01
sg14
F-0.8757565304099719
sg15
g692
sbs(I-18
I458
tp696
g0
(g9
g2
Ntp697
Rp698
(dp699
g13
I01
sg14
F0.8565881622337255
sg15
g696
sbs(I461
I3
tp700
g0
(g9
g2
Ntp701
Rp702
(dp703
g13
I01
sg14
F0.5844491389709595
sg15
g700
sbs(I-2
I462
tp704
g0
(g9
g2
Ntp705
Rp706
(dp707
g13
I01
sg14
F-0.6978922086735805
sg15
g704
sbs(I463
I0
tp708
g0
(g9
g2
Ntp709
Rp710
(dp711
g13
I01
sg14
F-0.018745034205660427
sg15
g708
sbs(I-3
I459
tp712
g0
(g9
g2
Ntp713
Rp714
(dp715
g13
I01
sg14
F-1.0
sg15
g712
sbs(I-4
I462
tp716
g0
(g9
g2
Ntp717
Rp718
(dp719
g13
I01
sg14
F-1.0
sg15
g716
sbs(I-15
I461
tp720
g0
(g9
g2
Ntp721
Rp722
(dp723
g13
I01
sg14
F0.5270905779925351
sg15
g720
sbs(I-6
I461
tp724
g0
(g9
g2
Ntp725
Rp726
(dp727
g13
I01
sg14
F-1.0
sg15
g724
sbs(I456
I4
tp728
g0
(g9
g2
Ntp729
Rp730
(dp731
g13
I01
sg14
F-1.0
sg15
g728
sbs(I-19
I458
tp732
g0
(g9
g2
Ntp733
Rp734
(dp735
g13
I01
sg14
F0.9051004092705712
sg15
g732
sbs(I-16
I460
tp736
g0
(g9
g2
Ntp737
Rp738
(dp739
g13
I01
sg14
F-1.0
sg15
g736
sbs(I-7
I458
tp740
g0
(g9
g2
Ntp741
Rp742
(dp743
g13
I01
sg14
F-1.0
sg15
g740
sbs(I-20
I463
tp744
g0
(g9
g2
Ntp745
Rp746
(dp747
g13
I01
sg14
F-1.0
sg15
g744
sbs(I-11
I463
tp748
g0
(g9
g2
Ntp749
Rp750
(dp751
g13
I01
sg14
F-0.4572540315243551
sg15
g748
sbs(I-2
I463
tp752
g0
(g9
g2
Ntp753
Rp754
(dp755
g13
I01
sg14
F-0.46976188296482635
sg15
g752
sbs(I458
I4
tp756
g0
(g9
g2
Ntp757
Rp758
(dp759
g13
I01
sg14
F0.2162585813782507
sg15
g756
sbs(I-8
I455
tp760
g0
(g9
g2
Ntp761
Rp762
(dp763
g13
I01
sg14
F1.0
sg15
g760
sbs(I464
I4
tp764
g0
(g9
g2
Ntp765
Rp766
(dp767
g13
I01
sg14
F1.0
sg15
g764
sbs(I-13
I464
tp768
g0
(g9
g2
Ntp769
Rp770
(dp771
g13
I01
sg14
F-0.9600031262848171
sg15
g768
sbs(I-17
I457
tp772
g0
(g9
g2
Ntp773
Rp774
(dp775
g13
I01
sg14
F0.33067323986176145
sg15
g772
sbs(I-18
I455
tp776
g0
(g9
g2
Ntp777
Rp778
(dp779
g13
I01
sg14
F-1.0
sg15
g776
sbs(I-3
I455
tp780
g0
(g9
g2
Ntp781
Rp782
(dp783
g13
I01
sg14
F-0.2622873077473786
sg15
g780
sbs(I455
I4
tp784
g0
(g9
g2
Ntp785
Rp786
(dp787
g13
I01
sg14
F-0.8386653075772077
sg15
g784
sbs(I-3
I462
tp788
g0
(g9
g2
Ntp789
Rp790
(dp791
g13
I01
sg14
F-0.5928459327693197
sg15
g788
sbs(I-5
I457
tp792
g0
(g9
g2
Ntp793
Rp794
(dp795
g13
I01
sg14
F0.5473349505825673
sg15
g792
sbs(I-14
I459
tp796
g0
(g9
g2
Ntp797
Rp798
(dp799
g13
I01
sg14
F0.3428926715606925
sg15
g796
sbs(I-17
I458
tp800
g0
(g9
g2
Ntp801
Rp802
(dp803
g13
I01
sg14
F0.4023470251422246
sg15
g800
sbs(I457
I1
tp804
g0
(g9
g2
Ntp805
Rp806
(dp807
g13
I01
sg14
F0.22449223217317782
sg15
g804
sbs(I456
I3
tp808
g0
(g9
g2
Ntp809
Rp810
(dp811
g13
I01
sg14
F-0.3642827576852147
sg15
g808
sbs(I-6
I462
tp812
g0
(g9
g2
Ntp813
Rp814
(dp815
g13
I01
sg14
F-0.4704707032924623
sg15
g812
sbs(I-19
I461
tp816
g0
(g9
g2
Ntp817
Rp818
(dp819
g13
I01
sg14
F0.5467164869466896
sg15
g816
sbs(I-10
I461
tp820
g0
(g9
g2
Ntp821
Rp822
(dp823
g13
I01
sg14
F0.776209277757789
sg15
g820
sbs(I-16
I457
tp824
g0
(g9
g2
Ntp825
Rp826
(dp827
g13
I01
sg14
F-0.43573738522253347
sg15
g824
sbs(I-1
I455
tp828
g0
(g9
g2
Ntp829
Rp830
(dp831
g13
I01
sg14
F-0.36717069486315707
sg15
g828
sbs(I-20
I460
tp832
g0
(g9
g2
Ntp833
Rp834
(dp835
g13
I01
sg14
F-0.9680713645662761
sg15
g832
sbs(I-15
I457
tp836
g0
(g9
g2
Ntp837
Rp838
(dp839
g13
I01
sg14
F-0.20675645977789847
sg15
g836
sbs(I459
I3
tp840
g0
(g9
g2
Ntp841
Rp842
(dp843
g13
I01
sg14
F-0.2452816987263221
sg15
g840
sbs(I-18
I461
tp844
g0
(g9
g2
Ntp845
Rp846
(dp847
g13
I01
sg14
F0.9135914570919207
sg15
g844
sbs(I464
I1
tp848
g0
(g9
g2
Ntp849
Rp850
(dp851
g13
I01
sg14
F0.7878055329810479
sg15
g848
sbs(I-13
I463
tp852
g0
(g9
g2
Ntp853
Rp854
(dp855
g13
I01
sg14
F-0.04971063329353964
sg15
g852
sbs(I-12
I455
tp856
g0
(g9
g2
Ntp857
Rp858
(dp859
g13
I01
sg14
F0.6393489323798892
sg15
g856
sbs(I460
I4
tp860
g0
(g9
g2
Ntp861
Rp862
(dp863
g13
I01
sg14
F0.4282396182629251
sg15
g860
sbs(I462
I3
tp864
g0
(g9
g2
Ntp865
Rp866
(dp867
g13
I01
sg14
F1.0
sg15
g864
sbs(I459
I2
tp868
g0
(g9
g2
Ntp869
Rp870
(dp871
g13
I01
sg14
F-1.0
sg15
g868
sbs(I459
I0
tp872
g0
(g9
g2
Ntp873
Rp874
(dp875
g13
I01
sg14
F-0.1381634113948911
sg15
g872
sbs(I-1
I464
tp876
g0
(g9
g2
Ntp877
Rp878
(dp879
g13
I01
sg14
F-1.0
sg15
g876
sbs(I-14
I460
tp880
g0
(g9
g2
Ntp881
Rp882
(dp883
g13
I01
sg14
F0.5206636426465948
sg15
g880
sbs(I-5
I462
tp884
g0
(g9
g2
Ntp885
Rp886
(dp887
g13
I01
sg14
F0.7421423241100018
sg15
g884
sbs(I457
I3
tp888
g0
(g9
g2
Ntp889
Rp890
(dp891
g13
I01
sg14
F-0.40972614605810614
sg15
g888
sbs(I456
I1
tp892
g0
(g9
g2
Ntp893
Rp894
(dp895
g13
I01
sg14
F1.0
sg15
g892
sbs(I456
I0
tp896
g0
(g9
g2
Ntp897
Rp898
(dp899
g13
I01
sg14
F-0.5589438400010183
sg15
g896
sbs(I-7
I464
tp900
g0
(g9
g2
Ntp901
Rp902
(dp903
g13
I01
sg14
F0.6589718409861453
sg15
g900
sbs(I-19
I464
tp904
g0
(g9
g2
Ntp905
Rp906
(dp907
g13
I01
sg14
F0.8166764204596159
sg15
g904
sbs(I-10
I464
tp908
g0
(g9
g2
Ntp909
Rp910
(dp911
g13
I01
sg14
F0.003612428963062575
sg15
g908
sbs(I-17
I461
tp912
g0
(g9
g2
Ntp913
Rp914
(dp915
g13
I00
sg14
F-0.41263460182177164
sg15
g912
sbs(I-12
I457
tp916
g0
(g9
g2
Ntp917
Rp918
(dp919
g13
I01
sg14
F1.0
sg15
g916
sbs(I-18
I462
tp920
g0
(g9
g2
Ntp921
Rp922
(dp923
g13
I01
sg14
F-0.016857390624883895
sg15
g920
sbs(I-13
I458
tp924
g0
(g9
g2
Ntp925
Rp926
(dp927
g13
I01
sg14
F-0.3928834268098755
sg15
g924
sbs(I-8
I459
tp928
g0
(g9
g2
Ntp929
Rp930
(dp931
g13
I01
sg14
F-0.1575762812568014
sg15
g928
sbs(I-17
I455
tp932
g0
(g9
g2
Ntp933
Rp934
(dp935
g13
I01
sg14
F1.0
sg15
g932
sbs(I-4
I464
tp936
g0
(g9
g2
Ntp937
Rp938
(dp939
g13
I01
sg14
F0.32204112644706273
sg15
g936
sbs(I-9
I464
tp940
g0
(g9
g2
Ntp941
Rp942
(dp943
g13
I01
sg14
F0.4256018270788617
sg15
g940
sbs(I-14
I464
tp944
g0
(g9
g2
Ntp945
Rp946
(dp947
g13
I01
sg14
F0.05556798020451387
sg15
g944
sbs(I-4
I458
tp948
g0
(g9
g2
Ntp949
Rp950
(dp951
g13
I01
sg14
F-1.0
sg15
g948
sbs(I459
I4
tp952
g0
(g9
g2
Ntp953
Rp954
(dp955
g13
I01
sg14
F0.8681226799505172
sg15
g952
sbs(I-6
I457
tp956
g0
(g9
g2
Ntp957
Rp958
(dp959
g13
I01
sg14
F0.25139797866704783
sg15
g956
sbs(I-5
I461
tp960
g0
(g9
g2
Ntp961
Rp962
(dp963
g13
I01
sg14
F-0.7559407398715673
sg15
g960
sbs(I457
I2
tp964
g0
(g9
g2
Ntp965
Rp966
(dp967
g13
I01
sg14
F-0.37014389559573146
sg15
g964
sbs(I-8
I462
tp968
g0
(g9
g2
Ntp969
Rp970
(dp971
g13
I01
sg14
F0.10405715405822957
sg15
g968
sbs(I-7
I462
tp972
g0
(g9
g2
Ntp973
Rp974
(dp975
g13
I01
sg14
F-0.9076128877545673
sg15
g972
sbs(I-3
I464
tp976
g0
(g9
g2
Ntp977
Rp978
(dp979
g13
I01
sg14
F0.7457648240594481
sg15
g976
sbs(I-20
I459
tp980
g0
(g9
g2
Ntp981
Rp982
(dp983
g13
I01
sg14
F0.4713607815384283
sg15
g980
sbs(I-11
I459
tp984
g0
(g9
g2
Ntp985
Rp986
(dp987
g13
I01
sg14
F1.0
sg15
g984
sbs(I-10
I459
tp988
g0
(g9
g2
Ntp989
Rp990
(dp991
g13
I01
sg14
F0.8077338509665846
sg15
g988
sbs(I458
I0
tp992
g0
(g9
g2
Ntp993
Rp994
(dp995
g13
I01
sg14
F-0.0660557306470291
sg15
g992
sbs(I-17
I462
tp996
g0
(g9
g2
Ntp997
Rp998
(dp999
g13
I01
sg14
F-0.9648108641205757
sg15
g996
sbs(I-15
I459
tp1000
g0
(g9
g2
Ntp1001
Rp1002
(dp1003
g13
I01
sg14
F1.0
sg15
g1000
sbs(I-12
I462
tp1004
g0
(g9
g2
Ntp1005
Rp1006
(dp1007
g13
I01
sg14
F-0.5936787114953572
sg15
g1004
sbs(I460
I3
tp1008
g0
(g9
g2
Ntp1009
Rp1010
(dp1011
g13
I00
sg14
F-0.240173405518176
sg15
g1008
sbssS'nodes'
p1012
(dp1013
I0
g0
(cneat.genes
DefaultNodeGene
p1014
g2
Ntp1015
Rp1016
(dp1017
S'activation'
p1018
S'sigmoid'
p1019
sS'bias'
p1020
F-1.0
sS'response'
p1021
F1.0
sg15
I0
sS'aggregation'
p1022
S'product'
p1023
sbsI1
g0
(g1014
g2
Ntp1024
Rp1025
(dp1026
g1018
g1019
sg1020
F-1.0
sg1021
F1.0
sg15
I1
sg1022
g1023
sbsI2
g0
(g1014
g2
Ntp1027
Rp1028
(dp1029
g1018
g1019
sg1020
F0.7141386606450912
sg1021
F1.0
sg15
I2
sg1022
g1023
sbsI3
g0
(g1014
g2
Ntp1030
Rp1031
(dp1032
g1018
g1019
sg1020
F-0.4152668941413025
sg1021
F1.0
sg15
I3
sg1022
g1023
sbsI4
g0
(g1014
g2
Ntp1033
Rp1034
(dp1035
g1018
g1019
sg1020
F0.7104713114095362
sg1021
F1.0
sg15
I4
sg1022
g1023
sbsI455
g0
(g1014
g2
Ntp1036
Rp1037
(dp1038
g1018
g1019
sg1020
F1.0
sg1021
F1.0
sg15
I455
sg1022
g1023
sbsI456
g0
(g1014
g2
Ntp1039
Rp1040
(dp1041
g1018
g1019
sg1020
F0.5432011306810376
sg1021
F1.0
sg15
I456
sg1022
g1023
sbsI457
g0
(g1014
g2
Ntp1042
Rp1043
(dp1044
g1018
g1019
sg1020
F-0.5341055119344694
sg1021
F1.0
sg15
I457
sg1022
g1023
sbsI458
g0
(g1014
g2
Ntp1045
Rp1046
(dp1047
g1018
g1019
sg1020
F-0.07269410542568866
sg1021
F1.0
sg15
I458
sg1022
g1023
sbsI459
g0
(g1014
g2
Ntp1048
Rp1049
(dp1050
g1018
g1019
sg1020
F1.0
sg1021
F1.0
sg15
I459
sg1022
g1023
sbsI460
g0
(g1014
g2
Ntp1051
Rp1052
(dp1053
g1018
g1019
sg1020
F-0.7542255738436592
sg1021
F1.0
sg15
I460
sg1022
g1023
sbsI461
g0
(g1014
g2
Ntp1054
Rp1055
(dp1056
g1018
g1019
sg1020
F-1.0
sg1021
F1.0
sg15
I461
sg1022
g1023
sbsI462
g0
(g1014
g2
Ntp1057
Rp1058
(dp1059
g1018
g1019
sg1020
F1.0
sg1021
F1.0
sg15
I462
sg1022
g1023
sbsI463
g0
(g1014
g2
Ntp1060
Rp1061
(dp1062
g1018
g1019
sg1020
F0.761171478761478
sg1021
F1.0
sg15
I463
sg1022
g1023
sbsI464
g0
(g1014
g2
Ntp1063
Rp1064
(dp1065
g1018
g1019
sg1020
F-0.04532841348606331
sg1021
F1.0
sg15
I464
sg1022
g1023
sbssg15
I376
sS'fitness'
p1066
cnumpy.core.multiarray
scalar
p1067
(cnumpy
dtype
p1068
(S'f8'
p1069
I0
I1
tp1070
Rp1071
(I3
S'<'
p1072
NNNI-1
I-1
I0
tp1073
bS'\x0b7cGA~M@'
p1074
tp1075
Rp1076
sb.