ccopy_reg
_reconstructor
p0
(cneat.genome
DefaultGenome
p1
c__builtin__
object
p2
Ntp3
Rp4
(dp5
S'connections'
p6
(dp7
(I-8
I777
tp8
g0
(cneat.genes
DefaultConnectionGene
p9
g2
Ntp10
Rp11
(dp12
S'enabled'
p13
I01
sS'weight'
p14
F0.03535955848254754
sS'key'
p15
g8
sbs(I-17
I780
tp16
g0
(g9
g2
Ntp17
Rp18
(dp19
g13
I01
sg14
F1.0378714996519651
sg15
g16
sbs(I-19
I780
tp20
g0
(g9
g2
Ntp21
Rp22
(dp23
g13
I01
sg14
F-0.9122684741874344
sg15
g20
sbs(I-12
I780
tp24
g0
(g9
g2
Ntp25
Rp26
(dp27
g13
I01
sg14
F0.10004691011509037
sg15
g24
sbs(I-14
I780
tp28
g0
(g9
g2
Ntp29
Rp30
(dp31
g13
I01
sg14
F-0.28233358934831854
sg15
g28
sbs(I776
I0
tp32
g0
(g9
g2
Ntp33
Rp34
(dp35
g13
I01
sg14
F-1.1507568545047469
sg15
g32
sbs(I-10
I782
tp36
g0
(g9
g2
Ntp37
Rp38
(dp39
g13
I01
sg14
F2.0334795489457047
sg15
g36
sbs(I-14
I783
tp40
g0
(g9
g2
Ntp41
Rp42
(dp43
g13
I01
sg14
F-0.21788994810163112
sg15
g40
sbs(I-5
I778
tp44
g0
(g9
g2
Ntp45
Rp46
(dp47
g13
I01
sg14
F-0.054981542716665444
sg15
g44
sbs(I774
I2
tp48
g0
(g9
g2
Ntp49
Rp50
(dp51
g13
I01
sg14
F-1.9945826747507363
sg15
g48
sbs(I-9
I783
tp52
g0
(g9
g2
Ntp53
Rp54
(dp55
g13
I01
sg14
F0.5119892465571627
sg15
g52
sbs(I-2
I773
tp56
g0
(g9
g2
Ntp57
Rp58
(dp59
g13
I01
sg14
F0.5343844222682084
sg15
g56
sbs(I-4
I781
tp60
g0
(g9
g2
Ntp61
Rp62
(dp63
g13
I01
sg14
F-0.06401492235470974
sg15
g60
sbs(I-18
I774
tp64
g0
(g9
g2
Ntp65
Rp66
(dp67
g13
I01
sg14
F0.8050392166581424
sg15
g64
sbs(I-15
I773
tp68
g0
(g9
g2
Ntp69
Rp70
(dp71
g13
I01
sg14
F-1.8564996396168088
sg15
g68
sbs(I-16
I779
tp72
g0
(g9
g2
Ntp73
Rp74
(dp75
g13
I01
sg14
F0.3221568738467895
sg15
g72
sbs(I-18
I778
tp76
g0
(g9
g2
Ntp77
Rp78
(dp79
g13
I01
sg14
F1.5158907679148603
sg15
g76
sbs(I-20
I782
tp80
g0
(g9
g2
Ntp81
Rp82
(dp83
g13
I01
sg14
F0.471309995992128
sg15
g80
sbs(I-13
I774
tp84
g0
(g9
g2
Ntp85
Rp86
(dp87
g13
I01
sg14
F0.3216894276230191
sg15
g84
sbs(I-17
I778
tp88
g0
(g9
g2
Ntp89
Rp90
(dp91
g13
I01
sg14
F-0.955185993930717
sg15
g88
sbs(I-15
I778
tp92
g0
(g9
g2
Ntp93
Rp94
(dp95
g13
I01
sg14
F-1.3789571643465899
sg15
g92
sbs(I-8
I774
tp96
g0
(g9
g2
Ntp97
Rp98
(dp99
g13
I01
sg14
F-0.42019365405318077
sg15
g96
sbs(I-19
I783
tp100
g0
(g9
g2
Ntp101
Rp102
(dp103
g13
I01
sg14
F2.3388236980237687
sg15
g100
sbs(I-6
I777
tp104
g0
(g9
g2
Ntp105
Rp106
(dp107
g13
I01
sg14
F-0.13943159129602614
sg15
g104
sbs(I-7
I775
tp108
g0
(g9
g2
Ntp109
Rp110
(dp111
g13
I01
sg14
F0.6378034782335824
sg15
g108
sbs(I-2
I778
tp112
g0
(g9
g2
Ntp113
Rp114
(dp115
g13
I01
sg14
F-1.2874434140843194
sg15
g112
sbs(I773
I0
tp116
g0
(g9
g2
Ntp117
Rp118
(dp119
g13
I01
sg14
F0.12368868549386636
sg15
g116
sbs(I-10
I779
tp120
g0
(g9
g2
Ntp121
Rp122
(dp123
g13
I01
sg14
F1.214640459225146
sg15
g120
sbs(I778
I0
tp124
g0
(g9
g2
Ntp125
Rp126
(dp127
g13
I01
sg14
F-0.3340720618987625
sg15
g124
sbs(I-4
I775
tp128
g0
(g9
g2
Ntp129
Rp130
(dp131
g13
I01
sg14
F-1.4416809033853937
sg15
g128
sbs(I-5
I777
tp132
g0
(g9
g2
Ntp133
Rp134
(dp135
g13
I01
sg14
F-0.3127344811862852
sg15
g132
sbs(I-1
I783
tp136
g0
(g9
g2
Ntp137
Rp138
(dp139
g13
I01
sg14
F0.0925242215987167
sg15
g136
sbs(I780
I3
tp140
g0
(g9
g2
Ntp141
Rp142
(dp143
g13
I01
sg14
F-0.19184424043967327
sg15
g140
sbs(I-2
I774
tp144
g0
(g9
g2
Ntp145
Rp146
(dp147
g13
I01
sg14
F0.38368045322459765
sg15
g144
sbs(I-3
I774
tp148
g0
(g9
g2
Ntp149
Rp150
(dp151
g13
I01
sg14
F0.5072865333742405
sg15
g148
sbs(I-16
I773
tp152
g0
(g9
g2
Ntp153
Rp154
(dp155
g13
I01
sg14
F-1.1645527238513709
sg15
g152
sbs(I-18
I784
tp156
g0
(g9
g2
Ntp157
Rp158
(dp159
g13
I01
sg14
F0.6976769548195565
sg15
g156
sbs(I-1
I780
tp160
g0
(g9
g2
Ntp161
Rp162
(dp163
g13
I01
sg14
F0.6841791164219073
sg15
g160
sbs(I-13
I784
tp164
g0
(g9
g2
Ntp165
Rp166
(dp167
g13
I01
sg14
F-0.5423686784401152
sg15
g164
sbs(I783
I3
tp168
g0
(g9
g2
Ntp169
Rp170
(dp171
g13
I01
sg14
F-0.7090895608852048
sg15
g168
sbs(I-16
I776
tp172
g0
(g9
g2
Ntp173
Rp174
(dp175
g13
I01
sg14
F2.8871547459952183
sg15
g172
sbs(I-18
I775
tp176
g0
(g9
g2
Ntp177
Rp178
(dp179
g13
I01
sg14
F-0.6432347913742478
sg15
g176
sbs(I-15
I776
tp180
g0
(g9
g2
Ntp181
Rp182
(dp183
g13
I01
sg14
F0.5906816022577419
sg15
g180
sbs(I-12
I779
tp184
g0
(g9
g2
Ntp185
Rp186
(dp187
g13
I01
sg14
F-0.7472855908119913
sg15
g184
sbs(I-13
I773
tp188
g0
(g9
g2
Ntp189
Rp190
(dp191
g13
I01
sg14
F-1.5315265146959884
sg15
g188
sbs(I-14
I775
tp192
g0
(g9
g2
Ntp193
Rp194
(dp195
g13
I01
sg14
F-0.6720831953913182
sg15
g192
sbs(I-7
I781
tp196
g0
(g9
g2
Ntp197
Rp198
(dp199
g13
I01
sg14
F0.49828644784075143
sg15
g196
sbs(I-17
I774
tp200
g0
(g9
g2
Ntp201
Rp202
(dp203
g13
I01
sg14
F-0.13068697097884846
sg15
g200
sbs(I-8
I776
tp204
g0
(g9
g2
Ntp205
Rp206
(dp207
g13
I01
sg14
F-0.40023588852809444
sg15
g204
sbs(I-11
I778
tp208
g0
(g9
g2
Ntp209
Rp210
(dp211
g13
I01
sg14
F1.329835780856519
sg15
g208
sbs(I-12
I774
tp212
g0
(g9
g2
Ntp213
Rp214
(dp215
g13
I01
sg14
F-1.8224385277166377
sg15
g212
sbs(I-6
I778
tp216
g0
(g9
g2
Ntp217
Rp218
(dp219
g13
I01
sg14
F-0.23982561897536753
sg15
g216
sbs(I-11
I775
tp220
g0
(g9
g2
Ntp221
Rp222
(dp223
g13
I01
sg14
F-4.0892274747604125
sg15
g220
sbs(I773
I3
tp224
g0
(g9
g2
Ntp225
Rp226
(dp227
g13
I01
sg14
F-1.084289888753408
sg15
g224
sbs(I-2
I780
tp228
g0
(g9
g2
Ntp229
Rp230
(dp231
g13
I01
sg14
F-1.771837333562743
sg15
g228
sbs(I775
I0
tp232
g0
(g9
g2
Ntp233
Rp234
(dp235
g13
I01
sg14
F2.9700233399852434
sg15
g232
sbs(I780
I0
tp236
g0
(g9
g2
Ntp237
Rp238
(dp239
g13
I01
sg14
F0.7689223414621611
sg15
g236
sbs(I-3
I777
tp240
g0
(g9
g2
Ntp241
Rp242
(dp243
g13
I01
sg14
F-2.47193528308913
sg15
g240
sbs(I-18
I781
tp244
g0
(g9
g2
Ntp245
Rp246
(dp247
g13
I01
sg14
F1.7800448079848317
sg15
g244
sbs(I-20
I773
tp248
g0
(g9
g2
Ntp249
Rp250
(dp251
g13
I01
sg14
F0.6769721650244419
sg15
g248
sbs(I-13
I783
tp252
g0
(g9
g2
Ntp253
Rp254
(dp255
g13
I01
sg14
F1.1546349574844523
sg15
g252
sbs(I-20
I776
tp256
g0
(g9
g2
Ntp257
Rp258
(dp259
g13
I01
sg14
F0.6268808688948515
sg15
g256
sbs(I-8
I781
tp260
g0
(g9
g2
Ntp261
Rp262
(dp263
g13
I01
sg14
F1.4910212676567416
sg15
g260
sbs(I-11
I784
tp264
g0
(g9
g2
Ntp265
Rp266
(dp267
g13
I01
sg14
F-0.839240797229846
sg15
g264
sbs(I-12
I776
tp268
g0
(g9
g2
Ntp269
Rp270
(dp271
g13
I01
sg14
F-1.0103592960326457
sg15
g268
sbs(I-6
I784
tp272
g0
(g9
g2
Ntp273
Rp274
(dp275
g13
I01
sg14
F-2.94341555694256
sg15
g272
sbs(I-7
I776
tp276
g0
(g9
g2
Ntp277
Rp278
(dp279
g13
I01
sg14
F0.2505458698470914
sg15
g276
sbs(I-17
I773
tp280
g0
(g9
g2
Ntp281
Rp282
(dp283
g13
I01
sg14
F1.9713918967828963
sg15
g280
sbs(I-11
I781
tp284
g0
(g9
g2
Ntp285
Rp286
(dp287
g13
I01
sg14
F-0.693127766996145
sg15
g284
sbs(I776
I4
tp288
g0
(g9
g2
Ntp289
Rp290
(dp291
g13
I01
sg14
F-2.9767529245855093
sg15
g288
sbs(I-6
I783
tp292
g0
(g9
g2
Ntp293
Rp294
(dp295
g13
I01
sg14
F1.7099278075161182
sg15
g292
sbs(I-1
I773
tp296
g0
(g9
g2
Ntp297
Rp298
(dp299
g13
I01
sg14
F0.3105116507152538
sg15
g296
sbs(I-5
I782
tp300
g0
(g9
g2
Ntp301
Rp302
(dp303
g13
I01
sg14
F-0.984374554190707
sg15
g300
sbs(I-9
I779
tp304
g0
(g9
g2
Ntp305
Rp306
(dp307
g13
I01
sg14
F-0.13749373161488154
sg15
g304
sbs(I-1
I777
tp308
g0
(g9
g2
Ntp309
Rp310
(dp311
g13
I01
sg14
F1.5167556904538304
sg15
g308
sbs(I-4
I777
tp312
g0
(g9
g2
Ntp313
Rp314
(dp315
g13
I01
sg14
F1.1679987463792338
sg15
g312
sbs(I784
I2
tp316
g0
(g9
g2
Ntp317
Rp318
(dp319
g13
I01
sg14
F1.5994340446140765
sg15
g316
sbs(I-3
I780
tp320
g0
(g9
g2
Ntp321
Rp322
(dp323
g13
I01
sg14
F-1.1215787240189905
sg15
g320
sbs(I782
I0
tp324
g0
(g9
g2
Ntp325
Rp326
(dp327
g13
I01
sg14
F1.6727221914921646
sg15
g324
sbs(I-16
I783
tp328
g0
(g9
g2
Ntp329
Rp330
(dp331
g13
I01
sg14
F-0.5960413935841219
sg15
g328
sbs(I-18
I782
tp332
g0
(g9
g2
Ntp333
Rp334
(dp335
g13
I01
sg14
F-2.586185617693695
sg15
g332
sbs(I-20
I778
tp336
g0
(g9
g2
Ntp337
Rp338
(dp339
g13
I01
sg14
F-0.3494700938119284
sg15
g336
sbs(I-13
I778
tp340
g0
(g9
g2
Ntp341
Rp342
(dp343
g13
I01
sg14
F0.596021186064219
sg15
g340
sbs(I784
I1
tp344
g0
(g9
g2
Ntp345
Rp346
(dp347
g13
I01
sg14
F-0.1557066308048753
sg15
g344
sbs(I-15
I782
tp348
g0
(g9
g2
Ntp349
Rp350
(dp351
g13
I01
sg14
F-1.4267404341051164
sg15
g348
sbs(I-8
I778
tp352
g0
(g9
g2
Ntp353
Rp354
(dp355
g13
I01
sg14
F0.04173997703272017
sg15
g352
sbs(I-19
I779
tp356
g0
(g9
g2
Ntp357
Rp358
(dp359
g13
I01
sg14
F-0.6816162738761091
sg15
g356
sbs(I-12
I781
tp360
g0
(g9
g2
Ntp361
Rp362
(dp363
g13
I01
sg14
F-1.8253365188573356
sg15
g360
sbs(I-14
I781
tp364
g0
(g9
g2
Ntp365
Rp366
(dp367
g13
I01
sg14
F-1.0280573459543558
sg15
g364
sbs(I-7
I779
tp368
g0
(g9
g2
Ntp369
Rp370
(dp371
g13
I01
sg14
F0.5870625910521337
sg15
g368
sbs(I-9
I784
tp372
g0
(g9
g2
Ntp373
Rp374
(dp375
g13
I01
sg14
F-2.5250271767003647
sg15
g372
sbs(I-4
I784
tp376
g0
(g9
g2
Ntp377
Rp378
(dp379
g13
I01
sg14
F-1.4905731805296336
sg15
g376
sbs(I776
I1
tp380
g0
(g9
g2
Ntp381
Rp382
(dp383
g13
I01
sg14
F-0.08243522191207697
sg15
g380
sbs(I775
I1
tp384
g0
(g9
g2
Ntp385
Rp386
(dp387
g13
I01
sg14
F-0.21249851660466293
sg15
g384
sbs(I-10
I783
tp388
g0
(g9
g2
Ntp389
Rp390
(dp391
g13
I01
sg14
F1.6960866716033987
sg15
g388
sbs(I-9
I774
tp392
g0
(g9
g2
Ntp393
Rp394
(dp395
g13
I01
sg14
F-0.9766094452727232
sg15
g392
sbs(I-5
I781
tp396
g0
(g9
g2
Ntp397
Rp398
(dp399
g13
I01
sg14
F-0.47530188889798275
sg15
g396
sbs(I774
I3
tp400
g0
(g9
g2
Ntp401
Rp402
(dp403
g13
I01
sg14
F-1.7491372096758664
sg15
g400
sbs(I-9
I782
tp404
g0
(g9
g2
Ntp405
Rp406
(dp407
g13
I01
sg14
F-2.1277595477170776
sg15
g404
sbs(I-1
I778
tp408
g0
(g9
g2
Ntp409
Rp410
(dp411
g13
I01
sg14
F1.0170729808789907
sg15
g408
sbs(I-4
I782
tp412
g0
(g9
g2
Ntp413
Rp414
(dp415
g13
I01
sg14
F-1.5771283910498557
sg15
g412
sbs(I-17
I776
tp416
g0
(g9
g2
Ntp417
Rp418
(dp419
g13
I01
sg14
F2.1742545886943505
sg15
g416
sbs(I-3
I783
tp420
g0
(g9
g2
Ntp421
Rp422
(dp423
g13
I01
sg14
F-1.4078707112212077
sg15
g420
sbs(I779
I4
tp424
g0
(g9
g2
Ntp425
Rp426
(dp427
g13
I01
sg14
F-0.09456339268540856
sg15
g424
sbs(I-16
I780
tp428
g0
(g9
g2
Ntp429
Rp430
(dp431
g13
I01
sg14
F-1.0696161007321292
sg15
g428
sbs(I-18
I779
tp432
g0
(g9
g2
Ntp433
Rp434
(dp435
g13
I01
sg14
F-0.28112088682971803
sg15
g432
sbs(I-20
I783
tp436
g0
(g9
g2
Ntp437
Rp438
(dp439
g13
I01
sg14
F-1.1942928698307453
sg15
g436
sbs(I-13
I777
tp440
g0
(g9
g2
Ntp441
Rp442
(dp443
g13
I01
sg14
F-0.6575323258128235
sg15
g440
sbs(I-15
I777
tp444
g0
(g9
g2
Ntp445
Rp446
(dp447
g13
I01
sg14
F2.1781440313828027
sg15
g444
sbs(I-8
I775
tp448
g0
(g9
g2
Ntp449
Rp450
(dp451
g13
I01
sg14
F-2.618449962112033
sg15
g448
sbs(I-19
I782
tp452
g0
(g9
g2
Ntp453
Rp454
(dp455
g13
I01
sg14
F-0.5042627070699905
sg15
g452
sbs(I779
I3
tp456
g0
(g9
g2
Ntp457
Rp458
(dp459
g13
I01
sg14
F-0.19823825453469207
sg15
g456
sbs(I-14
I782
tp460
g0
(g9
g2
Ntp461
Rp462
(dp463
g13
I01
sg14
F-0.20896332558709196
sg15
g460
sbs(I-7
I774
tp464
g0
(g9
g2
Ntp465
Rp466
(dp467
g13
I01
sg14
F-0.5908619484417532
sg15
g464
sbs(I-10
I773
tp468
g0
(g9
g2
Ntp469
Rp470
(dp471
g13
I01
sg14
F-0.9881003384625239
sg15
g468
sbs(I-5
I775
tp472
g0
(g9
g2
Ntp473
Rp474
(dp475
g13
I01
sg14
F0.14795700857905353
sg15
g472
sbs(I-6
I773
tp476
g0
(g9
g2
Ntp477
Rp478
(dp479
g13
I01
sg14
F1.159204728705088
sg15
g476
sbs(I-10
I776
tp480
g0
(g9
g2
Ntp481
Rp482
(dp483
g13
I01
sg14
F0.835826617405321
sg15
g480
sbs(I778
I1
tp484
g0
(g9
g2
Ntp485
Rp486
(dp487
g13
I01
sg14
F0.6887480355190451
sg15
g484
sbs(I-14
I776
tp488
g0
(g9
g2
Ntp489
Rp490
(dp491
g13
I01
sg14
F-1.2690371079021325
sg15
g488
sbs(I-5
I776
tp492
g0
(g9
g2
Ntp493
Rp494
(dp495
g13
I01
sg14
F1.715013695307804
sg15
g492
sbs(I-9
I781
tp496
g0
(g9
g2
Ntp497
Rp498
(dp499
g13
I01
sg14
F2.8083303543341374
sg15
g496
sbs(I-1
I775
tp500
g0
(g9
g2
Ntp501
Rp502
(dp503
g13
I01
sg14
F1.085816100549823
sg15
g500
sbs(I-3
I773
tp504
g0
(g9
g2
Ntp505
Rp506
(dp507
g13
I01
sg14
F0.6061344926606873
sg15
g504
sbs(I781
I2
tp508
g0
(g9
g2
Ntp509
Rp510
(dp511
g13
I01
sg14
F-1.8307479671748814
sg15
g508
sbs(I-16
I774
tp512
g0
(g9
g2
Ntp513
Rp514
(dp515
g13
I01
sg14
F-1.336978893244964
sg15
g512
sbs(I783
I2
tp516
g0
(g9
g2
Ntp517
Rp518
(dp519
g13
I01
sg14
F-0.20561157024749188
sg15
g516
sbs(I-15
I775
tp520
g0
(g9
g2
Ntp521
Rp522
(dp523
g13
I01
sg14
F-0.3596983716048523
sg15
g520
sbs(I-16
I777
tp524
g0
(g9
g2
Ntp525
Rp526
(dp527
g13
I01
sg14
F0.2066424755045471
sg15
g524
sbs(I-2
I782
tp528
g0
(g9
g2
Ntp529
Rp530
(dp531
g13
I01
sg14
F1.073393304209488
sg15
g528
sbs(I-7
I780
tp532
g0
(g9
g2
Ntp533
Rp534
(dp535
g13
I01
sg14
F-0.661151768049469
sg15
g532
sbs(I-11
I777
tp536
g0
(g9
g2
Ntp537
Rp538
(dp539
g13
I01
sg14
F0.5335539110726352
sg15
g536
sbs(I-12
I775
tp540
g0
(g9
g2
Ntp541
Rp542
(dp543
g13
I01
sg14
F0.7953647935445093
sg15
g540
sbs(I-6
I779
tp544
g0
(g9
g2
Ntp545
Rp546
(dp547
g13
I01
sg14
F0.30121809421260226
sg15
g544
sbs(I781
I0
tp548
g0
(g9
g2
Ntp549
Rp550
(dp551
g13
I00
sg14
F2.2397588343499346
sg15
g548
sbs(I-10
I774
tp552
g0
(g9
g2
Ntp553
Rp554
(dp555
g13
I01
sg14
F0.07817337296063301
sg15
g552
sbs(I-11
I774
tp556
g0
(g9
g2
Ntp557
Rp558
(dp559
g13
I01
sg14
F-0.35430920547768135
sg15
g556
sbs(I-6
I774
tp560
g0
(g9
g2
Ntp561
Rp562
(dp563
g13
I01
sg14
F1.1503434059651518
sg15
g560
sbs(I773
I2
tp564
g0
(g9
g2
Ntp565
Rp566
(dp567
g13
I01
sg14
F-1.1530091242144778
sg15
g564
sbs(I-9
I775
tp568
g0
(g9
g2
Ntp569
Rp570
(dp571
g13
I01
sg14
F0.22717341991040862
sg15
g568
sbs(I-1
I781
tp572
g0
(g9
g2
Ntp573
Rp574
(dp575
g13
I01
sg14
F-1.830688566587221
sg15
g572
sbs(I778
I2
tp576
g0
(g9
g2
Ntp577
Rp578
(dp579
g13
I01
sg14
F-2.2257541000505907
sg15
g576
sbs(I-4
I773
tp580
g0
(g9
g2
Ntp581
Rp582
(dp583
g13
I01
sg14
F1.122631515096015
sg15
g580
sbs(I775
I3
tp584
g0
(g9
g2
Ntp585
Rp586
(dp587
g13
I01
sg14
F-1.80338969974333
sg15
g584
sbs(I780
I1
tp588
g0
(g9
g2
Ntp589
Rp590
(dp591
g13
I01
sg14
F-0.19743867190410236
sg15
g588
sbs(I-3
I776
tp592
g0
(g9
g2
Ntp593
Rp594
(dp595
g13
I01
sg14
F-0.5814858126913357
sg15
g592
sbs(I782
I4
tp596
g0
(g9
g2
Ntp597
Rp598
(dp599
g13
I01
sg14
F-0.4300476313185179
sg15
g596
sbs(I781
I4
tp600
g0
(g9
g2
Ntp601
Rp602
(dp603
g13
I01
sg14
F0.21922771525670703
sg15
g600
sbs(I-17
I777
tp604
g0
(g9
g2
Ntp605
Rp606
(dp607
g13
I01
sg14
F0.6573239517642788
sg15
g604
sbs(I-20
I774
tp608
g0
(g9
g2
Ntp609
Rp610
(dp611
g13
I01
sg14
F-0.6404826934650398
sg15
g608
sbs(I-13
I782
tp612
g0
(g9
g2
Ntp613
Rp614
(dp615
g13
I01
sg14
F0.4003683585056128
sg15
g612
sbs(I783
I1
tp616
g0
(g9
g2
Ntp617
Rp618
(dp619
g13
I01
sg14
F-1.8131750475245672
sg15
g616
sbs(I-8
I782
tp620
g0
(g9
g2
Ntp621
Rp622
(dp623
g13
I01
sg14
F-0.6219666550470571
sg15
g620
sbs(I-19
I775
tp624
g0
(g9
g2
Ntp625
Rp626
(dp627
g13
I01
sg14
F-1.116175778762475
sg15
g624
sbs(I-12
I777
tp628
g0
(g9
g2
Ntp629
Rp630
(dp631
g13
I01
sg14
F-0.03742879183715553
sg15
g628
sbs(I779
I1
tp632
g0
(g9
g2
Ntp633
Rp634
(dp635
g13
I01
sg14
F-0.9124330402965504
sg15
g632
sbs(I-14
I777
tp636
g0
(g9
g2
Ntp637
Rp638
(dp639
g13
I01
sg14
F1.0631836077936978
sg15
g636
sbs(I-7
I783
tp640
g0
(g9
g2
Ntp641
Rp642
(dp643
g13
I01
sg14
F-0.19442804629821847
sg15
g640
sbs(I-17
I775
tp644
g0
(g9
g2
Ntp645
Rp646
(dp647
g13
I01
sg14
F0.13288348688382354
sg15
g644
sbs(I-11
I780
tp648
g0
(g9
g2
Ntp649
Rp650
(dp651
g13
I01
sg14
F-1.080595625220073
sg15
g648
sbs(I-6
I780
tp652
g0
(g9
g2
Ntp653
Rp654
(dp655
g13
I01
sg14
F1.2467734002132278
sg15
g652
sbs(I777
I1
tp656
g0
(g9
g2
Ntp657
Rp658
(dp659
g13
I01
sg14
F0.17723840116199485
sg15
g656
sbs(I777
I0
tp660
g0
(g9
g2
Ntp661
Rp662
(dp663
g13
I01
sg14
F-0.37932989953439156
sg15
g660
sbs(I-9
I778
tp664
g0
(g9
g2
Ntp665
Rp666
(dp667
g13
I01
sg14
F2.009140495784707
sg15
g664
sbs(I-1
I782
tp668
g0
(g9
g2
Ntp669
Rp670
(dp671
g13
I01
sg14
F-1.2282294512784382
sg15
g668
sbs(I-4
I778
tp672
g0
(g9
g2
Ntp673
Rp674
(dp675
g13
I01
sg14
F0.22279931525521046
sg15
g672
sbs(I784
I3
tp676
g0
(g9
g2
Ntp677
Rp678
(dp679
g13
I01
sg14
F0.2990582205353209
sg15
g676
sbs(I-3
I779
tp680
g0
(g9
g2
Ntp681
Rp682
(dp683
g13
I01
sg14
F2.6378989184256025
sg15
g680
sbs(I782
I1
tp684
g0
(g9
g2
Ntp685
Rp686
(dp687
g13
I01
sg14
F0.1993132794419201
sg15
g684
sbs(I-18
I783
tp688
g0
(g9
g2
Ntp689
Rp690
(dp691
g13
I01
sg14
F-0.8843797961736044
sg15
g688
sbs(I-2
I784
tp692
g0
(g9
g2
Ntp693
Rp694
(dp695
g13
I01
sg14
F1.034691109685458
sg15
g692
sbs(I-20
I779
tp696
g0
(g9
g2
Ntp697
Rp698
(dp699
g13
I01
sg14
F-0.5588893423467012
sg15
g696
sbs(I-13
I781
tp700
g0
(g9
g2
Ntp701
Rp702
(dp703
g13
I01
sg14
F1.6199537946632347
sg15
g700
sbs(I783
I4
tp704
g0
(g9
g2
Ntp705
Rp706
(dp707
g13
I01
sg14
F1.8252997157352637
sg15
g704
sbs(I-15
I781
tp708
g0
(g9
g2
Ntp709
Rp710
(dp711
g13
I01
sg14
F-1.9155478287239598
sg15
g708
sbs(I-8
I779
tp712
g0
(g9
g2
Ntp713
Rp714
(dp715
g13
I01
sg14
F0.8771284500513425
sg15
g712
sbs(I-19
I778
tp716
g0
(g9
g2
Ntp717
Rp718
(dp719
g13
I01
sg14
F-0.3350725502633405
sg15
g716
sbs(I779
I2
tp720
g0
(g9
g2
Ntp721
Rp722
(dp723
g13
I01
sg14
F0.4648045438460023
sg15
g720
sbs(I-14
I778
tp724
g0
(g9
g2
Ntp725
Rp726
(dp727
g13
I01
sg14
F2.4367753538502557
sg15
g724
sbs(I-7
I778
tp728
g0
(g9
g2
Ntp729
Rp730
(dp731
g13
I01
sg14
F-1.6694424331478104
sg15
g728
sbs(I-11
I783
tp732
g0
(g9
g2
Ntp733
Rp734
(dp735
g13
I01
sg14
F-0.21830193307998197
sg15
g732
sbs(I776
I2
tp736
g0
(g9
g2
Ntp737
Rp738
(dp739
g13
I01
sg14
F1.8692034369684707
sg15
g736
sbs(I781
I1
tp740
g0
(g9
g2
Ntp741
Rp742
(dp743
g13
I01
sg14
F0.23558803316596094
sg15
g740
sbs(I-10
I780
tp744
g0
(g9
g2
Ntp745
Rp746
(dp747
g13
I01
sg14
F0.8199375280611314
sg15
g744
sbs(I777
I3
tp748
g0
(g9
g2
Ntp749
Rp750
(dp751
g13
I01
sg14
F-0.8928923590614617
sg15
g748
sbs(I-5
I780
tp752
g0
(g9
g2
Ntp753
Rp754
(dp755
g13
I01
sg14
F-0.21395988275634809
sg15
g752
sbs(I774
I0
tp756
g0
(g9
g2
Ntp757
Rp758
(dp759
g13
I01
sg14
F-2.030488468691845
sg15
g756
sbs(I-9
I777
tp760
g0
(g9
g2
Ntp761
Rp762
(dp763
g13
I01
sg14
F-1.3972760607519927
sg15
g760
sbs(I-2
I779
tp764
g0
(g9
g2
Ntp765
Rp766
(dp767
g13
I01
sg14
F1.5182664269992199
sg15
g764
sbs(I-2
I781
tp768
g0
(g9
g2
Ntp769
Rp770
(dp771
g13
I01
sg14
F-1.4398171205936112
sg15
g768
sbs(I-4
I783
tp772
g0
(g9
g2
Ntp773
Rp774
(dp775
g13
I01
sg14
F-0.93989711188363
sg15
g772
sbs(I784
I0
tp776
g0
(g9
g2
Ntp777
Rp778
(dp779
g13
I01
sg14
F0.8715749745366321
sg15
g776
sbs(I-19
I784
tp780
g0
(g9
g2
Ntp781
Rp782
(dp783
g13
I01
sg14
F1.932461564792046
sg15
g780
sbs(I-3
I782
tp784
g0
(g9
g2
Ntp785
Rp786
(dp787
g13
I01
sg14
F-1.6788731630676943
sg15
g784
sbs(I782
I2
tp788
g0
(g9
g2
Ntp789
Rp790
(dp791
g13
I01
sg14
F-0.17901452079661057
sg15
g788
sbs(I-16
I781
tp792
g0
(g9
g2
Ntp793
Rp794
(dp795
g13
I01
sg14
F-1.5008191521346035
sg15
g792
sbs(I-18
I776
tp796
g0
(g9
g2
Ntp797
Rp798
(dp799
g13
I01
sg14
F0.29352212415019135
sg15
g796
sbs(I-12
I784
tp800
g0
(g9
g2
Ntp801
Rp802
(dp803
g13
I00
sg14
F0.2832896408442396
sg15
g800
sbs(I-13
I776
tp804
g0
(g9
g2
Ntp805
Rp806
(dp807
g13
I01
sg14
F-2.5083381686351034
sg15
g804
sbs(I-7
I784
tp808
g0
(g9
g2
Ntp809
Rp810
(dp811
g13
I01
sg14
F-1.2761115051120855
sg15
g808
sbs(I-17
I781
tp812
g0
(g9
g2
Ntp813
Rp814
(dp815
g13
I01
sg14
F0.8513445795515985
sg15
g812
sbs(I-19
I781
tp816
g0
(g9
g2
Ntp817
Rp818
(dp819
g13
I01
sg14
F0.9339936297626732
sg15
g816
sbs(I-14
I784
tp820
g0
(g9
g2
Ntp821
Rp822
(dp823
g13
I01
sg14
F1.9828380487546062
sg15
g820
sbs(I-17
I784
tp824
g0
(g9
g2
Ntp825
Rp826
(dp827
g13
I01
sg14
F1.7710240666817665
sg15
g824
sbs(I-7
I773
tp828
g0
(g9
g2
Ntp829
Rp830
(dp831
g13
I01
sg14
F-0.08093631555849534
sg15
g828
sbs(I-5
I774
tp832
g0
(g9
g2
Ntp833
Rp834
(dp835
g13
I01
sg14
F-0.9541867977365158
sg15
g832
sbs(I-12
I782
tp836
g0
(g9
g2
Ntp837
Rp838
(dp839
g13
I01
sg14
F0.09912334437726437
sg15
g836
sbs(I-10
I777
tp840
g0
(g9
g2
Ntp841
Rp842
(dp843
g13
I01
sg14
F0.9060984451216346
sg15
g840
sbs(I-5
I779
tp844
g0
(g9
g2
Ntp845
Rp846
(dp847
g13
I01
sg14
F-1.2090244098261373
sg15
g844
sbs(I-9
I780
tp848
g0
(g9
g2
Ntp849
Rp850
(dp851
g13
I01
sg14
F-0.2762622914187564
sg15
g848
sbs(I-1
I774
tp852
g0
(g9
g2
Ntp853
Rp854
(dp855
g13
I01
sg14
F-0.2780513302741738
sg15
g852
sbs(I-16
I775
tp856
g0
(g9
g2
Ntp857
Rp858
(dp859
g13
I01
sg14
F1.9713599689509969
sg15
g856
sbs(I-11
I773
tp860
g0
(g9
g2
Ntp861
Rp862
(dp863
g13
I01
sg14
F-0.25320427480259633
sg15
g860
sbs(I-20
I780
tp864
g0
(g9
g2
Ntp865
Rp866
(dp867
g13
I01
sg14
F-1.3414696656104221
sg15
g864
sbs(I-15
I774
tp868
g0
(g9
g2
Ntp869
Rp870
(dp871
g13
I01
sg14
F-0.12804735402681733
sg15
g868
sbs(I-16
I778
tp872
g0
(g9
g2
Ntp873
Rp874
(dp875
g13
I01
sg14
F-1.4778019734361256
sg15
g872
sbs(I-18
I773
tp876
g0
(g9
g2
Ntp877
Rp878
(dp879
g13
I01
sg14
F-0.7897939877876631
sg15
g876
sbs(I-20
I781
tp880
g0
(g9
g2
Ntp881
Rp882
(dp883
g13
I01
sg14
F1.9798548322511063
sg15
g880
sbs(I-13
I775
tp884
g0
(g9
g2
Ntp885
Rp886
(dp887
g13
I01
sg14
F0.9517554305005574
sg15
g884
sbs(I-14
I773
tp888
g0
(g9
g2
Ntp889
Rp890
(dp891
g13
I01
sg14
F-0.7967975819014835
sg15
g888
sbs(I-15
I779
tp892
g0
(g9
g2
Ntp893
Rp894
(dp895
g13
I01
sg14
F0.6370420111865635
sg15
g892
sbs(I-8
I773
tp896
g0
(g9
g2
Ntp897
Rp898
(dp899
g13
I01
sg14
F-0.11614060519611857
sg15
g896
sbs(I-10
I784
tp900
g0
(g9
g2
Ntp901
Rp902
(dp903
g13
I01
sg14
F-0.12949055983551205
sg15
g900
sbs(I-11
I776
tp904
g0
(g9
g2
Ntp905
Rp906
(dp907
g13
I01
sg14
F-0.5038942329862341
sg15
g904
sbs(I-1
I776
tp908
g0
(g9
g2
Ntp909
Rp910
(dp911
g13
I01
sg14
F-0.10719099337901607
sg15
g908
sbs(I-5
I784
tp912
g0
(g9
g2
Ntp913
Rp914
(dp915
g13
I01
sg14
F-1.280995000932173
sg15
g912
sbs(I-6
I776
tp916
g0
(g9
g2
Ntp917
Rp918
(dp919
g13
I00
sg14
F0.389024797274104
sg15
g916
sbs(I-8
I784
tp920
g0
(g9
g2
Ntp921
Rp922
(dp923
g13
I01
sg14
F-1.6229834350285344
sg15
g920
sbs(I-10
I775
tp924
g0
(g9
g2
Ntp925
Rp926
(dp927
g13
I01
sg14
F0.9697052229907029
sg15
g924
sbs(I-1
I784
tp928
g0
(g9
g2
Ntp929
Rp930
(dp931
g13
I01
sg14
F1.9156114334928072
sg15
g928
sbs(I777
I4
tp932
g0
(g9
g2
Ntp933
Rp934
(dp935
g13
I01
sg14
F0.14004176286333225
sg15
g932
sbs(I-5
I773
tp936
g0
(g9
g2
Ntp937
Rp938
(dp939
g13
I01
sg14
F1.7823941865400998
sg15
g936
sbs(I-6
I775
tp940
g0
(g9
g2
Ntp941
Rp942
(dp943
g13
I01
sg14
F-0.11305133895250558
sg15
g940
sbs(I773
I1
tp944
g0
(g9
g2
Ntp945
Rp946
(dp947
g13
I01
sg14
F-2.1374526892161736
sg15
g944
sbs(I-19
I776
tp948
g0
(g9
g2
Ntp949
Rp950
(dp951
g13
I01
sg14
F-0.767188262164753
sg15
g948
sbs(I-10
I778
tp952
g0
(g9
g2
Ntp953
Rp954
(dp955
g13
I01
sg14
F-1.7667938403911823
sg15
g952
sbs(I-17
I779
tp956
g0
(g9
g2
Ntp957
Rp958
(dp959
g13
I01
sg14
F1.8003398762409668
sg15
g956
sbs(I-4
I774
tp960
g0
(g9
g2
Ntp961
Rp962
(dp963
g13
I01
sg14
F-0.8132301405076985
sg15
g960
sbs(I775
I2
tp964
g0
(g9
g2
Ntp965
Rp966
(dp967
g13
I01
sg14
F0.3037104648103732
sg15
g964
sbs(I779
I0
tp968
g0
(g9
g2
Ntp969
Rp970
(dp971
g13
I01
sg14
F-0.5025671812927865
sg15
g968
sbs(I780
I2
tp972
g0
(g9
g2
Ntp973
Rp974
(dp975
g13
I01
sg14
F-0.10326962427028069
sg15
g972
sbs(I-3
I775
tp976
g0
(g9
g2
Ntp977
Rp978
(dp979
g13
I01
sg14
F0.5929119934311782
sg15
g976
sbs(I781
I3
tp980
g0
(g9
g2
Ntp981
Rp982
(dp983
g13
I01
sg14
F-0.0390420643712846
sg15
g980
sbs(I778
I3
tp984
g0
(g9
g2
Ntp985
Rp986
(dp987
g13
I01
sg14
F-1.9157054138348326
sg15
g984
sbs(I-20
I775
tp988
g0
(g9
g2
Ntp989
Rp990
(dp991
g13
I01
sg14
F1.0347844455077184
sg15
g988
sbs(I783
I0
tp992
g0
(g9
g2
Ntp993
Rp994
(dp995
g13
I01
sg14
F0.4303822642863933
sg15
g992
sbs(I-17
I783
tp996
g0
(g9
g2
Ntp997
Rp998
(dp999
g13
I01
sg14
F-0.816929743280402
sg15
g996
sbs(I-19
I774
tp1000
g0
(g9
g2
Ntp1001
Rp1002
(dp1003
g13
I01
sg14
F1.6833323732285708
sg15
g1000
sbs(I-12
I778
tp1004
g0
(g9
g2
Ntp1005
Rp1006
(dp1007
g13
I01
sg14
F-0.83281968485195
sg15
g1004
sbs(I-14
I774
tp1008
g0
(g9
g2
Ntp1009
Rp1010
(dp1011
g13
I01
sg14
F-1.3253743154798698
sg15
g1008
sbs(I-7
I782
tp1012
g0
(g9
g2
Ntp1013
Rp1014
(dp1015
g13
I01
sg14
F-0.7988027613134718
sg15
g1012
sbs(I-15
I784
tp1016
g0
(g9
g2
Ntp1017
Rp1018
(dp1019
g13
I01
sg14
F0.253396043555665
sg15
g1016
sbs(I-11
I779
tp1020
g0
(g9
g2
Ntp1021
Rp1022
(dp1023
g13
I01
sg14
F-1.2213284676726592
sg15
g1020
sbs(I-12
I773
tp1024
g0
(g9
g2
Ntp1025
Rp1026
(dp1027
g13
I01
sg14
F0.7105159640011779
sg15
g1024
sbs(I-6
I781
tp1028
g0
(g9
g2
Ntp1029
Rp1030
(dp1031
g13
I01
sg14
F-2.1603761778894364
sg15
g1028
sbs(I-20
I784
tp1032
g0
(g9
g2
Ntp1033
Rp1034
(dp1035
g13
I01
sg14
F1.3354547922534334
sg15
g1032
sbs(I-3
I784
tp1036
g0
(g9
g2
Ntp1037
Rp1038
(dp1039
g13
I01
sg14
F2.513390796186126
sg15
g1036
sbs(I774
I4
tp1040
g0
(g9
g2
Ntp1041
Rp1042
(dp1043
g13
I01
sg14
F-0.226218323672423
sg15
g1040
sbs(I773
I4
tp1044
g0
(g9
g2
Ntp1045
Rp1046
(dp1047
g13
I01
sg14
F0.16385348429396263
sg15
g1044
sbs(I-9
I773
tp1048
g0
(g9
g2
Ntp1049
Rp1050
(dp1051
g13
I01
sg14
F0.06836277547704626
sg15
g1048
sbs(I-2
I783
tp1052
g0
(g9
g2
Ntp1053
Rp1054
(dp1055
g13
I01
sg14
F-0.25258721283768354
sg15
g1052
sbs(I778
I4
tp1056
g0
(g9
g2
Ntp1057
Rp1058
(dp1059
g13
I01
sg14
F0.634871752191676
sg15
g1056
sbs(I-4
I779
tp1060
g0
(g9
g2
Ntp1061
Rp1062
(dp1063
g13
I01
sg14
F-2.286246281133307
sg15
g1060
sbs(I784
I4
tp1064
g0
(g9
g2
Ntp1065
Rp1066
(dp1067
g13
I01
sg14
F-1.6835881411320197
sg15
g1064
sbs(I-3
I778
tp1068
g0
(g9
g2
Ntp1069
Rp1070
(dp1071
g13
I01
sg14
F-0.9250120575335954
sg15
g1068
sbs(I-19
I773
tp1072
g0
(g9
g2
Ntp1073
Rp1074
(dp1075
g13
I01
sg14
F-0.30200655089399364
sg15
g1072
sbs(I-18
I780
tp1076
g0
(g9
g2
Ntp1077
Rp1078
(dp1079
g13
I01
sg14
F1.6517732231922924
sg15
g1076
sbs(I-13
I780
tp1080
g0
(g9
g2
Ntp1081
Rp1082
(dp1083
g13
I01
sg14
F-1.3959125468037703
sg15
g1080
sbs(I-15
I780
tp1084
g0
(g9
g2
Ntp1085
Rp1086
(dp1087
g13
I01
sg14
F-1.94609047033408
sg15
g1084
sbs(I-8
I780
tp1088
g0
(g9
g2
Ntp1089
Rp1090
(dp1091
g13
I01
sg14
F0.6425591952130713
sg15
g1088
sbs(I-19
I777
tp1092
g0
(g9
g2
Ntp1093
Rp1094
(dp1095
g13
I01
sg14
F-1.2530617009875311
sg15
g1092
sbs(I-12
I783
tp1096
g0
(g9
g2
Ntp1097
Rp1098
(dp1099
g13
I01
sg14
F0.07629555242064541
sg15
g1096
sbs(I-14
I779
tp1100
g0
(g9
g2
Ntp1101
Rp1102
(dp1103
g13
I01
sg14
F0.3706295159577647
sg15
g1100
sbs(I-7
I777
tp1104
g0
(g9
g2
Ntp1105
Rp1106
(dp1107
g13
I01
sg14
F0.12671834220504063
sg15
g1104
sbs(I-11
I782
tp1108
g0
(g9
g2
Ntp1109
Rp1110
(dp1111
g13
I01
sg14
F1.7367051942269227
sg15
g1108
sbs(I-1
I779
tp1112
g0
(g9
g2
Ntp1113
Rp1114
(dp1115
g13
I01
sg14
F2.3843207829715602
sg15
g1112
sbs(I776
I3
tp1116
g0
(g9
g2
Ntp1117
Rp1118
(dp1119
g13
I01
sg14
F-0.8800689090313433
sg15
g1116
sbs(I-6
I782
tp1120
g0
(g9
g2
Ntp1121
Rp1122
(dp1123
g13
I01
sg14
F-0.48721757059414
sg15
g1120
sbs(I-2
I775
tp1124
g0
(g9
g2
Ntp1125
Rp1126
(dp1127
g13
I01
sg14
F-1.7925472965332967
sg15
g1124
sbs(I-10
I781
tp1128
g0
(g9
g2
Ntp1129
Rp1130
(dp1131
g13
I01
sg14
F0.1415894730335996
sg15
g1128
sbs(I777
I2
tp1132
g0
(g9
g2
Ntp1133
Rp1134
(dp1135
g13
I01
sg14
F-0.08234789125551728
sg15
g1132
sbs(I-5
I783
tp1136
g0
(g9
g2
Ntp1137
Rp1138
(dp1139
g13
I01
sg14
F-1.0725297237001927
sg15
g1136
sbs(I774
I1
tp1140
g0
(g9
g2
Ntp1141
Rp1142
(dp1143
g13
I01
sg14
F0.019577647313185106
sg15
g1140
sbs(I-16
I784
tp1144
g0
(g9
g2
Ntp1145
Rp1146
(dp1147
g13
I01
sg14
F-1.2932844877786942
sg15
g1144
sbs(I-9
I776
tp1148
g0
(g9
g2
Ntp1149
Rp1150
(dp1151
g13
I01
sg14
F0.5360536385426028
sg15
g1148
sbs(I-2
I776
tp1152
g0
(g9
g2
Ntp1153
Rp1154
(dp1155
g13
I01
sg14
F1.831648503941454
sg15
g1152
sbs(I-4
I776
tp1156
g0
(g9
g2
Ntp1157
Rp1158
(dp1159
g13
I01
sg14
F1.5706245631473328
sg15
g1156
sbs(I775
I4
tp1160
g0
(g9
g2
Ntp1161
Rp1162
(dp1163
g13
I01
sg14
F-1.966270684212942
sg15
g1160
sbs(I-2
I777
tp1164
g0
(g9
g2
Ntp1165
Rp1166
(dp1167
g13
I01
sg14
F-0.4089731467311316
sg15
g1164
sbs(I780
I4
tp1168
g0
(g9
g2
Ntp1169
Rp1170
(dp1171
g13
I01
sg14
F0.6887331522235125
sg15
g1168
sbs(I-3
I781
tp1172
g0
(g9
g2
Ntp1173
Rp1174
(dp1175
g13
I01
sg14
F-0.20345691614730332
sg15
g1172
sbs(I782
I3
tp1176
g0
(g9
g2
Ntp1177
Rp1178
(dp1179
g13
I01
sg14
F-0.8510909514819208
sg15
g1176
sbs(I-16
I782
tp1180
g0
(g9
g2
Ntp1181
Rp1182
(dp1183
g13
I01
sg14
F0.3895620815923866
sg15
g1180
sbs(I-18
I777
tp1184
g0
(g9
g2
Ntp1185
Rp1186
(dp1187
g13
I01
sg14
F-1.5395387635092588
sg15
g1184
sbs(I-17
I782
tp1188
g0
(g9
g2
Ntp1189
Rp1190
(dp1191
g13
I01
sg14
F-0.7574753873378222
sg15
g1188
sbs(I-20
I777
tp1192
g0
(g9
g2
Ntp1193
Rp1194
(dp1195
g13
I01
sg14
F0.21271074177290195
sg15
g1192
sbs(I-13
I779
tp1196
g0
(g9
g2
Ntp1197
Rp1198
(dp1199
g13
I01
sg14
F2.969356954617787
sg15
g1196
sbs(I-15
I783
tp1200
g0
(g9
g2
Ntp1201
Rp1202
(dp1203
g13
I01
sg14
F0.0293704142591395
sg15
g1200
sbssS'nodes'
p1204
(dp1205
I0
g0
(cneat.genes
DefaultNodeGene
p1206
g2
Ntp1207
Rp1208
(dp1209
S'activation'
p1210
S'tanh'
p1211
sS'bias'
p1212
F2.7591315510112016
sS'response'
p1213
F1.0
sg15
I0
sS'aggregation'
p1214
S'sum'
p1215
sbsI1
g0
(g1206
g2
Ntp1216
Rp1217
(dp1218
g1210
g1211
sg1212
F0.5274965233565699
sg1213
F1.0
sg15
I1
sg1214
g1215
sbsI2
g0
(g1206
g2
Ntp1219
Rp1220
(dp1221
g1210
g1211
sg1212
F0.5512434440398795
sg1213
F1.0
sg15
I2
sg1214
g1215
sbsI3
g0
(g1206
g2
Ntp1222
Rp1223
(dp1224
g1210
g1211
sg1212
F0.3140642991964842
sg1213
F1.0
sg15
I3
sg1214
g1215
sbsI4
g0
(g1206
g2
Ntp1225
Rp1226
(dp1227
g1210
g1211
sg1212
F1.4938078029414361
sg1213
F1.0
sg15
I4
sg1214
g1215
sbsI773
g0
(g1206
g2
Ntp1228
Rp1229
(dp1230
g1210
g1211
sg1212
F1.144726442635218
sg1213
F1.0
sg15
I773
sg1214
g1215
sbsI774
g0
(g1206
g2
Ntp1231
Rp1232
(dp1233
g1210
g1211
sg1212
F-0.4098496304536192
sg1213
F1.0
sg15
I774
sg1214
g1215
sbsI775
g0
(g1206
g2
Ntp1234
Rp1235
(dp1236
g1210
g1211
sg1212
F-1.0879128444409336
sg1213
F1.0
sg15
I775
sg1214
g1215
sbsI776
g0
(g1206
g2
Ntp1237
Rp1238
(dp1239
g1210
g1211
sg1212
F1.0879545448216223
sg1213
F1.0
sg15
I776
sg1214
g1215
sbsI777
g0
(g1206
g2
Ntp1240
Rp1241
(dp1242
g1210
g1211
sg1212
F-0.12791368228446076
sg1213
F1.0
sg15
I777
sg1214
g1215
sbsI778
g0
(g1206
g2
Ntp1243
Rp1244
(dp1245
g1210
g1211
sg1212
F0.9827204819548014
sg1213
F1.0
sg15
I778
sg1214
g1215
sbsI779
g0
(g1206
g2
Ntp1246
Rp1247
(dp1248
g1210
g1211
sg1212
F-0.871441390874483
sg1213
F1.0
sg15
I779
sg1214
g1215
sbsI780
g0
(g1206
g2
Ntp1249
Rp1250
(dp1251
g1210
g1211
sg1212
F-1.3251064246763802
sg1213
F1.0
sg15
I780
sg1214
g1215
sbsI781
g0
(g1206
g2
Ntp1252
Rp1253
(dp1254
g1210
g1211
sg1212
F0.9112286817528567
sg1213
F1.0
sg15
I781
sg1214
g1215
sbsI782
g0
(g1206
g2
Ntp1255
Rp1256
(dp1257
g1210
g1211
sg1212
F0.29765973408442936
sg1213
F1.0
sg15
I782
sg1214
g1215
sbsI783
g0
(g1206
g2
Ntp1258
Rp1259
(dp1260
g1210
g1211
sg1212
F1.3317260338480563
sg1213
F1.0
sg15
I783
sg1214
g1215
sbsI784
g0
(g1206
g2
Ntp1261
Rp1262
(dp1263
g1210
g1211
sg1212
F-1.2581977746065045
sg1213
F1.0
sg15
I784
sg1214
g1215
sbssg15
I201
sS'fitness'
p1264
F82.0
sb.