ccopy_reg
_reconstructor
p0
(cneat.genome
DefaultGenome
p1
c__builtin__
object
p2
Ntp3
Rp4
(dp5
S'connections'
p6
(dp7
(I-1
I0
tp8
g0
(cneat.genes
DefaultConnectionGene
p9
g2
Ntp10
Rp11
(dp12
S'enabled'
p13
I01
sS'weight'
p14
F-0.4619018890770619
sS'key'
p15
g8
sbs(I-16
I3
tp16
g0
(g9
g2
Ntp17
Rp18
(dp19
g13
I00
sg14
F0.3040081450447696
sg15
g16
sbs(I-15
I2
tp20
g0
(g9
g2
Ntp21
Rp22
(dp23
g13
I01
sg14
F5.589042908384269
sg15
g20
sbs(I-18
I1
tp24
g0
(g9
g2
Ntp25
Rp26
(dp27
g13
I01
sg14
F1.5339084431032355
sg15
g24
sbs(I-13
I3
tp28
g0
(g9
g2
Ntp29
Rp30
(dp31
g13
I00
sg14
F0.4250319987535449
sg15
g28
sbs(I-8
I1
tp32
g0
(g9
g2
Ntp33
Rp34
(dp35
g13
I01
sg14
F-0.2837678629226391
sg15
g32
sbs(I-12
I4
tp36
g0
(g9
g2
Ntp37
Rp38
(dp39
g13
I01
sg14
F1.9663069794648986
sg15
g36
sbs(I-10
I3
tp40
g0
(g9
g2
Ntp41
Rp42
(dp43
g13
I01
sg14
F1.3901441100944076
sg15
g40
sbs(I-5
I1
tp44
g0
(g9
g2
Ntp45
Rp46
(dp47
g13
I01
sg14
F1.5021817424324253
sg15
g44
sbs(I-16
I0
tp48
g0
(g9
g2
Ntp49
Rp50
(dp51
g13
I01
sg14
F-0.15892802386686775
sg15
g48
sbs(I-18
I2
tp52
g0
(g9
g2
Ntp53
Rp54
(dp55
g13
I01
sg14
F-0.29558517827971054
sg15
g52
sbs(I-6
I1
tp56
g0
(g9
g2
Ntp57
Rp58
(dp59
g13
I01
sg14
F2.8189684990398742
sg15
g56
sbs(I-3
I1
tp60
g0
(g9
g2
Ntp61
Rp62
(dp63
g13
I01
sg14
F5.513633120073147
sg15
g60
sbs(I-19
I0
tp64
g0
(g9
g2
Ntp65
Rp66
(dp67
g13
I01
sg14
F-1.7169753415954696
sg15
g64
sbs(I-14
I0
tp68
g0
(g9
g2
Ntp69
Rp70
(dp71
g13
I01
sg14
F-3.1508999402120894
sg15
g68
sbs(I-12
I3
tp72
g0
(g9
g2
Ntp73
Rp74
(dp75
g13
I01
sg14
F0.9393742050544862
sg15
g72
sbs(I-11
I2
tp76
g0
(g9
g2
Ntp77
Rp78
(dp79
g13
I01
sg14
F-1.0112826693039196
sg15
g76
sbs(I-6
I2
tp80
g0
(g9
g2
Ntp81
Rp82
(dp83
g13
I00
sg14
F0.7249352317015294
sg15
g80
sbs(I-2
I3
tp84
g0
(g9
g2
Ntp85
Rp86
(dp87
g13
I01
sg14
F4.592194778434637
sg15
g84
sbs(I-9
I3
tp88
g0
(g9
g2
Ntp89
Rp90
(dp91
g13
I01
sg14
F0.665709759739158
sg15
g88
sbs(I-4
I1
tp92
g0
(g9
g2
Ntp93
Rp94
(dp95
g13
I01
sg14
F-1.1171023876516708
sg15
g92
sbs(I-1
I4
tp96
g0
(g9
g2
Ntp97
Rp98
(dp99
g13
I01
sg14
F2.0984049525032313
sg15
g96
sbs(I-3
I4
tp100
g0
(g9
g2
Ntp101
Rp102
(dp103
g13
I00
sg14
F-0.15977115204972758
sg15
g100
sbs(I-20
I2
tp104
g0
(g9
g2
Ntp105
Rp106
(dp107
g13
I01
sg14
F1.670959083491329
sg15
g104
sbs(I-19
I3
tp108
g0
(g9
g2
Ntp109
Rp110
(dp111
g13
I01
sg14
F-0.23739040182621435
sg15
g108
sbs(I-17
I0
tp112
g0
(g9
g2
Ntp113
Rp114
(dp115
g13
I01
sg14
F-1.1501282113895526
sg15
g112
sbs(I500
I0
tp116
g0
(g9
g2
Ntp117
Rp118
(dp119
g13
I01
sg14
F-2.8365964371158254
sg15
g116
sbs(I-17
I4
tp120
g0
(g9
g2
Ntp121
Rp122
(dp123
g13
I01
sg14
F0.011098648661215876
sg15
g120
sbs(I-7
I0
tp124
g0
(g9
g2
Ntp125
Rp126
(dp127
g13
I01
sg14
F-0.9649090151782285
sg15
g124
sbs(I-2
I1
tp128
g0
(g9
g2
Ntp129
Rp130
(dp131
g13
I01
sg14
F1.519681204640053
sg15
g128
sbs(I-16
I4
tp132
g0
(g9
g2
Ntp133
Rp134
(dp135
g13
I01
sg14
F2.7304820064147495
sg15
g132
sbs(I-15
I1
tp136
g0
(g9
g2
Ntp137
Rp138
(dp139
g13
I01
sg14
F-1.420916904149347
sg15
g136
sbs(I-13
I2
tp140
g0
(g9
g2
Ntp141
Rp142
(dp143
g13
I01
sg14
F0.747006268156885
sg15
g140
sbs(I-8
I2
tp144
g0
(g9
g2
Ntp145
Rp146
(dp147
g13
I01
sg14
F-2.885303252865933
sg15
g144
sbs(I-7
I3
tp148
g0
(g9
g2
Ntp149
Rp150
(dp151
g13
I00
sg14
F-0.35464806782372166
sg15
g148
sbs(I-10
I0
tp152
g0
(g9
g2
Ntp153
Rp154
(dp155
g13
I01
sg14
F-0.08875363496581115
sg15
g152
sbs(I-5
I0
tp156
g0
(g9
g2
Ntp157
Rp158
(dp159
g13
I01
sg14
F1.0808808494225481
sg15
g156
sbs(I-2
I2
tp160
g0
(g9
g2
Ntp161
Rp162
(dp163
g13
I01
sg14
F1.4097879304971888
sg15
g160
sbs(I-1
I2
tp164
g0
(g9
g2
Ntp165
Rp166
(dp167
g13
I01
sg14
F0.31121468999382457
sg15
g164
sbs(I-16
I1
tp168
g0
(g9
g2
Ntp169
Rp170
(dp171
g13
I01
sg14
F-2.1466412940393327
sg15
g168
sbs(I-20
I4
tp172
g0
(g9
g2
Ntp173
Rp174
(dp175
g13
I01
sg14
F0.9307880545044555
sg15
g172
sbs(I-2
I4
tp176
g0
(g9
g2
Ntp177
Rp178
(dp179
g13
I01
sg14
F-0.33331641173758086
sg15
g176
sbs(I-18
I3
tp180
g0
(g9
g2
Ntp181
Rp182
(dp183
g13
I01
sg14
F-1.116410330635813
sg15
g180
sbs(I-13
I1
tp184
g0
(g9
g2
Ntp185
Rp186
(dp187
g13
I01
sg14
F0.6003414780090006
sg15
g184
sbs(I-3
I0
tp188
g0
(g9
g2
Ntp189
Rp190
(dp191
g13
I01
sg14
F-1.1704883580792427
sg15
g188
sbs(I-14
I1
tp192
g0
(g9
g2
Ntp193
Rp194
(dp195
g13
I01
sg14
F1.5638895729310092
sg15
g192
sbs(I-7
I4
tp196
g0
(g9
g2
Ntp197
Rp198
(dp199
g13
I01
sg14
F-1.2073804430435504
sg15
g196
sbs(I-11
I1
tp200
g0
(g9
g2
Ntp201
Rp202
(dp203
g13
I01
sg14
F-0.12777201339258348
sg15
g200
sbs(I-6
I3
tp204
g0
(g9
g2
Ntp205
Rp206
(dp207
g13
I01
sg14
F3.0059922518160493
sg15
g204
sbs(I-9
I2
tp208
g0
(g9
g2
Ntp209
Rp210
(dp211
g13
I01
sg14
F-4.494907134880317
sg15
g208
sbs(I-4
I2
tp212
g0
(g9
g2
Ntp213
Rp214
(dp215
g13
I01
sg14
F-0.08409786661557064
sg15
g212
sbs(I-3
I3
tp216
g0
(g9
g2
Ntp217
Rp218
(dp219
g13
I01
sg14
F-0.6800475947275058
sg15
g216
sbs(I-20
I3
tp220
g0
(g9
g2
Ntp221
Rp222
(dp223
g13
I01
sg14
F2.3394482046828258
sg15
g220
sbs(I-20
I500
tp224
g0
(g9
g2
Ntp225
Rp226
(dp227
g13
I01
sg14
F0.7898690661982205
sg15
g224
sbs(I-14
I2
tp228
g0
(g9
g2
Ntp229
Rp230
(dp231
g13
I01
sg14
F1.7798516134879003
sg15
g228
sbs(I-17
I3
tp232
g0
(g9
g2
Ntp233
Rp234
(dp235
g13
I01
sg14
F-1.3915292466353775
sg15
g232
sbs(I-12
I1
tp236
g0
(g9
g2
Ntp237
Rp238
(dp239
g13
I00
sg14
F-1.5661320006682034
sg15
g236
sbs(I-10
I4
tp240
g0
(g9
g2
Ntp241
Rp242
(dp243
g13
I01
sg14
F0.009565068934072954
sg15
g240
sbs(I-11
I4
tp244
g0
(g9
g2
Ntp245
Rp246
(dp247
g13
I01
sg14
F-1.4866364492902608
sg15
g244
sbs(I-5
I4
tp248
g0
(g9
g2
Ntp249
Rp250
(dp251
g13
I00
sg14
F-0.877369643243566
sg15
g248
sbs(I-6
I4
tp252
g0
(g9
g2
Ntp253
Rp254
(dp255
g13
I01
sg14
F-3.331258071908212
sg15
g252
sbs(I-9
I1
tp256
g0
(g9
g2
Ntp257
Rp258
(dp259
g13
I01
sg14
F-2.9982739833695473
sg15
g256
sbs(I-20
I0
tp260
g0
(g9
g2
Ntp261
Rp262
(dp263
g13
I00
sg14
F-2.5300822025534693
sg15
g260
sbs(I-15
I0
tp264
g0
(g9
g2
Ntp265
Rp266
(dp267
g13
I01
sg14
F0.8566721355785447
sg15
g264
sbs(I-8
I3
tp268
g0
(g9
g2
Ntp269
Rp270
(dp271
g13
I01
sg14
F0.7187906646690468
sg15
g268
sbs(I-7
I2
tp272
g0
(g9
g2
Ntp273
Rp274
(dp275
g13
I00
sg14
F0.7627967060075354
sg15
g272
sbs(I-10
I1
tp276
g0
(g9
g2
Ntp277
Rp278
(dp279
g13
I01
sg14
F-0.9992338737327875
sg15
g276
sbs(I-5
I3
tp280
g0
(g9
g2
Ntp281
Rp282
(dp283
g13
I01
sg14
F1.3604524864879295
sg15
g280
sbs(I-9
I4
tp284
g0
(g9
g2
Ntp285
Rp286
(dp287
g13
I01
sg14
F1.7339389488242214
sg15
g284
sbs(I-4
I4
tp288
g0
(g9
g2
Ntp289
Rp290
(dp291
g13
I01
sg14
F2.0873852015235377
sg15
g288
sbs(I-1
I3
tp292
g0
(g9
g2
Ntp293
Rp294
(dp295
g13
I01
sg14
F0.16075770909426085
sg15
g292
sbs(I-16
I2
tp296
g0
(g9
g2
Ntp297
Rp298
(dp299
g13
I01
sg14
F-0.1558123064733743
sg15
g296
sbs(I-15
I3
tp300
g0
(g9
g2
Ntp301
Rp302
(dp303
g13
I01
sg14
F2.9110401407452824
sg15
g300
sbs(I-18
I0
tp304
g0
(g9
g2
Ntp305
Rp306
(dp307
g13
I01
sg14
F-0.7950361008888613
sg15
g304
sbs(I-13
I0
tp308
g0
(g9
g2
Ntp309
Rp310
(dp311
g13
I01
sg14
F-2.5822162480623736
sg15
g308
sbs(I-8
I0
tp312
g0
(g9
g2
Ntp313
Rp314
(dp315
g13
I01
sg14
F2.4428624947930215
sg15
g312
sbs(I-10
I2
tp316
g0
(g9
g2
Ntp317
Rp318
(dp319
g13
I00
sg14
F-0.24487471605655686
sg15
g316
sbs(I-17
I1
tp320
g0
(g9
g2
Ntp321
Rp322
(dp323
g13
I01
sg14
F-0.9955046131145393
sg15
g320
sbs(I-11
I0
tp324
g0
(g9
g2
Ntp325
Rp326
(dp327
g13
I00
sg14
F0.7531841726291897
sg15
g324
sbs(I-6
I0
tp328
g0
(g9
g2
Ntp329
Rp330
(dp331
g13
I00
sg14
F-1.8846324944978168
sg15
g328
sbs(I-4
I3
tp332
g0
(g9
g2
Ntp333
Rp334
(dp335
g13
I01
sg14
F-1.1537608014077887
sg15
g332
sbs(I-3
I2
tp336
g0
(g9
g2
Ntp337
Rp338
(dp339
g13
I01
sg14
F-0.3262012078363936
sg15
g336
sbs(I-15
I4
tp340
g0
(g9
g2
Ntp341
Rp342
(dp343
g13
I01
sg14
F0.20071102383693765
sg15
g340
sbs(I-19
I1
tp344
g0
(g9
g2
Ntp345
Rp346
(dp347
g13
I01
sg14
F0.7285795876856996
sg15
g344
sbs(I-17
I2
tp348
g0
(g9
g2
Ntp349
Rp350
(dp351
g13
I01
sg14
F3.2951252691574324
sg15
g348
sbs(I-11
I3
tp352
g0
(g9
g2
Ntp353
Rp354
(dp355
g13
I01
sg14
F0.4997477553640667
sg15
g352
sbs(I-9
I0
tp356
g0
(g9
g2
Ntp357
Rp358
(dp359
g13
I00
sg14
F1.3290880223526982
sg15
g356
sbs(I-4
I0
tp360
g0
(g9
g2
Ntp361
Rp362
(dp363
g13
I01
sg14
F1.5893890990203252
sg15
g360
sbs(I-18
I4
tp364
g0
(g9
g2
Ntp365
Rp366
(dp367
g13
I01
sg14
F2.6890481942958244
sg15
g364
sbs(I-19
I4
tp368
g0
(g9
g2
Ntp369
Rp370
(dp371
g13
I01
sg14
F1.6653078861758104
sg15
g368
sbs(I-13
I4
tp372
g0
(g9
g2
Ntp373
Rp374
(dp375
g13
I01
sg14
F5.995660843221918
sg15
g372
sbs(I-8
I4
tp376
g0
(g9
g2
Ntp377
Rp378
(dp379
g13
I01
sg14
F-1.2638764425511686
sg15
g376
sbs(I-7
I1
tp380
g0
(g9
g2
Ntp381
Rp382
(dp383
g13
I01
sg14
F0.742082827489561
sg15
g380
sbs(I-5
I2
tp384
g0
(g9
g2
Ntp385
Rp386
(dp387
g13
I01
sg14
F-2.9594271516317088
sg15
g384
sbssS'nodes'
p388
(dp389
I0
g0
(cneat.genes
DefaultNodeGene
p390
g2
Ntp391
Rp392
(dp393
S'activation'
p394
S'tanh'
p395
sS'bias'
p396
F0.52554367879381
sS'response'
p397
F1.0
sg15
I0
sS'aggregation'
p398
S'sum'
p399
sbsI1
g0
(g390
g2
Ntp400
Rp401
(dp402
g394
g395
sg396
F-0.3850606001747227
sg397
F1.0
sg15
I1
sg398
g399
sbsI2
g0
(g390
g2
Ntp403
Rp404
(dp405
g394
g395
sg396
F-1.654792276270927
sg397
F1.0
sg15
I2
sg398
g399
sbsI3
g0
(g390
g2
Ntp406
Rp407
(dp408
g394
g395
sg396
F-2.2864040899655182
sg397
F1.0
sg15
I3
sg398
g399
sbsI4
g0
(g390
g2
Ntp409
Rp410
(dp411
g394
g395
sg396
F-0.9152109911369914
sg397
F1.0
sg15
I4
sg398
g399
sbsI500
g0
(g390
g2
Ntp412
Rp413
(dp414
g394
g395
sg396
F-0.22048366778953743
sg397
F1.0
sg15
I500
sg398
g399
sbssg15
I2689
sS'fitness'
p415
F96.0
sb.