ccopy_reg
_reconstructor
p0
(cneat.genome
DefaultGenome
p1
c__builtin__
object
p2
Ntp3
Rp4
(dp5
S'connections'
p6
(dp7
(I-1
I0
tp8
g0
(cneat.genes
DefaultConnectionGene
p9
g2
Ntp10
Rp11
(dp12
S'enabled'
p13
I01
sS'weight'
p14
F0.04033834002219862
sS'key'
p15
g8
sbs(I-16
I3
tp16
g0
(g9
g2
Ntp17
Rp18
(dp19
g13
I01
sg14
F1.6593683234557404
sg15
g16
sbs(I-15
I2
tp20
g0
(g9
g2
Ntp21
Rp22
(dp23
g13
I01
sg14
F0.5173973254185761
sg15
g20
sbs(I-18
I1
tp24
g0
(g9
g2
Ntp25
Rp26
(dp27
g13
I01
sg14
F-0.5596660366662604
sg15
g24
sbs(I-13
I3
tp28
g0
(g9
g2
Ntp29
Rp30
(dp31
g13
I01
sg14
F0.5611405795047645
sg15
g28
sbs(I-8
I1
tp32
g0
(g9
g2
Ntp33
Rp34
(dp35
g13
I01
sg14
F-0.5369012957102052
sg15
g32
sbs(I-12
I4
tp36
g0
(g9
g2
Ntp37
Rp38
(dp39
g13
I01
sg14
F0.13121439982580124
sg15
g36
sbs(I-2
I0
tp40
g0
(g9
g2
Ntp41
Rp42
(dp43
g13
I01
sg14
F-0.5781459011080319
sg15
g40
sbs(I-10
I3
tp44
g0
(g9
g2
Ntp45
Rp46
(dp47
g13
I01
sg14
F0.7320657312071123
sg15
g44
sbs(I-5
I1
tp48
g0
(g9
g2
Ntp49
Rp50
(dp51
g13
I01
sg14
F-1.8711879658870643
sg15
g48
sbs(I-16
I0
tp52
g0
(g9
g2
Ntp53
Rp54
(dp55
g13
I01
sg14
F-1.2010255544719133
sg15
g52
sbs(I-7
I21
tp56
g0
(g9
g2
Ntp57
Rp58
(dp59
g13
I01
sg14
F2.059863583708821
sg15
g56
sbs(I-18
I2
tp60
g0
(g9
g2
Ntp61
Rp62
(dp63
g13
I01
sg14
F-0.26854247193512637
sg15
g60
sbs(I-6
I1
tp64
g0
(g9
g2
Ntp65
Rp66
(dp67
g13
I01
sg14
F2.5010776801105132
sg15
g64
sbs(I-3
I1
tp68
g0
(g9
g2
Ntp69
Rp70
(dp71
g13
I01
sg14
F-1.3738506288293826
sg15
g68
sbs(I-19
I0
tp72
g0
(g9
g2
Ntp73
Rp74
(dp75
g13
I01
sg14
F-0.198357970616431
sg15
g72
sbs(I-14
I0
tp76
g0
(g9
g2
Ntp77
Rp78
(dp79
g13
I01
sg14
F0.18790741656574844
sg15
g76
sbs(I-12
I3
tp80
g0
(g9
g2
Ntp81
Rp82
(dp83
g13
I01
sg14
F1.0812507012163812
sg15
g80
sbs(I-11
I2
tp84
g0
(g9
g2
Ntp85
Rp86
(dp87
g13
I01
sg14
F-1.210227634448825
sg15
g84
sbs(I-6
I2
tp88
g0
(g9
g2
Ntp89
Rp90
(dp91
g13
I01
sg14
F-0.09700914258168836
sg15
g88
sbs(I-2
I3
tp92
g0
(g9
g2
Ntp93
Rp94
(dp95
g13
I01
sg14
F0.16169995851721547
sg15
g92
sbs(I-9
I3
tp96
g0
(g9
g2
Ntp97
Rp98
(dp99
g13
I01
sg14
F1.1433203786490629
sg15
g96
sbs(I-4
I1
tp100
g0
(g9
g2
Ntp101
Rp102
(dp103
g13
I01
sg14
F-0.7722960043750291
sg15
g100
sbs(I-1
I4
tp104
g0
(g9
g2
Ntp105
Rp106
(dp107
g13
I01
sg14
F-1.2860251549535655
sg15
g104
sbs(I-3
I4
tp108
g0
(g9
g2
Ntp109
Rp110
(dp111
g13
I01
sg14
F1.7253501315828816
sg15
g108
sbs(I-20
I2
tp112
g0
(g9
g2
Ntp113
Rp114
(dp115
g13
I01
sg14
F0.19808119270831748
sg15
g112
sbs(I-19
I3
tp116
g0
(g9
g2
Ntp117
Rp118
(dp119
g13
I01
sg14
F0.922666081594655
sg15
g116
sbs(I-17
I0
tp120
g0
(g9
g2
Ntp121
Rp122
(dp123
g13
I01
sg14
F1.1994714559946267
sg15
g120
sbs(I-12
I0
tp124
g0
(g9
g2
Ntp125
Rp126
(dp127
g13
I01
sg14
F-1.8299458815299572
sg15
g124
sbs(I-17
I4
tp128
g0
(g9
g2
Ntp129
Rp130
(dp131
g13
I01
sg14
F-0.6387675779500944
sg15
g128
sbs(I-7
I0
tp132
g0
(g9
g2
Ntp133
Rp134
(dp135
g13
I01
sg14
F-0.5505056251233083
sg15
g132
sbs(I-1
I1
tp136
g0
(g9
g2
Ntp137
Rp138
(dp139
g13
I01
sg14
F0.2969341681360666
sg15
g136
sbs(I-16
I4
tp140
g0
(g9
g2
Ntp141
Rp142
(dp143
g13
I01
sg14
F2.631197629868473
sg15
g140
sbs(I-15
I1
tp144
g0
(g9
g2
Ntp145
Rp146
(dp147
g13
I01
sg14
F0.2569780996547673
sg15
g144
sbs(I-13
I2
tp148
g0
(g9
g2
Ntp149
Rp150
(dp151
g13
I01
sg14
F-1.756701206710685
sg15
g148
sbs(I-8
I2
tp152
g0
(g9
g2
Ntp153
Rp154
(dp155
g13
I01
sg14
F-0.35863383538024196
sg15
g152
sbs(I-7
I3
tp156
g0
(g9
g2
Ntp157
Rp158
(dp159
g13
I01
sg14
F0.46710469670830146
sg15
g156
sbs(I-10
I0
tp160
g0
(g9
g2
Ntp161
Rp162
(dp163
g13
I01
sg14
F-1.0153476347578212
sg15
g160
sbs(I-5
I0
tp164
g0
(g9
g2
Ntp165
Rp166
(dp167
g13
I01
sg14
F-2.596824999401304
sg15
g164
sbs(I-2
I2
tp168
g0
(g9
g2
Ntp169
Rp170
(dp171
g13
I01
sg14
F2.2169790572697563
sg15
g168
sbs(I-1
I2
tp172
g0
(g9
g2
Ntp173
Rp174
(dp175
g13
I01
sg14
F-0.9461680702515489
sg15
g172
sbs(I-16
I1
tp176
g0
(g9
g2
Ntp177
Rp178
(dp179
g13
I01
sg14
F0.4773200143585753
sg15
g176
sbs(I-20
I4
tp180
g0
(g9
g2
Ntp181
Rp182
(dp183
g13
I01
sg14
F-1.8585819137547916
sg15
g180
sbs(I-2
I4
tp184
g0
(g9
g2
Ntp185
Rp186
(dp187
g13
I01
sg14
F-0.29325332637508633
sg15
g184
sbs(I-18
I3
tp188
g0
(g9
g2
Ntp189
Rp190
(dp191
g13
I01
sg14
F0.27937898386181503
sg15
g188
sbs(I-13
I1
tp192
g0
(g9
g2
Ntp193
Rp194
(dp195
g13
I01
sg14
F-0.10052761124751132
sg15
g192
sbs(I-3
I0
tp196
g0
(g9
g2
Ntp197
Rp198
(dp199
g13
I01
sg14
F0.9106525073248637
sg15
g196
sbs(I21
I1
tp200
g0
(g9
g2
Ntp201
Rp202
(dp203
g13
I01
sg14
F1.2937944168789641
sg15
g200
sbs(I-14
I1
tp204
g0
(g9
g2
Ntp205
Rp206
(dp207
g13
I01
sg14
F0.620971568139894
sg15
g204
sbs(I-7
I4
tp208
g0
(g9
g2
Ntp209
Rp210
(dp211
g13
I01
sg14
F-1.1201179630955207
sg15
g208
sbs(I-11
I1
tp212
g0
(g9
g2
Ntp213
Rp214
(dp215
g13
I01
sg14
F-0.5952282594942679
sg15
g212
sbs(I-6
I3
tp216
g0
(g9
g2
Ntp217
Rp218
(dp219
g13
I01
sg14
F-0.47506683542565264
sg15
g216
sbs(I-9
I2
tp220
g0
(g9
g2
Ntp221
Rp222
(dp223
g13
I01
sg14
F-1.565488358572635
sg15
g220
sbs(I-4
I2
tp224
g0
(g9
g2
Ntp225
Rp226
(dp227
g13
I01
sg14
F1.0030655316068204
sg15
g224
sbs(I-3
I3
tp228
g0
(g9
g2
Ntp229
Rp230
(dp231
g13
I01
sg14
F1.2688017085957886
sg15
g228
sbs(I-20
I3
tp232
g0
(g9
g2
Ntp233
Rp234
(dp235
g13
I01
sg14
F-0.033063259666221034
sg15
g232
sbs(I-19
I2
tp236
g0
(g9
g2
Ntp237
Rp238
(dp239
g13
I01
sg14
F-0.7447063855267182
sg15
g236
sbs(I-14
I2
tp240
g0
(g9
g2
Ntp241
Rp242
(dp243
g13
I01
sg14
F0.16386662125244
sg15
g240
sbs(I-17
I3
tp244
g0
(g9
g2
Ntp245
Rp246
(dp247
g13
I01
sg14
F-0.8177539009001269
sg15
g244
sbs(I-12
I1
tp248
g0
(g9
g2
Ntp249
Rp250
(dp251
g13
I01
sg14
F0.0820384794722257
sg15
g248
sbs(I-10
I4
tp252
g0
(g9
g2
Ntp253
Rp254
(dp255
g13
I01
sg14
F0.6886899211987133
sg15
g252
sbs(I-11
I4
tp256
g0
(g9
g2
Ntp257
Rp258
(dp259
g13
I01
sg14
F-0.9086994929828509
sg15
g256
sbs(I-5
I4
tp260
g0
(g9
g2
Ntp261
Rp262
(dp263
g13
I01
sg14
F-1.6450555256878125
sg15
g260
sbs(I-6
I4
tp264
g0
(g9
g2
Ntp265
Rp266
(dp267
g13
I01
sg14
F0.18273983805871225
sg15
g264
sbs(I-9
I1
tp268
g0
(g9
g2
Ntp269
Rp270
(dp271
g13
I01
sg14
F0.9757651728571942
sg15
g268
sbs(I-20
I0
tp272
g0
(g9
g2
Ntp273
Rp274
(dp275
g13
I01
sg14
F-0.7291409157878288
sg15
g272
sbs(I-15
I0
tp276
g0
(g9
g2
Ntp277
Rp278
(dp279
g13
I01
sg14
F-1.285479707320912
sg15
g276
sbs(I-8
I3
tp280
g0
(g9
g2
Ntp281
Rp282
(dp283
g13
I01
sg14
F1.4523978672682687
sg15
g280
sbs(I-7
I2
tp284
g0
(g9
g2
Ntp285
Rp286
(dp287
g13
I01
sg14
F1.3131891776840532
sg15
g284
sbs(I-10
I1
tp288
g0
(g9
g2
Ntp289
Rp290
(dp291
g13
I01
sg14
F-3.0437288736911032
sg15
g288
sbs(I-5
I3
tp292
g0
(g9
g2
Ntp293
Rp294
(dp295
g13
I01
sg14
F-1.4034734773226187
sg15
g292
sbs(I-9
I4
tp296
g0
(g9
g2
Ntp297
Rp298
(dp299
g13
I01
sg14
F-1.1638847301516255
sg15
g296
sbs(I-4
I4
tp300
g0
(g9
g2
Ntp301
Rp302
(dp303
g13
I01
sg14
F-1.0715714149952527
sg15
g300
sbs(I-1
I3
tp304
g0
(g9
g2
Ntp305
Rp306
(dp307
g13
I01
sg14
F0.5992485048114561
sg15
g304
sbs(I-16
I2
tp308
g0
(g9
g2
Ntp309
Rp310
(dp311
g13
I01
sg14
F0.22149239890089967
sg15
g308
sbs(I-15
I3
tp312
g0
(g9
g2
Ntp313
Rp314
(dp315
g13
I01
sg14
F-0.2222953867723549
sg15
g312
sbs(I-18
I0
tp316
g0
(g9
g2
Ntp317
Rp318
(dp319
g13
I01
sg14
F1.7253625894924827
sg15
g316
sbs(I-13
I0
tp320
g0
(g9
g2
Ntp321
Rp322
(dp323
g13
I01
sg14
F-1.156967433801559
sg15
g320
sbs(I-8
I0
tp324
g0
(g9
g2
Ntp325
Rp326
(dp327
g13
I01
sg14
F-1.1507218039384572
sg15
g324
sbs(I-10
I2
tp328
g0
(g9
g2
Ntp329
Rp330
(dp331
g13
I01
sg14
F0.6617186096200518
sg15
g328
sbs(I-17
I1
tp332
g0
(g9
g2
Ntp333
Rp334
(dp335
g13
I01
sg14
F-1.3751440707839826
sg15
g332
sbs(I-11
I0
tp336
g0
(g9
g2
Ntp337
Rp338
(dp339
g13
I01
sg14
F0.6317914981448766
sg15
g336
sbs(I-6
I0
tp340
g0
(g9
g2
Ntp341
Rp342
(dp343
g13
I01
sg14
F-2.0712625576559467
sg15
g340
sbs(I-4
I3
tp344
g0
(g9
g2
Ntp345
Rp346
(dp347
g13
I01
sg14
F0.3817500536239399
sg15
g344
sbs(I-3
I2
tp348
g0
(g9
g2
Ntp349
Rp350
(dp351
g13
I01
sg14
F-2.8184381189490324
sg15
g348
sbs(I-15
I4
tp352
g0
(g9
g2
Ntp353
Rp354
(dp355
g13
I01
sg14
F1.2915627988151839
sg15
g352
sbs(I-19
I1
tp356
g0
(g9
g2
Ntp357
Rp358
(dp359
g13
I01
sg14
F-0.13512457587398757
sg15
g356
sbs(I-14
I3
tp360
g0
(g9
g2
Ntp361
Rp362
(dp363
g13
I01
sg14
F-1.8189006356088764
sg15
g360
sbs(I-17
I2
tp364
g0
(g9
g2
Ntp365
Rp366
(dp367
g13
I01
sg14
F2.480032415329722
sg15
g364
sbs(I-2
I1
tp368
g0
(g9
g2
Ntp369
Rp370
(dp371
g13
I01
sg14
F-0.6059241027912217
sg15
g368
sbs(I-11
I3
tp372
g0
(g9
g2
Ntp373
Rp374
(dp375
g13
I01
sg14
F1.0926698947841604
sg15
g372
sbs(I-9
I0
tp376
g0
(g9
g2
Ntp377
Rp378
(dp379
g13
I01
sg14
F-0.7304815589243663
sg15
g376
sbs(I-4
I0
tp380
g0
(g9
g2
Ntp381
Rp382
(dp383
g13
I01
sg14
F-2.301521414496622
sg15
g380
sbs(I-20
I1
tp384
g0
(g9
g2
Ntp385
Rp386
(dp387
g13
I01
sg14
F-1.475257381058357
sg15
g384
sbs(I-18
I4
tp388
g0
(g9
g2
Ntp389
Rp390
(dp391
g13
I01
sg14
F1.2000017566341956
sg15
g388
sbs(I-19
I4
tp392
g0
(g9
g2
Ntp393
Rp394
(dp395
g13
I01
sg14
F-0.11627932195856974
sg15
g392
sbs(I-13
I4
tp396
g0
(g9
g2
Ntp397
Rp398
(dp399
g13
I00
sg14
F-0.20447544587290112
sg15
g396
sbs(I-14
I4
tp400
g0
(g9
g2
Ntp401
Rp402
(dp403
g13
I01
sg14
F-0.06768085463580059
sg15
g400
sbs(I-8
I4
tp404
g0
(g9
g2
Ntp405
Rp406
(dp407
g13
I01
sg14
F0.8021475811886246
sg15
g404
sbs(I-7
I1
tp408
g0
(g9
g2
Ntp409
Rp410
(dp411
g13
I00
sg14
F-0.21827767953288515
sg15
g408
sbs(I-5
I2
tp412
g0
(g9
g2
Ntp413
Rp414
(dp415
g13
I01
sg14
F-1.1188642983184414
sg15
g412
sbssS'nodes'
p416
(dp417
I0
g0
(cneat.genes
DefaultNodeGene
p418
g2
Ntp419
Rp420
(dp421
S'activation'
p422
S'tanh'
p423
sS'bias'
p424
F-1.442629185605141
sS'response'
p425
F1.0
sg15
I0
sS'aggregation'
p426
S'sum'
p427
sbsI1
g0
(g418
g2
Ntp428
Rp429
(dp430
g422
g423
sg424
F0.8987505723050646
sg425
F1.0
sg15
I1
sg426
g427
sbsI2
g0
(g418
g2
Ntp431
Rp432
(dp433
g422
g423
sg424
F0.6302275495927514
sg425
F1.0
sg15
I2
sg426
g427
sbsI3
g0
(g418
g2
Ntp434
Rp435
(dp436
g422
g423
sg424
F0.8067772455821559
sg425
F1.0
sg15
I3
sg426
g427
sbsI4
g0
(g418
g2
Ntp437
Rp438
(dp439
g422
g423
sg424
F2.7109585120221547
sg425
F1.0
sg15
I4
sg426
g427
sbsI21
g0
(g418
g2
Ntp440
Rp441
(dp442
g422
g423
sg424
F0.7202869785016077
sg425
F1.0
sg15
I21
sg426
g427
sbssg15
I466
sS'fitness'
p443
F88.0
sb.