ccopy_reg
_reconstructor
p0
(cneat.genome
DefaultGenome
p1
c__builtin__
object
p2
Ntp3
Rp4
(dp5
S'connections'
p6
(dp7
(I-1
I0
tp8
g0
(cneat.genes
DefaultConnectionGene
p9
g2
Ntp10
Rp11
(dp12
S'enabled'
p13
I01
sS'weight'
p14
F0.9979435511161785
sS'key'
p15
g8
sbs(I-16
I3
tp16
g0
(g9
g2
Ntp17
Rp18
(dp19
g13
I01
sg14
F-1.1460442997311437
sg15
g16
sbs(I-15
I2
tp20
g0
(g9
g2
Ntp21
Rp22
(dp23
g13
I01
sg14
F-0.24947573465952408
sg15
g20
sbs(I-18
I1
tp24
g0
(g9
g2
Ntp25
Rp26
(dp27
g13
I01
sg14
F-0.2912091644568049
sg15
g24
sbs(I-13
I3
tp28
g0
(g9
g2
Ntp29
Rp30
(dp31
g13
I01
sg14
F-0.42545569507209396
sg15
g28
sbs(I-8
I1
tp32
g0
(g9
g2
Ntp33
Rp34
(dp35
g13
I01
sg14
F-2.779656847135371
sg15
g32
sbs(I-12
I4
tp36
g0
(g9
g2
Ntp37
Rp38
(dp39
g13
I01
sg14
F0.16821469444855353
sg15
g36
sbs(I1
I161
tp40
g0
(g9
g2
Ntp41
Rp42
(dp43
g13
I01
sg14
F0.12009265578593409
sg15
g40
sbs(I-2
I0
tp44
g0
(g9
g2
Ntp45
Rp46
(dp47
g13
I01
sg14
F-2.3359924429417944
sg15
g44
sbs(I-10
I3
tp48
g0
(g9
g2
Ntp49
Rp50
(dp51
g13
I00
sg14
F0.13878793416776714
sg15
g48
sbs(I-5
I1
tp52
g0
(g9
g2
Ntp53
Rp54
(dp55
g13
I01
sg14
F-3.1396263601119823
sg15
g52
sbs(I-18
I2
tp56
g0
(g9
g2
Ntp57
Rp58
(dp59
g13
I01
sg14
F-0.7714023288857083
sg15
g56
sbs(I161
I2
tp60
g0
(g9
g2
Ntp61
Rp62
(dp63
g13
I01
sg14
F-1.8969773453239474
sg15
g60
sbs(I104
I3
tp64
g0
(g9
g2
Ntp65
Rp66
(dp67
g13
I01
sg14
F-0.13387274628021922
sg15
g64
sbs(I-6
I1
tp68
g0
(g9
g2
Ntp69
Rp70
(dp71
g13
I01
sg14
F-1.1286967957352396
sg15
g68
sbs(I-3
I1
tp72
g0
(g9
g2
Ntp73
Rp74
(dp75
g13
I01
sg14
F-2.316109227422333
sg15
g72
sbs(I-19
I0
tp76
g0
(g9
g2
Ntp77
Rp78
(dp79
g13
I01
sg14
F-1.1140298113607001
sg15
g76
sbs(I-14
I0
tp80
g0
(g9
g2
Ntp81
Rp82
(dp83
g13
I01
sg14
F-1.1601176967360733
sg15
g80
sbs(I-12
I3
tp84
g0
(g9
g2
Ntp85
Rp86
(dp87
g13
I01
sg14
F-1.4819372757493534
sg15
g84
sbs(I-4
I2
tp88
g0
(g9
g2
Ntp89
Rp90
(dp91
g13
I01
sg14
F-1.2312257634959702
sg15
g88
sbs(I104
I0
tp92
g0
(g9
g2
Ntp93
Rp94
(dp95
g13
I01
sg14
F-0.6587127380052533
sg15
g92
sbs(I-11
I2
tp96
g0
(g9
g2
Ntp97
Rp98
(dp99
g13
I01
sg14
F-0.9287777857199409
sg15
g96
sbs(I-6
I2
tp100
g0
(g9
g2
Ntp101
Rp102
(dp103
g13
I00
sg14
F-0.5522337428526358
sg15
g100
sbs(I-2
I3
tp104
g0
(g9
g2
Ntp105
Rp106
(dp107
g13
I01
sg14
F-1.6070983204270026
sg15
g104
sbs(I-9
I3
tp108
g0
(g9
g2
Ntp109
Rp110
(dp111
g13
I01
sg14
F-2.0614248644293798
sg15
g108
sbs(I-4
I1
tp112
g0
(g9
g2
Ntp113
Rp114
(dp115
g13
I01
sg14
F-1.7807418626948792
sg15
g112
sbs(I-2
I4
tp116
g0
(g9
g2
Ntp117
Rp118
(dp119
g13
I01
sg14
F1.9743416051770777
sg15
g116
sbs(I-3
I4
tp120
g0
(g9
g2
Ntp121
Rp122
(dp123
g13
I01
sg14
F1.6323026094127506
sg15
g120
sbs(I-20
I2
tp124
g0
(g9
g2
Ntp125
Rp126
(dp127
g13
I01
sg14
F-1.0701237269436106
sg15
g124
sbs(I-19
I3
tp128
g0
(g9
g2
Ntp129
Rp130
(dp131
g13
I01
sg14
F0.7023924631867493
sg15
g128
sbs(I-17
I0
tp132
g0
(g9
g2
Ntp133
Rp134
(dp135
g13
I01
sg14
F-0.930219990416691
sg15
g132
sbs(I-12
I0
tp136
g0
(g9
g2
Ntp137
Rp138
(dp139
g13
I01
sg14
F-2.305731279865012
sg15
g136
sbs(I-17
I4
tp140
g0
(g9
g2
Ntp141
Rp142
(dp143
g13
I01
sg14
F-0.5656134921609923
sg15
g140
sbs(I80
I19
tp144
g0
(g9
g2
Ntp145
Rp146
(dp147
g13
I01
sg14
F-1.6775958318294377
sg15
g144
sbs(I-1
I1
tp148
g0
(g9
g2
Ntp149
Rp150
(dp151
g13
I00
sg14
F0.4489942450294281
sg15
g148
sbs(I-16
I4
tp152
g0
(g9
g2
Ntp153
Rp154
(dp155
g13
I01
sg14
F0.39292241363862374
sg15
g152
sbs(I-15
I1
tp156
g0
(g9
g2
Ntp157
Rp158
(dp159
g13
I01
sg14
F-2.166156980371136
sg15
g156
sbs(I-13
I2
tp160
g0
(g9
g2
Ntp161
Rp162
(dp163
g13
I01
sg14
F-0.7249523387648984
sg15
g160
sbs(I-8
I2
tp164
g0
(g9
g2
Ntp165
Rp166
(dp167
g13
I01
sg14
F1.9124876613549784
sg15
g164
sbs(I-6
I80
tp168
g0
(g9
g2
Ntp169
Rp170
(dp171
g13
I01
sg14
F0.21115134099173255
sg15
g168
sbs(I-7
I3
tp172
g0
(g9
g2
Ntp173
Rp174
(dp175
g13
I01
sg14
F0.701511747841563
sg15
g172
sbs(I-10
I0
tp176
g0
(g9
g2
Ntp177
Rp178
(dp179
g13
I01
sg14
F1.5379860033773591
sg15
g176
sbs(I-5
I0
tp180
g0
(g9
g2
Ntp181
Rp182
(dp183
g13
I01
sg14
F-0.4991747909277924
sg15
g180
sbs(I-2
I2
tp184
g0
(g9
g2
Ntp185
Rp186
(dp187
g13
I01
sg14
F0.3484380184410225
sg15
g184
sbs(I-1
I2
tp188
g0
(g9
g2
Ntp189
Rp190
(dp191
g13
I01
sg14
F-0.14925911150384652
sg15
g188
sbs(I-16
I1
tp192
g0
(g9
g2
Ntp193
Rp194
(dp195
g13
I01
sg14
F0.007617697289869052
sg15
g192
sbs(I-20
I4
tp196
g0
(g9
g2
Ntp197
Rp198
(dp199
g13
I01
sg14
F-1.9619588619045685
sg15
g196
sbs(I-1
I4
tp200
g0
(g9
g2
Ntp201
Rp202
(dp203
g13
I01
sg14
F0.7856903321579294
sg15
g200
sbs(I-18
I3
tp204
g0
(g9
g2
Ntp205
Rp206
(dp207
g13
I01
sg14
F0.8803865789359879
sg15
g204
sbs(I-13
I1
tp208
g0
(g9
g2
Ntp209
Rp210
(dp211
g13
I01
sg14
F-2.5308666515455447
sg15
g208
sbs(I-3
I0
tp212
g0
(g9
g2
Ntp213
Rp214
(dp215
g13
I01
sg14
F1.687481499281219
sg15
g212
sbs(I-14
I1
tp216
g0
(g9
g2
Ntp217
Rp218
(dp219
g13
I01
sg14
F0.9306976758029117
sg15
g216
sbs(I-7
I4
tp220
g0
(g9
g2
Ntp221
Rp222
(dp223
g13
I01
sg14
F1.3517209472381073
sg15
g220
sbs(I-11
I1
tp224
g0
(g9
g2
Ntp225
Rp226
(dp227
g13
I01
sg14
F1.3736042993477087
sg15
g224
sbs(I-6
I3
tp228
g0
(g9
g2
Ntp229
Rp230
(dp231
g13
I01
sg14
F-1.6455292979228575
sg15
g228
sbs(I-9
I2
tp232
g0
(g9
g2
Ntp233
Rp234
(dp235
g13
I01
sg14
F1.5905871969005851
sg15
g232
sbs(I121
I2
tp236
g0
(g9
g2
Ntp237
Rp238
(dp239
g13
I01
sg14
F-1.927195619118506
sg15
g236
sbs(I-3
I3
tp240
g0
(g9
g2
Ntp241
Rp242
(dp243
g13
I01
sg14
F1.0259928249519243
sg15
g240
sbs(I-19
I2
tp244
g0
(g9
g2
Ntp245
Rp246
(dp247
g13
I01
sg14
F-0.6680128115144305
sg15
g244
sbs(I-14
I2
tp248
g0
(g9
g2
Ntp249
Rp250
(dp251
g13
I01
sg14
F1.8865338972368995
sg15
g248
sbs(I-17
I3
tp252
g0
(g9
g2
Ntp253
Rp254
(dp255
g13
I01
sg14
F1.4654810734993131
sg15
g252
sbs(I-12
I1
tp256
g0
(g9
g2
Ntp257
Rp258
(dp259
g13
I01
sg14
F0.14323194637549352
sg15
g256
sbs(I-10
I4
tp260
g0
(g9
g2
Ntp261
Rp262
(dp263
g13
I01
sg14
F0.9015019665661973
sg15
g260
sbs(I-11
I4
tp264
g0
(g9
g2
Ntp265
Rp266
(dp267
g13
I01
sg14
F-0.40029580874340476
sg15
g264
sbs(I-5
I4
tp268
g0
(g9
g2
Ntp269
Rp270
(dp271
g13
I01
sg14
F0.10112006192411471
sg15
g268
sbs(I-6
I4
tp272
g0
(g9
g2
Ntp273
Rp274
(dp275
g13
I01
sg14
F-1.0120886806921567
sg15
g272
sbs(I-9
I1
tp276
g0
(g9
g2
Ntp277
Rp278
(dp279
g13
I01
sg14
F1.250903261833125
sg15
g276
sbs(I-20
I0
tp280
g0
(g9
g2
Ntp281
Rp282
(dp283
g13
I01
sg14
F0.7236010546481924
sg15
g280
sbs(I-15
I0
tp284
g0
(g9
g2
Ntp285
Rp286
(dp287
g13
I01
sg14
F-0.0759937175627048
sg15
g284
sbs(I-20
I19
tp288
g0
(g9
g2
Ntp289
Rp290
(dp291
g13
I01
sg14
F2.439668948593145
sg15
g288
sbs(I-8
I3
tp292
g0
(g9
g2
Ntp293
Rp294
(dp295
g13
I01
sg14
F0.31719049083791423
sg15
g292
sbs(I-7
I2
tp296
g0
(g9
g2
Ntp297
Rp298
(dp299
g13
I00
sg14
F0.19865449967310705
sg15
g296
sbs(I-10
I1
tp300
g0
(g9
g2
Ntp301
Rp302
(dp303
g13
I01
sg14
F-2.389741612838759
sg15
g300
sbs(I-5
I3
tp304
g0
(g9
g2
Ntp305
Rp306
(dp307
g13
I01
sg14
F-0.2813820218442401
sg15
g304
sbs(I-9
I4
tp308
g0
(g9
g2
Ntp309
Rp310
(dp311
g13
I00
sg14
F0.9773778036199134
sg15
g308
sbs(I-4
I4
tp312
g0
(g9
g2
Ntp313
Rp314
(dp315
g13
I00
sg14
F-2.996882983341373
sg15
g312
sbs(I-1
I3
tp316
g0
(g9
g2
Ntp317
Rp318
(dp319
g13
I01
sg14
F3.9367073059989375
sg15
g316
sbs(I-16
I2
tp320
g0
(g9
g2
Ntp321
Rp322
(dp323
g13
I01
sg14
F-0.898006679665518
sg15
g320
sbs(I-15
I3
tp324
g0
(g9
g2
Ntp325
Rp326
(dp327
g13
I01
sg14
F0.11684645276370464
sg15
g324
sbs(I-18
I0
tp328
g0
(g9
g2
Ntp329
Rp330
(dp331
g13
I01
sg14
F-1.2709554774263165
sg15
g328
sbs(I-13
I0
tp332
g0
(g9
g2
Ntp333
Rp334
(dp335
g13
I01
sg14
F-2.1312586283659773
sg15
g332
sbs(I-8
I0
tp336
g0
(g9
g2
Ntp337
Rp338
(dp339
g13
I01
sg14
F0.2739648254708504
sg15
g336
sbs(I-10
I2
tp340
g0
(g9
g2
Ntp341
Rp342
(dp343
g13
I01
sg14
F1.6709093170852842
sg15
g340
sbs(I-12
I121
tp344
g0
(g9
g2
Ntp345
Rp346
(dp347
g13
I01
sg14
F1.8885538730793425
sg15
g344
sbs(I-4
I161
tp348
g0
(g9
g2
Ntp349
Rp350
(dp351
g13
I01
sg14
F0.6230309591261929
sg15
g348
sbs(I19
I0
tp352
g0
(g9
g2
Ntp353
Rp354
(dp355
g13
I01
sg14
F1.1280728644852573
sg15
g352
sbs(I-8
I4
tp356
g0
(g9
g2
Ntp357
Rp358
(dp359
g13
I01
sg14
F1.6197937201290205
sg15
g356
sbs(I-11
I0
tp360
g0
(g9
g2
Ntp361
Rp362
(dp363
g13
I01
sg14
F-0.5047471130213262
sg15
g360
sbs(I-6
I0
tp364
g0
(g9
g2
Ntp365
Rp366
(dp367
g13
I01
sg14
F1.2500060285026338
sg15
g364
sbs(I-4
I3
tp368
g0
(g9
g2
Ntp369
Rp370
(dp371
g13
I01
sg14
F2.7569415461530324
sg15
g368
sbs(I-2
I1
tp372
g0
(g9
g2
Ntp373
Rp374
(dp375
g13
I01
sg14
F-1.8809762391096334
sg15
g372
sbs(I-15
I4
tp376
g0
(g9
g2
Ntp377
Rp378
(dp379
g13
I01
sg14
F1.8525070705550606
sg15
g376
sbs(I-19
I1
tp380
g0
(g9
g2
Ntp381
Rp382
(dp383
g13
I01
sg14
F-1.125023362251085
sg15
g380
sbs(I-14
I3
tp384
g0
(g9
g2
Ntp385
Rp386
(dp387
g13
I01
sg14
F1.045316119370018
sg15
g384
sbs(I-17
I2
tp388
g0
(g9
g2
Ntp389
Rp390
(dp391
g13
I01
sg14
F-1.3948096392000466
sg15
g388
sbs(I-12
I2
tp392
g0
(g9
g2
Ntp393
Rp394
(dp395
g13
I00
sg14
F-0.21578499240683643
sg15
g392
sbs(I80
I2
tp396
g0
(g9
g2
Ntp397
Rp398
(dp399
g13
I01
sg14
F0.20538568846794908
sg15
g396
sbs(I-11
I3
tp400
g0
(g9
g2
Ntp401
Rp402
(dp403
g13
I01
sg14
F3.1928944886110324
sg15
g400
sbs(I-4
I0
tp404
g0
(g9
g2
Ntp405
Rp406
(dp407
g13
I00
sg14
F0.7815429235078712
sg15
g404
sbs(I-20
I1
tp408
g0
(g9
g2
Ntp409
Rp410
(dp411
g13
I01
sg14
F-0.2406112993245188
sg15
g408
sbs(I-18
I4
tp412
g0
(g9
g2
Ntp413
Rp414
(dp415
g13
I01
sg14
F1.6910423056061958
sg15
g412
sbs(I-19
I4
tp416
g0
(g9
g2
Ntp417
Rp418
(dp419
g13
I01
sg14
F-1.431104629689477
sg15
g416
sbs(I-14
I4
tp420
g0
(g9
g2
Ntp421
Rp422
(dp423
g13
I01
sg14
F3.0191171026150014
sg15
g420
sbs(I-17
I1
tp424
g0
(g9
g2
Ntp425
Rp426
(dp427
g13
I01
sg14
F-1.422961762413356
sg15
g424
sbs(I-7
I1
tp428
g0
(g9
g2
Ntp429
Rp430
(dp431
g13
I01
sg14
F2.0095475398611415
sg15
g428
sbs(I-5
I2
tp432
g0
(g9
g2
Ntp433
Rp434
(dp435
g13
I01
sg14
F-2.5382036740216907
sg15
g432
sbs(I-20
I104
tp436
g0
(g9
g2
Ntp437
Rp438
(dp439
g13
I01
sg14
F0.19024752860277439
sg15
g436
sbssS'nodes'
p440
(dp441
I0
g0
(cneat.genes
DefaultNodeGene
p442
g2
Ntp443
Rp444
(dp445
S'activation'
p446
S'tanh'
p447
sS'bias'
p448
F0.564241416883987
sS'response'
p449
F1.0
sg15
I0
sS'aggregation'
p450
S'sum'
p451
sbsI1
g0
(g442
g2
Ntp452
Rp453
(dp454
g446
g447
sg448
F-1.2226782969218366
sg449
F1.0
sg15
I1
sg450
g451
sbsI2
g0
(g442
g2
Ntp455
Rp456
(dp457
g446
g447
sg448
F1.3183837663907545
sg449
F1.0
sg15
I2
sg450
g451
sbsI3
g0
(g442
g2
Ntp458
Rp459
(dp460
g446
g447
sg448
F-0.6120192875424324
sg449
F1.0
sg15
I3
sg450
g451
sbsI4
g0
(g442
g2
Ntp461
Rp462
(dp463
g446
g447
sg448
F0.5022630772015019
sg449
F1.0
sg15
I4
sg450
g451
sbsI161
g0
(g442
g2
Ntp464
Rp465
(dp466
g446
g447
sg448
F-2.5879308125020675
sg449
F1.0
sg15
I161
sg450
g451
sbsI104
g0
(g442
g2
Ntp467
Rp468
(dp469
g446
g447
sg448
F-1.5373742571176665
sg449
F1.0
sg15
I104
sg450
g451
sbsI80
g0
(g442
g2
Ntp470
Rp471
(dp472
g446
g447
sg448
F-1.230449206624218
sg449
F1.0
sg15
I80
sg450
g451
sbsI19
g0
(g442
g2
Ntp473
Rp474
(dp475
g446
g447
sg448
F-2.3313061058389923
sg449
F1.0
sg15
I19
sg450
g451
sbsI121
g0
(g442
g2
Ntp476
Rp477
(dp478
g446
g447
sg448
F-0.8198878398527003
sg449
F1.0
sg15
I121
sg450
g451
sbssg15
I952
sS'fitness'
p479
F88.0
sb.