ccopy_reg
_reconstructor
p0
(cneat.genome
DefaultGenome
p1
c__builtin__
object
p2
Ntp3
Rp4
(dp5
S'connections'
p6
(dp7
(I-1
I0
tp8
g0
(cneat.genes
DefaultConnectionGene
p9
g2
Ntp10
Rp11
(dp12
S'enabled'
p13
I01
sS'weight'
p14
F-0.8033456125709707
sS'key'
p15
g8
sbs(I-16
I3
tp16
g0
(g9
g2
Ntp17
Rp18
(dp19
g13
I01
sg14
F1.881461423991299
sg15
g16
sbs(I-15
I2
tp20
g0
(g9
g2
Ntp21
Rp22
(dp23
g13
I01
sg14
F-1.9145845753481412
sg15
g20
sbs(I-18
I1
tp24
g0
(g9
g2
Ntp25
Rp26
(dp27
g13
I01
sg14
F-1.2775686404593716
sg15
g24
sbs(I-13
I3
tp28
g0
(g9
g2
Ntp29
Rp30
(dp31
g13
I01
sg14
F1.2112830385019389
sg15
g28
sbs(I-8
I1
tp32
g0
(g9
g2
Ntp33
Rp34
(dp35
g13
I01
sg14
F1.5154450020071395
sg15
g32
sbs(I-12
I4
tp36
g0
(g9
g2
Ntp37
Rp38
(dp39
g13
I01
sg14
F1.085208324933111
sg15
g36
sbs(I-2
I0
tp40
g0
(g9
g2
Ntp41
Rp42
(dp43
g13
I01
sg14
F0.9804363011141917
sg15
g40
sbs(I-10
I3
tp44
g0
(g9
g2
Ntp45
Rp46
(dp47
g13
I01
sg14
F-0.1648135789645888
sg15
g44
sbs(I-5
I1
tp48
g0
(g9
g2
Ntp49
Rp50
(dp51
g13
I01
sg14
F-0.28100088613387253
sg15
g48
sbs(I-16
I0
tp52
g0
(g9
g2
Ntp53
Rp54
(dp55
g13
I01
sg14
F-0.3371385610287495
sg15
g52
sbs(I-18
I2
tp56
g0
(g9
g2
Ntp57
Rp58
(dp59
g13
I01
sg14
F2.6344539848201602
sg15
g56
sbs(I-6
I1
tp60
g0
(g9
g2
Ntp61
Rp62
(dp63
g13
I01
sg14
F-1.4774388827294693
sg15
g60
sbs(I-3
I1
tp64
g0
(g9
g2
Ntp65
Rp66
(dp67
g13
I01
sg14
F2.0322381552686903
sg15
g64
sbs(I-14
I0
tp68
g0
(g9
g2
Ntp69
Rp70
(dp71
g13
I01
sg14
F2.6087700783133934
sg15
g68
sbs(I-12
I3
tp72
g0
(g9
g2
Ntp73
Rp74
(dp75
g13
I01
sg14
F-2.3751548859876292
sg15
g72
sbs(I-11
I2
tp76
g0
(g9
g2
Ntp77
Rp78
(dp79
g13
I01
sg14
F0.45415756544986785
sg15
g76
sbs(I-6
I2
tp80
g0
(g9
g2
Ntp81
Rp82
(dp83
g13
I01
sg14
F-1.283478293904058
sg15
g80
sbs(I-2
I3
tp84
g0
(g9
g2
Ntp85
Rp86
(dp87
g13
I01
sg14
F-1.1187523019956302
sg15
g84
sbs(I-9
I3
tp88
g0
(g9
g2
Ntp89
Rp90
(dp91
g13
I01
sg14
F1.150161633306002
sg15
g88
sbs(I-4
I1
tp92
g0
(g9
g2
Ntp93
Rp94
(dp95
g13
I01
sg14
F0.5208442728206399
sg15
g92
sbs(I-1
I4
tp96
g0
(g9
g2
Ntp97
Rp98
(dp99
g13
I01
sg14
F-0.7501134570223974
sg15
g96
sbs(I-3
I4
tp100
g0
(g9
g2
Ntp101
Rp102
(dp103
g13
I01
sg14
F-2.312340148120321
sg15
g100
sbs(I-20
I2
tp104
g0
(g9
g2
Ntp105
Rp106
(dp107
g13
I01
sg14
F-2.118801429934492
sg15
g104
sbs(I-19
I3
tp108
g0
(g9
g2
Ntp109
Rp110
(dp111
g13
I01
sg14
F-0.015730392332367504
sg15
g108
sbs(I-17
I0
tp112
g0
(g9
g2
Ntp113
Rp114
(dp115
g13
I01
sg14
F-0.2742036218480306
sg15
g112
sbs(I-12
I0
tp116
g0
(g9
g2
Ntp117
Rp118
(dp119
g13
I01
sg14
F-0.03953435947075323
sg15
g116
sbs(I-17
I4
tp120
g0
(g9
g2
Ntp121
Rp122
(dp123
g13
I01
sg14
F0.8152432652524013
sg15
g120
sbs(I-7
I0
tp124
g0
(g9
g2
Ntp125
Rp126
(dp127
g13
I01
sg14
F0.4683783787707199
sg15
g124
sbs(I-1
I1
tp128
g0
(g9
g2
Ntp129
Rp130
(dp131
g13
I01
sg14
F0.4415285501135957
sg15
g128
sbs(I-16
I4
tp132
g0
(g9
g2
Ntp133
Rp134
(dp135
g13
I01
sg14
F0.6692853254584554
sg15
g132
sbs(I-15
I1
tp136
g0
(g9
g2
Ntp137
Rp138
(dp139
g13
I01
sg14
F-0.05377649675012175
sg15
g136
sbs(I-13
I2
tp140
g0
(g9
g2
Ntp141
Rp142
(dp143
g13
I01
sg14
F0.5013190283569675
sg15
g140
sbs(I-8
I2
tp144
g0
(g9
g2
Ntp145
Rp146
(dp147
g13
I01
sg14
F0.5588283185675925
sg15
g144
sbs(I-7
I3
tp148
g0
(g9
g2
Ntp149
Rp150
(dp151
g13
I01
sg14
F0.8277650036743857
sg15
g148
sbs(I-10
I0
tp152
g0
(g9
g2
Ntp153
Rp154
(dp155
g13
I01
sg14
F0.34233561926520667
sg15
g152
sbs(I-5
I0
tp156
g0
(g9
g2
Ntp157
Rp158
(dp159
g13
I01
sg14
F0.5576477158849521
sg15
g156
sbs(I-2
I2
tp160
g0
(g9
g2
Ntp161
Rp162
(dp163
g13
I01
sg14
F-2.2162128006623134
sg15
g160
sbs(I-1
I2
tp164
g0
(g9
g2
Ntp165
Rp166
(dp167
g13
I01
sg14
F2.2961977141901952
sg15
g164
sbs(I-16
I1
tp168
g0
(g9
g2
Ntp169
Rp170
(dp171
g13
I01
sg14
F-0.07836212562080358
sg15
g168
sbs(I-20
I4
tp172
g0
(g9
g2
Ntp173
Rp174
(dp175
g13
I01
sg14
F-1.3035006180628135
sg15
g172
sbs(I-2
I4
tp176
g0
(g9
g2
Ntp177
Rp178
(dp179
g13
I01
sg14
F0.9491056872907232
sg15
g176
sbs(I-18
I3
tp180
g0
(g9
g2
Ntp181
Rp182
(dp183
g13
I01
sg14
F-0.42231654363763127
sg15
g180
sbs(I-13
I1
tp184
g0
(g9
g2
Ntp185
Rp186
(dp187
g13
I01
sg14
F1.3502646955403643
sg15
g184
sbs(I-3
I0
tp188
g0
(g9
g2
Ntp189
Rp190
(dp191
g13
I01
sg14
F-1.1745499032925437
sg15
g188
sbs(I-14
I1
tp192
g0
(g9
g2
Ntp193
Rp194
(dp195
g13
I01
sg14
F1.3931503345754819
sg15
g192
sbs(I-7
I4
tp196
g0
(g9
g2
Ntp197
Rp198
(dp199
g13
I01
sg14
F-0.0753905536120178
sg15
g196
sbs(I-11
I1
tp200
g0
(g9
g2
Ntp201
Rp202
(dp203
g13
I01
sg14
F0.9421629005286005
sg15
g200
sbs(I-6
I3
tp204
g0
(g9
g2
Ntp205
Rp206
(dp207
g13
I01
sg14
F1.5224309835050023
sg15
g204
sbs(I-9
I2
tp208
g0
(g9
g2
Ntp209
Rp210
(dp211
g13
I01
sg14
F0.9655214853134453
sg15
g208
sbs(I-3
I3
tp212
g0
(g9
g2
Ntp213
Rp214
(dp215
g13
I01
sg14
F-0.4260336852187558
sg15
g212
sbs(I-20
I3
tp216
g0
(g9
g2
Ntp217
Rp218
(dp219
g13
I01
sg14
F0.737084497956431
sg15
g216
sbs(I-19
I2
tp220
g0
(g9
g2
Ntp221
Rp222
(dp223
g13
I01
sg14
F0.9996625393098448
sg15
g220
sbs(I-14
I2
tp224
g0
(g9
g2
Ntp225
Rp226
(dp227
g13
I01
sg14
F2.158490952193445
sg15
g224
sbs(I-17
I3
tp228
g0
(g9
g2
Ntp229
Rp230
(dp231
g13
I01
sg14
F1.6333287836549641
sg15
g228
sbs(I-12
I1
tp232
g0
(g9
g2
Ntp233
Rp234
(dp235
g13
I00
sg14
F-0.03933795354242875
sg15
g232
sbs(I-10
I4
tp236
g0
(g9
g2
Ntp237
Rp238
(dp239
g13
I01
sg14
F1.7455823870918958
sg15
g236
sbs(I-11
I4
tp240
g0
(g9
g2
Ntp241
Rp242
(dp243
g13
I01
sg14
F0.6338106486596877
sg15
g240
sbs(I-5
I4
tp244
g0
(g9
g2
Ntp245
Rp246
(dp247
g13
I01
sg14
F0.7493003054431219
sg15
g244
sbs(I-6
I4
tp248
g0
(g9
g2
Ntp249
Rp250
(dp251
g13
I01
sg14
F0.24038035816127784
sg15
g248
sbs(I-9
I1
tp252
g0
(g9
g2
Ntp253
Rp254
(dp255
g13
I01
sg14
F-1.5069427499578179
sg15
g252
sbs(I-20
I0
tp256
g0
(g9
g2
Ntp257
Rp258
(dp259
g13
I01
sg14
F-0.2866750946023983
sg15
g256
sbs(I-15
I0
tp260
g0
(g9
g2
Ntp261
Rp262
(dp263
g13
I01
sg14
F1.0032795810982547
sg15
g260
sbs(I-8
I3
tp264
g0
(g9
g2
Ntp265
Rp266
(dp267
g13
I01
sg14
F1.9688860167645594
sg15
g264
sbs(I-7
I2
tp268
g0
(g9
g2
Ntp269
Rp270
(dp271
g13
I01
sg14
F1.4239637557115055
sg15
g268
sbs(I-10
I1
tp272
g0
(g9
g2
Ntp273
Rp274
(dp275
g13
I00
sg14
F1.4568654040331352
sg15
g272
sbs(I-5
I3
tp276
g0
(g9
g2
Ntp277
Rp278
(dp279
g13
I01
sg14
F0.11916797700161424
sg15
g276
sbs(I-9
I4
tp280
g0
(g9
g2
Ntp281
Rp282
(dp283
g13
I01
sg14
F0.09727802474658165
sg15
g280
sbs(I-4
I4
tp284
g0
(g9
g2
Ntp285
Rp286
(dp287
g13
I01
sg14
F-1.934293630690942
sg15
g284
sbs(I-1
I3
tp288
g0
(g9
g2
Ntp289
Rp290
(dp291
g13
I01
sg14
F-1.9217494562160926
sg15
g288
sbs(I-16
I2
tp292
g0
(g9
g2
Ntp293
Rp294
(dp295
g13
I01
sg14
F0.9065878570016159
sg15
g292
sbs(I-15
I3
tp296
g0
(g9
g2
Ntp297
Rp298
(dp299
g13
I01
sg14
F0.9921725832559132
sg15
g296
sbs(I-18
I0
tp300
g0
(g9
g2
Ntp301
Rp302
(dp303
g13
I01
sg14
F1.599136501154768
sg15
g300
sbs(I-13
I0
tp304
g0
(g9
g2
Ntp305
Rp306
(dp307
g13
I01
sg14
F1.7420960946305888
sg15
g304
sbs(I-8
I0
tp308
g0
(g9
g2
Ntp309
Rp310
(dp311
g13
I01
sg14
F-1.3481891888664166
sg15
g308
sbs(I-10
I2
tp312
g0
(g9
g2
Ntp313
Rp314
(dp315
g13
I01
sg14
F-0.872550656088286
sg15
g312
sbs(I-17
I1
tp316
g0
(g9
g2
Ntp317
Rp318
(dp319
g13
I01
sg14
F-2.812902494454468
sg15
g316
sbs(I-11
I0
tp320
g0
(g9
g2
Ntp321
Rp322
(dp323
g13
I01
sg14
F-0.35858963090770757
sg15
g320
sbs(I-6
I0
tp324
g0
(g9
g2
Ntp325
Rp326
(dp327
g13
I01
sg14
F-2.7251819526318113
sg15
g324
sbs(I-4
I3
tp328
g0
(g9
g2
Ntp329
Rp330
(dp331
g13
I01
sg14
F2.0081672783485227
sg15
g328
sbs(I-3
I2
tp332
g0
(g9
g2
Ntp333
Rp334
(dp335
g13
I01
sg14
F0.4027214768065618
sg15
g332
sbs(I-15
I4
tp336
g0
(g9
g2
Ntp337
Rp338
(dp339
g13
I01
sg14
F2.285238784109669
sg15
g336
sbs(I-19
I1
tp340
g0
(g9
g2
Ntp341
Rp342
(dp343
g13
I01
sg14
F-0.8545072035964736
sg15
g340
sbs(I-14
I3
tp344
g0
(g9
g2
Ntp345
Rp346
(dp347
g13
I01
sg14
F-1.8850876483551038
sg15
g344
sbs(I-17
I2
tp348
g0
(g9
g2
Ntp349
Rp350
(dp351
g13
I01
sg14
F2.2623548340174486
sg15
g348
sbs(I-12
I2
tp352
g0
(g9
g2
Ntp353
Rp354
(dp355
g13
I01
sg14
F0.8287998332785461
sg15
g352
sbs(I-2
I1
tp356
g0
(g9
g2
Ntp357
Rp358
(dp359
g13
I01
sg14
F-0.21734551326440638
sg15
g356
sbs(I-11
I3
tp360
g0
(g9
g2
Ntp361
Rp362
(dp363
g13
I01
sg14
F0.23119225197331073
sg15
g360
sbs(I-9
I0
tp364
g0
(g9
g2
Ntp365
Rp366
(dp367
g13
I01
sg14
F-3.3847203529906515
sg15
g364
sbs(I-4
I0
tp368
g0
(g9
g2
Ntp369
Rp370
(dp371
g13
I01
sg14
F-1.175847334907771
sg15
g368
sbs(I-20
I1
tp372
g0
(g9
g2
Ntp373
Rp374
(dp375
g13
I01
sg14
F2.823405102127259
sg15
g372
sbs(I-18
I4
tp376
g0
(g9
g2
Ntp377
Rp378
(dp379
g13
I01
sg14
F1.3330979387033488
sg15
g376
sbs(I-19
I4
tp380
g0
(g9
g2
Ntp381
Rp382
(dp383
g13
I01
sg14
F0.02290443007904297
sg15
g380
sbs(I-13
I4
tp384
g0
(g9
g2
Ntp385
Rp386
(dp387
g13
I01
sg14
F2.0236574641577842
sg15
g384
sbs(I-14
I4
tp388
g0
(g9
g2
Ntp389
Rp390
(dp391
g13
I01
sg14
F1.6531785022384362
sg15
g388
sbs(I-8
I4
tp392
g0
(g9
g2
Ntp393
Rp394
(dp395
g13
I01
sg14
F0.9394750364521631
sg15
g392
sbs(I-7
I1
tp396
g0
(g9
g2
Ntp397
Rp398
(dp399
g13
I01
sg14
F-0.24008320980588144
sg15
g396
sbs(I-5
I2
tp400
g0
(g9
g2
Ntp401
Rp402
(dp403
g13
I01
sg14
F0.9408670534876101
sg15
g400
sbssS'nodes'
p404
(dp405
I0
g0
(cneat.genes
DefaultNodeGene
p406
g2
Ntp407
Rp408
(dp409
S'activation'
p410
S'tanh'
p411
sS'bias'
p412
F-4.047206078721225
sS'response'
p413
F1.0
sg15
I0
sS'aggregation'
p414
S'sum'
p415
sbsI1
g0
(g406
g2
Ntp416
Rp417
(dp418
g410
g411
sg412
F-0.8834427031468368
sg413
F1.0
sg15
I1
sg414
g415
sbsI2
g0
(g406
g2
Ntp419
Rp420
(dp421
g410
g411
sg412
F-0.18747321779460785
sg413
F1.0
sg15
I2
sg414
g415
sbsI3
g0
(g406
g2
Ntp422
Rp423
(dp424
g410
g411
sg412
F-0.2593789615155072
sg413
F1.0
sg15
I3
sg414
g415
sbsI4
g0
(g406
g2
Ntp425
Rp426
(dp427
g410
g411
sg412
F-0.02883285367081096
sg413
F1.0
sg15
I4
sg414
g415
sbssg15
I236
sS'fitness'
p428
F82.0
sb.