ccopy_reg
_reconstructor
p0
(cneat.genome
DefaultGenome
p1
c__builtin__
object
p2
Ntp3
Rp4
(dp5
S'connections'
p6
(dp7
(I-15
I338
tp8
g0
(cneat.genes
DefaultConnectionGene
p9
g2
Ntp10
Rp11
(dp12
S'enabled'
p13
I01
sS'weight'
p14
F1.0
sS'key'
p15
g8
sbs(I-9
I339
tp16
g0
(g9
g2
Ntp17
Rp18
(dp19
g13
I01
sg14
F0.6509823100658945
sg15
g16
sbs(I-12
I343
tp20
g0
(g9
g2
Ntp21
Rp22
(dp23
g13
I01
sg14
F1.0
sg15
g20
sbs(I-11
I335
tp24
g0
(g9
g2
Ntp25
Rp26
(dp27
g13
I01
sg14
F-0.6471183032513441
sg15
g24
sbs(I-10
I342
tp28
g0
(g9
g2
Ntp29
Rp30
(dp31
g13
I01
sg14
F0.0359760475050845
sg15
g28
sbs(I-3
I340
tp32
g0
(g9
g2
Ntp33
Rp34
(dp35
g13
I01
sg14
F-1.0
sg15
g32
sbs(I-6
I342
tp36
g0
(g9
g2
Ntp37
Rp38
(dp39
g13
I01
sg14
F0.5240266561656117
sg15
g36
sbs(I-20
I335
tp40
g0
(g9
g2
Ntp41
Rp42
(dp43
g13
I01
sg14
F-0.5725239314360019
sg15
g40
sbs(I-4
I341
tp44
g0
(g9
g2
Ntp45
Rp46
(dp47
g13
I01
sg14
F-0.9159268233900659
sg15
g44
sbs(I339
I2
tp48
g0
(g9
g2
Ntp49
Rp50
(dp51
g13
I01
sg14
F1.0
sg15
g48
sbs(I-19
I343
tp52
g0
(g9
g2
Ntp53
Rp54
(dp55
g13
I01
sg14
F0.7462130661572589
sg15
g52
sbs(I344
I2
tp56
g0
(g9
g2
Ntp57
Rp58
(dp59
g13
I01
sg14
F0.04608159468930852
sg15
g56
sbs(I-18
I341
tp60
g0
(g9
g2
Ntp61
Rp62
(dp63
g13
I01
sg14
F-0.22073851965849134
sg15
g60
sbs(I-13
I343
tp64
g0
(g9
g2
Ntp65
Rp66
(dp67
g13
I01
sg14
F-0.0491634039872082
sg15
g64
sbs(I-1
I342
tp68
g0
(g9
g2
Ntp69
Rp70
(dp71
g13
I01
sg14
F-0.8531141211756632
sg15
g68
sbs(I342
I0
tp72
g0
(g9
g2
Ntp73
Rp74
(dp75
g13
I01
sg14
F0.9134948487673171
sg15
g72
sbs(I-11
I344
tp76
g0
(g9
g2
Ntp77
Rp78
(dp79
g13
I01
sg14
F-1.0
sg15
g76
sbs(I-7
I336
tp80
g0
(g9
g2
Ntp81
Rp82
(dp83
g13
I01
sg14
F1.0
sg15
g80
sbs(I-11
I341
tp84
g0
(g9
g2
Ntp85
Rp86
(dp87
g13
I01
sg14
F0.6789580436932792
sg15
g84
sbs(I-5
I341
tp88
g0
(g9
g2
Ntp89
Rp90
(dp91
g13
I01
sg14
F0.5593240241116797
sg15
g88
sbs(I-8
I337
tp92
g0
(g9
g2
Ntp93
Rp94
(dp95
g13
I01
sg14
F1.0
sg15
g92
sbs(I-9
I342
tp96
g0
(g9
g2
Ntp97
Rp98
(dp99
g13
I01
sg14
F-0.9318073997891725
sg15
g96
sbs(I-12
I340
tp100
g0
(g9
g2
Ntp101
Rp102
(dp103
g13
I01
sg14
F0.3962749739758613
sg15
g100
sbs(I-2
I344
tp104
g0
(g9
g2
Ntp105
Rp106
(dp107
g13
I01
sg14
F-1.0
sg15
g104
sbs(I-10
I339
tp108
g0
(g9
g2
Ntp109
Rp110
(dp111
g13
I01
sg14
F0.7753474874898024
sg15
g108
sbs(I-3
I343
tp112
g0
(g9
g2
Ntp113
Rp114
(dp115
g13
I01
sg14
F0.8727293761887709
sg15
g112
sbs(I-14
I339
tp116
g0
(g9
g2
Ntp117
Rp118
(dp119
g13
I01
sg14
F0.6963022698155634
sg15
g116
sbs(I339
I1
tp120
g0
(g9
g2
Ntp121
Rp122
(dp123
g13
I01
sg14
F1.0
sg15
g120
sbs(I-18
I342
tp124
g0
(g9
g2
Ntp125
Rp126
(dp127
g13
I01
sg14
F-0.5891546589352142
sg15
g124
sbs(I-13
I338
tp128
g0
(g9
g2
Ntp129
Rp130
(dp131
g13
I01
sg14
F0.8858062733739821
sg15
g128
sbs(I-8
I343
tp132
g0
(g9
g2
Ntp133
Rp134
(dp135
g13
I01
sg14
F-0.9237434154252909
sg15
g132
sbs(I-7
I339
tp136
g0
(g9
g2
Ntp137
Rp138
(dp139
g13
I01
sg14
F0.8782757896462042
sg15
g136
sbs(I-1
I343
tp140
g0
(g9
g2
Ntp141
Rp142
(dp143
g13
I01
sg14
F1.0
sg15
g140
sbs(I-8
I339
tp144
g0
(g9
g2
Ntp145
Rp146
(dp147
g13
I01
sg14
F-0.2603826771684412
sg15
g144
sbs(I-19
I336
tp148
g0
(g9
g2
Ntp149
Rp150
(dp151
g13
I01
sg14
F-0.7622671441205053
sg15
g148
sbs(I337
I1
tp152
g0
(g9
g2
Ntp153
Rp154
(dp155
g13
I01
sg14
F-0.12073461286854315
sg15
g152
sbs(I-5
I336
tp156
g0
(g9
g2
Ntp157
Rp158
(dp159
g13
I01
sg14
F-1.0
sg15
g156
sbs(I-16
I342
tp160
g0
(g9
g2
Ntp161
Rp162
(dp163
g13
I01
sg14
F-0.06762836551896773
sg15
g160
sbs(I-15
I344
tp164
g0
(g9
g2
Ntp165
Rp166
(dp167
g13
I01
sg14
F0.9200131064334395
sg15
g164
sbs(I-9
I341
tp168
g0
(g9
g2
Ntp169
Rp170
(dp171
g13
I01
sg14
F-1.0
sg15
g168
sbs(I-20
I337
tp172
g0
(g9
g2
Ntp173
Rp174
(dp175
g13
I01
sg14
F1.0
sg15
g172
sbs(I-6
I337
tp176
g0
(g9
g2
Ntp177
Rp178
(dp179
g13
I01
sg14
F-0.4814310177725396
sg15
g176
sbs(I-14
I340
tp180
g0
(g9
g2
Ntp181
Rp182
(dp183
g13
I01
sg14
F-0.4949560632401985
sg15
g180
sbs(I338
I1
tp184
g0
(g9
g2
Ntp185
Rp186
(dp187
g13
I01
sg14
F-0.8202060242136817
sg15
g184
sbs(I-18
I339
tp188
g0
(g9
g2
Ntp189
Rp190
(dp191
g13
I01
sg14
F-0.21105279688913262
sg15
g188
sbs(I341
I1
tp192
g0
(g9
g2
Ntp193
Rp194
(dp195
g13
I01
sg14
F-0.6574607327096649
sg15
g192
sbs(I-13
I337
tp196
g0
(g9
g2
Ntp197
Rp198
(dp199
g13
I01
sg14
F-0.6287696067941416
sg15
g196
sbs(I-2
I337
tp200
g0
(g9
g2
Ntp201
Rp202
(dp203
g13
I01
sg14
F1.0
sg15
g200
sbs(I343
I2
tp204
g0
(g9
g2
Ntp205
Rp206
(dp207
g13
I01
sg14
F0.021320618673534714
sg15
g204
sbs(I-8
I344
tp208
g0
(g9
g2
Ntp209
Rp210
(dp211
g13
I01
sg14
F1.0
sg15
g208
sbs(I-15
I342
tp212
g0
(g9
g2
Ntp213
Rp214
(dp215
g13
I01
sg14
F-0.11481681561401033
sg15
g212
sbs(I-2
I336
tp216
g0
(g9
g2
Ntp217
Rp218
(dp219
g13
I01
sg14
F-0.31986177216321454
sg15
g216
sbs(I-12
I339
tp220
g0
(g9
g2
Ntp221
Rp222
(dp223
g13
I01
sg14
F-0.5440654788548873
sg15
g220
sbs(I-19
I339
tp224
g0
(g9
g2
Ntp225
Rp226
(dp227
g13
I01
sg14
F0.8825255106387909
sg15
g224
sbs(I-16
I339
tp228
g0
(g9
g2
Ntp229
Rp230
(dp231
g13
I01
sg14
F-1.0
sg15
g228
sbs(I-15
I335
tp232
g0
(g9
g2
Ntp233
Rp234
(dp235
g13
I01
sg14
F-0.6097395427675538
sg15
g232
sbs(I-9
I344
tp236
g0
(g9
g2
Ntp237
Rp238
(dp239
g13
I01
sg14
F-0.12797407814285386
sg15
g236
sbs(I-20
I342
tp240
g0
(g9
g2
Ntp241
Rp242
(dp243
g13
I01
sg14
F-0.7055717618418205
sg15
g240
sbs(I-3
I336
tp244
g0
(g9
g2
Ntp245
Rp246
(dp247
g13
I01
sg14
F0.6985466440292603
sg15
g244
sbs(I-6
I338
tp248
g0
(g9
g2
Ntp249
Rp250
(dp251
g13
I01
sg14
F-0.44427585134155534
sg15
g248
sbs(I-6
I335
tp252
g0
(g9
g2
Ntp253
Rp254
(dp255
g13
I01
sg14
F1.0
sg15
g252
sbs(I-4
I337
tp256
g0
(g9
g2
Ntp257
Rp258
(dp259
g13
I01
sg14
F-1.0
sg15
g256
sbs(I338
I2
tp260
g0
(g9
g2
Ntp261
Rp262
(dp263
g13
I01
sg14
F0.3237259463837227
sg15
g260
sbs(I335
I3
tp264
g0
(g9
g2
Ntp265
Rp266
(dp267
g13
I01
sg14
F-0.6888144204044978
sg15
g264
sbs(I340
I1
tp268
g0
(g9
g2
Ntp269
Rp270
(dp271
g13
I01
sg14
F-0.03925635235166319
sg15
g268
sbs(I-3
I341
tp272
g0
(g9
g2
Ntp273
Rp274
(dp275
g13
I01
sg14
F1.0
sg15
g272
sbs(I342
I4
tp276
g0
(g9
g2
Ntp277
Rp278
(dp279
g13
I01
sg14
F-1.0
sg15
g276
sbs(I-4
I335
tp280
g0
(g9
g2
Ntp281
Rp282
(dp283
g13
I01
sg14
F-0.8931869762029199
sg15
g280
sbs(I-7
I340
tp284
g0
(g9
g2
Ntp285
Rp286
(dp287
g13
I01
sg14
F-0.9581183149125906
sg15
g284
sbs(I343
I1
tp288
g0
(g9
g2
Ntp289
Rp290
(dp291
g13
I01
sg14
F-0.8153946721695691
sg15
g288
sbs(I-11
I337
tp292
g0
(g9
g2
Ntp293
Rp294
(dp295
g13
I01
sg14
F-1.0
sg15
g292
sbs(I-8
I341
tp296
g0
(g9
g2
Ntp297
Rp298
(dp299
g13
I01
sg14
F0.14084231219006121
sg15
g296
sbs(I-15
I337
tp300
g0
(g9
g2
Ntp301
Rp302
(dp303
g13
I01
sg14
F0.2880536916195561
sg15
g300
sbs(I-9
I338
tp304
g0
(g9
g2
Ntp305
Rp306
(dp307
g13
I01
sg14
F-0.23481239658664452
sg15
g304
sbs(I-12
I336
tp308
g0
(g9
g2
Ntp309
Rp310
(dp311
g13
I01
sg14
F0.3983078973157474
sg15
g308
sbs(I-19
I342
tp312
g0
(g9
g2
Ntp313
Rp314
(dp315
g13
I01
sg14
F-1.0
sg15
g312
sbs(I-6
I344
tp316
g0
(g9
g2
Ntp317
Rp318
(dp319
g13
I01
sg14
F1.0
sg15
g316
sbs(I-16
I336
tp320
g0
(g9
g2
Ntp321
Rp322
(dp323
g13
I01
sg14
F0.7655787374871318
sg15
g320
sbs(I-10
I343
tp324
g0
(g9
g2
Ntp325
Rp326
(dp327
g13
I01
sg14
F-0.5359545785986372
sg15
g324
sbs(I-3
I339
tp328
g0
(g9
g2
Ntp329
Rp330
(dp331
g13
I01
sg14
F0.8792554905470796
sg15
g328
sbs(I-6
I343
tp332
g0
(g9
g2
Ntp333
Rp334
(dp335
g13
I01
sg14
F-0.8477014273777562
sg15
g332
sbs(I-5
I335
tp336
g0
(g9
g2
Ntp337
Rp338
(dp339
g13
I01
sg14
F-0.19975887979866835
sg15
g336
sbs(I337
I0
tp340
g0
(g9
g2
Ntp341
Rp342
(dp343
g13
I01
sg14
F0.0073529263444281345
sg15
g340
sbs(I-4
I342
tp344
g0
(g9
g2
Ntp345
Rp346
(dp347
g13
I01
sg14
F-0.9173885434075728
sg15
g344
sbs(I344
I3
tp348
g0
(g9
g2
Ntp349
Rp350
(dp351
g13
I01
sg14
F-0.8307584327617337
sg15
g348
sbs(I-13
I342
tp352
g0
(g9
g2
Ntp353
Rp354
(dp355
g13
I01
sg14
F-1.0
sg15
g352
sbs(I336
I4
tp356
g0
(g9
g2
Ntp357
Rp358
(dp359
g13
I01
sg14
F0.06656826835692597
sg15
g356
sbs(I342
I1
tp360
g0
(g9
g2
Ntp361
Rp362
(dp363
g13
I01
sg14
F-1.0
sg15
g360
sbs(I-1
I336
tp364
g0
(g9
g2
Ntp365
Rp366
(dp367
g13
I01
sg14
F0.3947043197538834
sg15
g364
sbs(I343
I4
tp368
g0
(g9
g2
Ntp369
Rp370
(dp371
g13
I01
sg14
F-0.5797334437078612
sg15
g368
sbs(I-11
I340
tp372
g0
(g9
g2
Ntp373
Rp374
(dp375
g13
I01
sg14
F0.765178743005393
sg15
g372
sbs(I-5
I340
tp376
g0
(g9
g2
Ntp377
Rp378
(dp379
g13
I01
sg14
F1.0
sg15
g376
sbs(I-17
I343
tp380
g0
(g9
g2
Ntp381
Rp382
(dp383
g13
I01
sg14
F-0.004883413953451414
sg15
g380
sbs(I-1
I335
tp384
g0
(g9
g2
Ntp385
Rp386
(dp387
g13
I01
sg14
F-0.16764204035882188
sg15
g384
sbs(I-9
I337
tp388
g0
(g9
g2
Ntp389
Rp390
(dp391
g13
I01
sg14
F-0.04692015202598512
sg15
g388
sbs(I-12
I341
tp392
g0
(g9
g2
Ntp393
Rp394
(dp395
g13
I01
sg14
F0.2532719580418846
sg15
g392
sbs(I344
I1
tp396
g0
(g9
g2
Ntp397
Rp398
(dp399
g13
I01
sg14
F1.0
sg15
g396
sbs(I-10
I336
tp400
g0
(g9
g2
Ntp401
Rp402
(dp403
g13
I01
sg14
F-0.8632513191772883
sg15
g400
sbs(I-20
I344
tp404
g0
(g9
g2
Ntp405
Rp406
(dp407
g13
I01
sg14
F-1.0
sg15
g404
sbs(I-3
I342
tp408
g0
(g9
g2
Ntp409
Rp410
(dp411
g13
I01
sg14
F0.6664872295692864
sg15
g408
sbs(I-14
I336
tp412
g0
(g9
g2
Ntp413
Rp414
(dp415
g13
I01
sg14
F-1.0
sg15
g412
sbs(I337
I3
tp416
g0
(g9
g2
Ntp417
Rp418
(dp419
g13
I01
sg14
F-0.7046531059584957
sg15
g416
sbs(I-9
I335
tp420
g0
(g9
g2
Ntp421
Rp422
(dp423
g13
I01
sg14
F-0.2758845555364927
sg15
g420
sbs(I-4
I338
tp424
g0
(g9
g2
Ntp425
Rp426
(dp427
g13
I01
sg14
F-0.8850769320658217
sg15
g424
sbs(I339
I0
tp428
g0
(g9
g2
Ntp429
Rp430
(dp431
g13
I01
sg14
F0.36352771489595725
sg15
g428
sbs(I344
I0
tp432
g0
(g9
g2
Ntp433
Rp434
(dp435
g13
I01
sg14
F-0.9326692003476944
sg15
g432
sbs(I-18
I343
tp436
g0
(g9
g2
Ntp437
Rp438
(dp439
g13
I01
sg14
F0.1628074127562109
sg15
g436
sbs(I-13
I341
tp440
g0
(g9
g2
Ntp441
Rp442
(dp443
g13
I01
sg14
F-0.3586339237581556
sg15
g440
sbs(I342
I2
tp444
g0
(g9
g2
Ntp445
Rp446
(dp447
g13
I01
sg14
F0.20400771003129967
sg15
g444
sbs(I-7
I338
tp448
g0
(g9
g2
Ntp449
Rp450
(dp451
g13
I01
sg14
F-1.0
sg15
g448
sbs(I-1
I340
tp452
g0
(g9
g2
Ntp453
Rp454
(dp455
g13
I01
sg14
F-0.14802009393025614
sg15
g452
sbs(I-11
I343
tp456
g0
(g9
g2
Ntp457
Rp458
(dp459
g13
I01
sg14
F-1.0
sg15
g456
sbs(I-5
I339
tp460
g0
(g9
g2
Ntp461
Rp462
(dp463
g13
I01
sg14
F1.0
sg15
g460
sbs(I-8
I335
tp464
g0
(g9
g2
Ntp465
Rp466
(dp467
g13
I01
sg14
F-0.48902823280962066
sg15
g464
sbs(I-9
I340
tp468
g0
(g9
g2
Ntp469
Rp470
(dp471
g13
I01
sg14
F0.16916028126388216
sg15
g468
sbs(I-17
I340
tp472
g0
(g9
g2
Ntp473
Rp474
(dp475
g13
I01
sg14
F0.6181219373608212
sg15
g472
sbs(I-14
I341
tp476
g0
(g9
g2
Ntp477
Rp478
(dp479
g13
I01
sg14
F0.8245466166900471
sg15
g476
sbs(I-8
I336
tp480
g0
(g9
g2
Ntp481
Rp482
(dp483
g13
I01
sg14
F0.5997582946250665
sg15
g480
sbs(I-4
I344
tp484
g0
(g9
g2
Ntp485
Rp486
(dp487
g13
I01
sg14
F1.0
sg15
g484
sbs(I-2
I335
tp488
g0
(g9
g2
Ntp489
Rp490
(dp491
g13
I01
sg14
F-0.2848552564968635
sg15
g488
sbs(I-18
I336
tp492
g0
(g9
g2
Ntp493
Rp494
(dp495
g13
I01
sg14
F-0.6810608422706395
sg15
g492
sbs(I341
I0
tp496
g0
(g9
g2
Ntp497
Rp498
(dp499
g13
I01
sg14
F1.0
sg15
g496
sbs(I-13
I336
tp500
g0
(g9
g2
Ntp501
Rp502
(dp503
g13
I01
sg14
F0.7488706856465901
sg15
g500
sbs(I-1
I338
tp504
g0
(g9
g2
Ntp505
Rp506
(dp507
g13
I00
sg14
F-1.0
sg15
g504
sbs(I-7
I344
tp508
g0
(g9
g2
Ntp509
Rp510
(dp511
g13
I01
sg14
F0.6766151645133025
sg15
g508
sbs(I-7
I335
tp512
g0
(g9
g2
Ntp513
Rp514
(dp515
g13
I01
sg14
F1.0
sg15
g512
sbs(I-15
I341
tp516
g0
(g9
g2
Ntp517
Rp518
(dp519
g13
I01
sg14
F-1.0
sg15
g516
sbs(I-1
I337
tp520
g0
(g9
g2
Ntp521
Rp522
(dp523
g13
I01
sg14
F0.8523475348663063
sg15
g520
sbs(I-19
I338
tp524
g0
(g9
g2
Ntp525
Rp526
(dp527
g13
I01
sg14
F0.9374366192092602
sg15
g524
sbs(I-16
I340
tp528
g0
(g9
g2
Ntp529
Rp530
(dp531
g13
I01
sg14
F-1.0
sg15
g528
sbs(I-20
I343
tp532
g0
(g9
g2
Ntp533
Rp534
(dp535
g13
I01
sg14
F0.5427463381700748
sg15
g532
sbs(I-6
I339
tp536
g0
(g9
g2
Ntp537
Rp538
(dp539
g13
I01
sg14
F-0.690593545767191
sg15
g536
sbs(I337
I4
tp540
g0
(g9
g2
Ntp541
Rp542
(dp543
g13
I01
sg14
F1.0
sg15
g540
sbs(I336
I1
tp544
g0
(g9
g2
Ntp545
Rp546
(dp547
g13
I01
sg14
F0.7434306454628385
sg15
g544
sbs(I-14
I342
tp548
g0
(g9
g2
Ntp549
Rp550
(dp551
g13
I01
sg14
F-1.0
sg15
g548
sbs(I338
I3
tp552
g0
(g9
g2
Ntp553
Rp554
(dp555
g13
I01
sg14
F0.5393087631300112
sg15
g552
sbs(I-2
I341
tp556
g0
(g9
g2
Ntp557
Rp558
(dp559
g13
I01
sg14
F0.6211919149411441
sg15
g556
sbs(I335
I2
tp560
g0
(g9
g2
Ntp561
Rp562
(dp563
g13
I01
sg14
F1.0
sg15
g560
sbs(I340
I2
tp564
g0
(g9
g2
Ntp565
Rp566
(dp567
g13
I01
sg14
F1.0
sg15
g564
sbs(I341
I3
tp568
g0
(g9
g2
Ntp569
Rp570
(dp571
g13
I01
sg14
F0.345552411966125
sg15
g568
sbs(I-13
I335
tp572
g0
(g9
g2
Ntp573
Rp574
(dp575
g13
I01
sg14
F1.0
sg15
g572
sbs(I343
I0
tp576
g0
(g9
g2
Ntp577
Rp578
(dp579
g13
I01
sg14
F1.0
sg15
g576
sbs(I-11
I336
tp580
g0
(g9
g2
Ntp581
Rp582
(dp583
g13
I01
sg14
F-0.46456699144260905
sg15
g580
sbs(I-8
I342
tp584
g0
(g9
g2
Ntp585
Rp586
(dp587
g13
I01
sg14
F-1.0
sg15
g584
sbs(I-15
I336
tp588
g0
(g9
g2
Ntp589
Rp590
(dp591
g13
I01
sg14
F-0.7858152130201939
sg15
g588
sbs(I-2
I338
tp592
g0
(g9
g2
Ntp593
Rp594
(dp595
g13
I01
sg14
F0.02535209494015561
sg15
g592
sbs(I-12
I337
tp596
g0
(g9
g2
Ntp597
Rp598
(dp599
g13
I01
sg14
F1.0
sg15
g596
sbs(I-19
I341
tp600
g0
(g9
g2
Ntp601
Rp602
(dp603
g13
I01
sg14
F0.09104037808477436
sg15
g600
sbs(I-16
I337
tp604
g0
(g9
g2
Ntp605
Rp606
(dp607
g13
I01
sg14
F-0.727743820181797
sg15
g604
sbs(I-10
I340
tp608
g0
(g9
g2
Ntp609
Rp610
(dp611
g13
I01
sg14
F-0.6148920904565119
sg15
g608
sbs(I-20
I340
tp612
g0
(g9
g2
Ntp613
Rp614
(dp615
g13
I01
sg14
F-0.4106391738814384
sg15
g612
sbs(I-3
I338
tp616
g0
(g9
g2
Ntp617
Rp618
(dp619
g13
I01
sg14
F0.1828648621043816
sg15
g616
sbs(I-6
I340
tp620
g0
(g9
g2
Ntp621
Rp622
(dp623
g13
I01
sg14
F-0.38980746236849834
sg15
g620
sbs(I-4
I343
tp624
g0
(g9
g2
Ntp625
Rp626
(dp627
g13
I01
sg14
F0.011250441732659096
sg15
g624
sbs(I339
I4
tp628
g0
(g9
g2
Ntp629
Rp630
(dp631
g13
I01
sg14
F-0.33627843224141685
sg15
g628
sbs(I338
I4
tp632
g0
(g9
g2
Ntp633
Rp634
(dp635
g13
I01
sg14
F0.6198828111573
sg15
g632
sbs(I335
I1
tp636
g0
(g9
g2
Ntp637
Rp638
(dp639
g13
I01
sg14
F0.2039315701371528
sg15
g636
sbs(I-20
I339
tp640
g0
(g9
g2
Ntp641
Rp642
(dp643
g13
I01
sg14
F0.6602061834559574
sg15
g640
sbs(I-17
I339
tp644
g0
(g9
g2
Ntp645
Rp646
(dp647
g13
I01
sg14
F-1.0
sg15
g644
sbs(I-7
I342
tp648
g0
(g9
g2
Ntp649
Rp650
(dp651
g13
I01
sg14
F-0.1698718402070533
sg15
g648
sbs(I-1
I344
tp652
g0
(g9
g2
Ntp653
Rp654
(dp655
g13
I01
sg14
F-1.0
sg15
g652
sbs(I-11
I339
tp656
g0
(g9
g2
Ntp657
Rp658
(dp659
g13
I01
sg14
F-0.6908362602650752
sg15
g656
sbs(I-5
I343
tp660
g0
(g9
g2
Ntp661
Rp662
(dp663
g13
I01
sg14
F-0.6247329044423271
sg15
g660
sbs(I-17
I342
tp664
g0
(g9
g2
Ntp665
Rp666
(dp667
g13
I01
sg14
F-0.34737621349498077
sg15
g664
sbs(I-15
I339
tp668
g0
(g9
g2
Ntp669
Rp670
(dp671
g13
I01
sg14
F1.0
sg15
g668
sbs(I-9
I336
tp672
g0
(g9
g2
Ntp673
Rp674
(dp675
g13
I01
sg14
F0.8210923700795438
sg15
g672
sbs(I-12
I342
tp676
g0
(g9
g2
Ntp677
Rp678
(dp679
g13
I01
sg14
F1.0
sg15
g676
sbs(I-19
I344
tp680
g0
(g9
g2
Ntp681
Rp682
(dp683
g13
I01
sg14
F0.9576706395983212
sg15
g680
sbs(I-5
I344
tp684
g0
(g9
g2
Ntp685
Rp686
(dp687
g13
I01
sg14
F-1.0
sg15
g684
sbs(I336
I3
tp688
g0
(g9
g2
Ntp689
Rp690
(dp691
g13
I01
sg14
F0.8372398655507657
sg15
g688
sbs(I-17
I338
tp692
g0
(g9
g2
Ntp693
Rp694
(dp695
g13
I01
sg14
F-0.5753379485069443
sg15
g692
sbs(I341
I4
tp696
g0
(g9
g2
Ntp697
Rp698
(dp699
g13
I01
sg14
F-0.4966534950158905
sg15
g696
sbs(I-14
I337
tp700
g0
(g9
g2
Ntp701
Rp702
(dp703
g13
I01
sg14
F-0.22273433364875783
sg15
g700
sbs(I337
I2
tp704
g0
(g9
g2
Ntp705
Rp706
(dp707
g13
I01
sg14
F-0.009419268964167893
sg15
g704
sbs(I-4
I340
tp708
g0
(g9
g2
Ntp709
Rp710
(dp711
g13
I01
sg14
F-0.8529317022685603
sg15
g708
sbs(I-16
I338
tp712
g0
(g9
g2
Ntp713
Rp714
(dp715
g13
I01
sg14
F-0.7864916227763891
sg15
g712
sbs(I339
I3
tp716
g0
(g9
g2
Ntp717
Rp718
(dp719
g13
I01
sg14
F-0.03537085964878395
sg15
g716
sbs(I-2
I340
tp720
g0
(g9
g2
Ntp721
Rp722
(dp723
g13
I01
sg14
F-0.9448504548824813
sg15
g720
sbs(I335
I4
tp724
g0
(g9
g2
Ntp725
Rp726
(dp727
g13
I01
sg14
F-0.3569091861044691
sg15
g724
sbs(I-18
I340
tp728
g0
(g9
g2
Ntp729
Rp730
(dp731
g13
I01
sg14
F-0.9160506695152848
sg15
g728
sbs(I340
I4
tp732
g0
(g9
g2
Ntp733
Rp734
(dp735
g13
I01
sg14
F1.0
sg15
g732
sbs(I-13
I340
tp736
g0
(g9
g2
Ntp737
Rp738
(dp739
g13
I01
sg14
F0.969284912011505
sg15
g736
sbs(I342
I3
tp740
g0
(g9
g2
Ntp741
Rp742
(dp743
g13
I01
sg14
F0.22445637172020622
sg15
g740
sbs(I-19
I335
tp744
g0
(g9
g2
Ntp745
Rp746
(dp747
g13
I01
sg14
F-0.8831628848561268
sg15
g744
sbs(I-17
I344
tp748
g0
(g9
g2
Ntp749
Rp750
(dp751
g13
I01
sg14
F0.6438880421406585
sg15
g748
sbs(I-7
I337
tp752
g0
(g9
g2
Ntp753
Rp754
(dp755
g13
I01
sg14
F-0.8794224918573097
sg15
g752
sbs(I-1
I341
tp756
g0
(g9
g2
Ntp757
Rp758
(dp759
g13
I01
sg14
F-0.8530972578571642
sg15
g756
sbs(I-12
I344
tp760
g0
(g9
g2
Ntp761
Rp762
(dp763
g13
I01
sg14
F-0.05254345406859359
sg15
g760
sbs(I-11
I342
tp764
g0
(g9
g2
Ntp765
Rp766
(dp767
g13
I01
sg14
F-0.9629231131594381
sg15
g764
sbs(I-10
I335
tp768
g0
(g9
g2
Ntp769
Rp770
(dp771
g13
I01
sg14
F-0.8235768927093259
sg15
g768
sbs(I-5
I338
tp772
g0
(g9
g2
Ntp773
Rp774
(dp775
g13
I01
sg14
F0.5583253131493577
sg15
g772
sbs(I-17
I341
tp776
g0
(g9
g2
Ntp777
Rp778
(dp779
g13
I01
sg14
F0.5410426338234675
sg15
g776
sbs(I-9
I343
tp780
g0
(g9
g2
Ntp781
Rp782
(dp783
g13
I01
sg14
F-0.6518774606463318
sg15
g780
sbs(I-3
I335
tp784
g0
(g9
g2
Ntp785
Rp786
(dp787
g13
I01
sg14
F-0.7412771998439952
sg15
g784
sbs(I-8
I338
tp788
g0
(g9
g2
Ntp789
Rp790
(dp791
g13
I01
sg14
F-0.8137835594101371
sg15
g788
sbs(I336
I0
tp792
g0
(g9
g2
Ntp793
Rp794
(dp795
g13
I01
sg14
F0.29106589942914873
sg15
g792
sbs(I-1
I339
tp796
g0
(g9
g2
Ntp797
Rp798
(dp799
g13
I01
sg14
F-1.0
sg15
g796
sbs(I-16
I343
tp800
g0
(g9
g2
Ntp801
Rp802
(dp803
g13
I01
sg14
F-0.12737232327450915
sg15
g800
sbs(I-3
I344
tp804
g0
(g9
g2
Ntp805
Rp806
(dp807
g13
I01
sg14
F-0.5625332925743587
sg15
g804
sbs(I-14
I338
tp808
g0
(g9
g2
Ntp809
Rp810
(dp811
g13
I01
sg14
F-0.2697302049949539
sg15
g808
sbs(I-18
I337
tp812
g0
(g9
g2
Ntp813
Rp814
(dp815
g13
I01
sg14
F0.3801726559144307
sg15
g812
sbs(I-13
I339
tp816
g0
(g9
g2
Ntp817
Rp818
(dp819
g13
I01
sg14
F-0.981139854766825
sg15
g816
sbs(I-20
I338
tp820
g0
(g9
g2
Ntp821
Rp822
(dp823
g13
I01
sg14
F1.0
sg15
g820
sbs(I-17
I336
tp824
g0
(g9
g2
Ntp825
Rp826
(dp827
g13
I01
sg14
F0.854696009927304
sg15
g824
sbs(I-15
I340
tp828
g0
(g9
g2
Ntp829
Rp830
(dp831
g13
I01
sg14
F0.8041529177831532
sg15
g828
sbs(I-2
I342
tp832
g0
(g9
g2
Ntp833
Rp834
(dp835
g13
I01
sg14
F-0.20278051953596227
sg15
g832
sbs(I-19
I337
tp836
g0
(g9
g2
Ntp837
Rp838
(dp839
g13
I01
sg14
F0.8398148545408857
sg15
g836
sbs(I-5
I337
tp840
g0
(g9
g2
Ntp841
Rp842
(dp843
g13
I01
sg14
F-0.6671336401140422
sg15
g840
sbs(I-16
I341
tp844
g0
(g9
g2
Ntp845
Rp846
(dp847
g13
I01
sg14
F1.0
sg15
g844
sbs(I-20
I336
tp848
g0
(g9
g2
Ntp849
Rp850
(dp851
g13
I01
sg14
F0.47931718656732236
sg15
g848
sbs(I-6
I336
tp852
g0
(g9
g2
Ntp853
Rp854
(dp855
g13
I01
sg14
F-0.875212009485285
sg15
g852
sbs(I336
I2
tp856
g0
(g9
g2
Ntp857
Rp858
(dp859
g13
I01
sg14
F-1.0
sg15
g856
sbs(I-16
I344
tp860
g0
(g9
g2
Ntp861
Rp862
(dp863
g13
I01
sg14
F0.7281058092505789
sg15
g860
sbs(I-10
I338
tp864
g0
(g9
g2
Ntp865
Rp866
(dp867
g13
I01
sg14
F-0.5584457299595589
sg15
g864
sbs(I-7
I343
tp868
g0
(g9
g2
Ntp869
Rp870
(dp871
g13
I01
sg14
F-0.16189411739213294
sg15
g868
sbs(I-4
I339
tp872
g0
(g9
g2
Ntp873
Rp874
(dp875
g13
I01
sg14
F-0.44049920172863205
sg15
g872
sbs(I-14
I343
tp876
g0
(g9
g2
Ntp877
Rp878
(dp879
g13
I01
sg14
F-0.6317734420410503
sg15
g876
sbs(I338
I0
tp880
g0
(g9
g2
Ntp881
Rp882
(dp883
g13
I01
sg14
F0.5073053706087041
sg15
g880
sbs(I340
I3
tp884
g0
(g9
g2
Ntp885
Rp886
(dp887
g13
I01
sg14
F0.6478966033474374
sg15
g884
sbs(I-2
I343
tp888
g0
(g9
g2
Ntp889
Rp890
(dp891
g13
I01
sg14
F0.7076218009200591
sg15
g888
sbs(I-12
I335
tp892
g0
(g9
g2
Ntp893
Rp894
(dp895
g13
I01
sg14
F1.0
sg15
g892
sbs(I-18
I338
tp896
g0
(g9
g2
Ntp897
Rp898
(dp899
g13
I01
sg14
F-0.38557444355672554
sg15
g896
sbs(I341
I2
tp900
g0
(g9
g2
Ntp901
Rp902
(dp903
g13
I01
sg14
F-0.6961777162065624
sg15
g900
sbs(I343
I3
tp904
g0
(g9
g2
Ntp905
Rp906
(dp907
g13
I01
sg14
F0.7305119664660119
sg15
g904
sbs(I-16
I335
tp908
g0
(g9
g2
Ntp909
Rp910
(dp911
g13
I01
sg14
F-0.7234111422156309
sg15
g908
sbs(I-15
I343
tp912
g0
(g9
g2
Ntp913
Rp914
(dp915
g13
I01
sg14
F0.4226737098252299
sg15
g912
sbs(I-2
I339
tp916
g0
(g9
g2
Ntp917
Rp918
(dp919
g13
I01
sg14
F-1.0
sg15
g916
sbs(I-12
I338
tp920
g0
(g9
g2
Ntp921
Rp922
(dp923
g13
I01
sg14
F-0.6958291830948349
sg15
g920
sbs(I-19
I340
tp924
g0
(g9
g2
Ntp925
Rp926
(dp927
g13
I01
sg14
F-0.8127510316455412
sg15
g924
sbs(I344
I4
tp928
g0
(g9
g2
Ntp929
Rp930
(dp931
g13
I01
sg14
F7.8095086397445e-05
sg15
g928
sbs(I-17
I335
tp932
g0
(g9
g2
Ntp933
Rp934
(dp935
g13
I01
sg14
F-0.9918810942631768
sg15
g932
sbs(I-10
I341
tp936
g0
(g9
g2
Ntp937
Rp938
(dp939
g13
I01
sg14
F-0.5487193379760225
sg15
g936
sbs(I-20
I341
tp940
g0
(g9
g2
Ntp941
Rp942
(dp943
g13
I01
sg14
F-1.0
sg15
g940
sbs(I-3
I337
tp944
g0
(g9
g2
Ntp945
Rp946
(dp947
g13
I01
sg14
F1.0
sg15
g944
sbs(I-6
I341
tp948
g0
(g9
g2
Ntp949
Rp950
(dp951
g13
I01
sg14
F-0.7164890350202686
sg15
g948
sbs(I-10
I344
tp952
g0
(g9
g2
Ntp953
Rp954
(dp955
g13
I01
sg14
F-1.0
sg15
g952
sbs(I-4
I336
tp956
g0
(g9
g2
Ntp957
Rp958
(dp959
g13
I01
sg14
F-0.5359530969579623
sg15
g956
sbs(I-14
I344
tp960
g0
(g9
g2
Ntp961
Rp962
(dp963
g13
I01
sg14
F0.8963149553749485
sg15
g960
sbs(I335
I0
tp964
g0
(g9
g2
Ntp965
Rp966
(dp967
g13
I01
sg14
F0.32349118483352324
sg15
g964
sbs(I-18
I344
tp968
g0
(g9
g2
Ntp969
Rp970
(dp971
g13
I01
sg14
F0.7136631281455365
sg15
g968
sbs(I340
I0
tp972
g0
(g9
g2
Ntp973
Rp974
(dp975
g13
I01
sg14
F-1.0
sg15
g972
sbs(I-13
I344
tp976
g0
(g9
g2
Ntp977
Rp978
(dp979
g13
I01
sg14
F-1.0
sg15
g976
sbs(I-14
I335
tp980
g0
(g9
g2
Ntp981
Rp982
(dp983
g13
I01
sg14
F-0.2659547533320583
sg15
g980
sbs(I-10
I337
tp984
g0
(g9
g2
Ntp985
Rp986
(dp987
g13
I00
sg14
F0.10765720457643946
sg15
g984
sbs(I-18
I335
tp988
g0
(g9
g2
Ntp989
Rp990
(dp991
g13
I01
sg14
F-1.0
sg15
g988
sbs(I-7
I341
tp992
g0
(g9
g2
Ntp993
Rp994
(dp995
g13
I01
sg14
F-1.0
sg15
g992
sbs(I-8
I340
tp996
g0
(g9
g2
Ntp997
Rp998
(dp999
g13
I01
sg14
F-0.06969061867075127
sg15
g996
sbs(I-11
I338
tp1000
g0
(g9
g2
Ntp1001
Rp1002
(dp1003
g13
I01
sg14
F-0.5063948820841214
sg15
g1000
sbs(I-5
I342
tp1004
g0
(g9
g2
Ntp1005
Rp1006
(dp1007
g13
I01
sg14
F1.0
sg15
g1004
sbs(I-17
I337
tp1008
g0
(g9
g2
Ntp1009
Rp1010
(dp1011
g13
I01
sg14
F-0.02368827425935094
sg15
g1008
sbssS'nodes'
p1012
(dp1013
I0
g0
(cneat.genes
DefaultNodeGene
p1014
g2
Ntp1015
Rp1016
(dp1017
S'activation'
p1018
S'sigmoid'
p1019
sS'bias'
p1020
F-0.8407985856908045
sS'response'
p1021
F1.0
sg15
I0
sS'aggregation'
p1022
S'product'
p1023
sbsI1
g0
(g1014
g2
Ntp1024
Rp1025
(dp1026
g1018
g1019
sg1020
F0.3086500118008141
sg1021
F1.0
sg15
I1
sg1022
g1023
sbsI2
g0
(g1014
g2
Ntp1027
Rp1028
(dp1029
g1018
g1019
sg1020
F0.5043406023759645
sg1021
F1.0
sg15
I2
sg1022
g1023
sbsI3
g0
(g1014
g2
Ntp1030
Rp1031
(dp1032
g1018
g1019
sg1020
F-0.933064186274782
sg1021
F1.0
sg15
I3
sg1022
g1023
sbsI4
g0
(g1014
g2
Ntp1033
Rp1034
(dp1035
g1018
g1019
sg1020
F1.0
sg1021
F1.0
sg15
I4
sg1022
g1023
sbsI335
g0
(g1014
g2
Ntp1036
Rp1037
(dp1038
g1018
g1019
sg1020
F-0.4749788894813115
sg1021
F1.0
sg15
I335
sg1022
g1023
sbsI336
g0
(g1014
g2
Ntp1039
Rp1040
(dp1041
g1018
g1019
sg1020
F-1.0
sg1021
F1.0
sg15
I336
sg1022
g1023
sbsI337
g0
(g1014
g2
Ntp1042
Rp1043
(dp1044
g1018
g1019
sg1020
F0.3363071556750445
sg1021
F1.0
sg15
I337
sg1022
g1023
sbsI338
g0
(g1014
g2
Ntp1045
Rp1046
(dp1047
g1018
g1019
sg1020
F-0.10633884352709355
sg1021
F1.0
sg15
I338
sg1022
g1023
sbsI339
g0
(g1014
g2
Ntp1048
Rp1049
(dp1050
g1018
g1019
sg1020
F0.5935849171020409
sg1021
F1.0
sg15
I339
sg1022
g1023
sbsI340
g0
(g1014
g2
Ntp1051
Rp1052
(dp1053
g1018
g1019
sg1020
F0.24512388218324804
sg1021
F1.0
sg15
I340
sg1022
g1023
sbsI341
g0
(g1014
g2
Ntp1054
Rp1055
(dp1056
g1018
g1019
sg1020
F-1.0
sg1021
F1.0
sg15
I341
sg1022
g1023
sbsI342
g0
(g1014
g2
Ntp1057
Rp1058
(dp1059
g1018
g1019
sg1020
F0.3168045225290018
sg1021
F1.0
sg15
I342
sg1022
g1023
sbsI343
g0
(g1014
g2
Ntp1060
Rp1061
(dp1062
g1018
g1019
sg1020
F-0.0701233720332369
sg1021
F1.0
sg15
I343
sg1022
g1023
sbsI344
g0
(g1014
g2
Ntp1063
Rp1064
(dp1065
g1018
g1019
sg1020
F0.8225162127171052
sg1021
F1.0
sg15
I344
sg1022
g1023
sbssg15
I87
sS'fitness'
p1066
cnumpy.core.multiarray
scalar
p1067
(cnumpy
dtype
p1068
(S'f8'
p1069
I0
I1
tp1070
Rp1071
(I3
S'<'
p1072
NNNI-1
I-1
I0
tp1073
bS'\x81\t\x9e~\xf1\x83@@'
p1074
tp1075
Rp1076
sb.