ccopy_reg
_reconstructor
p0
(cneat.genome
DefaultGenome
p1
c__builtin__
object
p2
Ntp3
Rp4
(dp5
S'connections'
p6
(dp7
(I-15
I40
tp8
g0
(cneat.genes
DefaultConnectionGene
p9
g2
Ntp10
Rp11
(dp12
S'enabled'
p13
I01
sS'weight'
p14
F0.06415148253359731
sS'key'
p15
g8
sbs(I-8
I40
tp16
g0
(g9
g2
Ntp17
Rp18
(dp19
g13
I01
sg14
F0.6045249853329833
sg15
g16
sbs(I-2
I44
tp20
g0
(g9
g2
Ntp21
Rp22
(dp23
g13
I01
sg14
F-0.23347771836351297
sg15
g20
sbs(I41
I2
tp24
g0
(g9
g2
Ntp25
Rp26
(dp27
g13
I01
sg14
F0.35086538017607855
sg15
g24
sbs(I-7
I37
tp28
g0
(g9
g2
Ntp29
Rp30
(dp31
g13
I01
sg14
F-0.9299783916072506
sg15
g28
sbs(I38
I1
tp32
g0
(g9
g2
Ntp33
Rp34
(dp35
g13
I01
sg14
F1.0
sg15
g32
sbs(I40
I3
tp36
g0
(g9
g2
Ntp37
Rp38
(dp39
g13
I01
sg14
F0.5800015327301928
sg15
g36
sbs(I-5
I38
tp40
g0
(g9
g2
Ntp41
Rp42
(dp43
g13
I01
sg14
F0.06197247956549446
sg15
g40
sbs(I-19
I37
tp44
g0
(g9
g2
Ntp45
Rp46
(dp47
g13
I01
sg14
F-0.8773049874626685
sg15
g44
sbs(I39
I4
tp48
g0
(g9
g2
Ntp49
Rp50
(dp51
g13
I01
sg14
F0.544688159890004
sg15
g48
sbs(I44
I4
tp52
g0
(g9
g2
Ntp53
Rp54
(dp55
g13
I01
sg14
F-1.0
sg15
g52
sbs(I-5
I43
tp56
g0
(g9
g2
Ntp57
Rp58
(dp59
g13
I01
sg14
F-1.0
sg15
g56
sbs(I-1
I36
tp60
g0
(g9
g2
Ntp61
Rp62
(dp63
g13
I01
sg14
F-0.11373593879667818
sg15
g60
sbs(I-3
I36
tp64
g0
(g9
g2
Ntp65
Rp66
(dp67
g13
I01
sg14
F-0.04416375542291535
sg15
g64
sbs(I-4
I44
tp68
g0
(g9
g2
Ntp69
Rp70
(dp71
g13
I01
sg14
F-0.7375077419884346
sg15
g68
sbs(I-16
I39
tp72
g0
(g9
g2
Ntp73
Rp74
(dp75
g13
I01
sg14
F1.0
sg15
g72
sbs(I41
I1
tp76
g0
(g9
g2
Ntp77
Rp78
(dp79
g13
I01
sg14
F-0.08212427773303349
sg15
g76
sbs(I-13
I41
tp80
g0
(g9
g2
Ntp81
Rp82
(dp83
g13
I01
sg14
F-0.5275242201862564
sg15
g80
sbs(I-15
I38
tp84
g0
(g9
g2
Ntp85
Rp86
(dp87
g13
I01
sg14
F0.4878997018820667
sg15
g84
sbs(I-16
I42
tp88
g0
(g9
g2
Ntp89
Rp90
(dp91
g13
I01
sg14
F0.8519653278793334
sg15
g88
sbs(I-18
I37
tp92
g0
(g9
g2
Ntp93
Rp94
(dp95
g13
I01
sg14
F1.0
sg15
g92
sbs(I35
I0
tp96
g0
(g9
g2
Ntp97
Rp98
(dp99
g13
I01
sg14
F-1.0
sg15
g96
sbs(I-14
I37
tp100
g0
(g9
g2
Ntp101
Rp102
(dp103
g13
I01
sg14
F1.0
sg15
g100
sbs(I-15
I43
tp104
g0
(g9
g2
Ntp105
Rp106
(dp107
g13
I01
sg14
F0.03129292042917038
sg15
g104
sbs(I-8
I37
tp108
g0
(g9
g2
Ntp109
Rp110
(dp111
g13
I01
sg14
F-0.8419621328181207
sg15
g108
sbs(I-10
I37
tp112
g0
(g9
g2
Ntp113
Rp114
(dp115
g13
I01
sg14
F0.36285062542769003
sg15
g112
sbs(I-11
I35
tp116
g0
(g9
g2
Ntp117
Rp118
(dp119
g13
I01
sg14
F0.6605720752108939
sg15
g116
sbs(I-6
I40
tp120
g0
(g9
g2
Ntp121
Rp122
(dp123
g13
I01
sg14
F-0.7010718838319017
sg15
g120
sbs(I38
I2
tp124
g0
(g9
g2
Ntp125
Rp126
(dp127
g13
I01
sg14
F0.7665352146718221
sg15
g124
sbs(I-10
I40
tp128
g0
(g9
g2
Ntp129
Rp130
(dp131
g13
I01
sg14
F0.4156237641729249
sg15
g128
sbs(I-5
I37
tp132
g0
(g9
g2
Ntp133
Rp134
(dp135
g13
I01
sg14
F0.4088775771798475
sg15
g132
sbs(I-6
I39
tp136
g0
(g9
g2
Ntp137
Rp138
(dp139
g13
I01
sg14
F0.12394649693811922
sg15
g136
sbs(I-4
I38
tp140
g0
(g9
g2
Ntp141
Rp142
(dp143
g13
I01
sg14
F-0.5435284326505662
sg15
g140
sbs(I44
I2
tp144
g0
(g9
g2
Ntp145
Rp146
(dp147
g13
I01
sg14
F0.3472356489622995
sg15
g144
sbs(I-3
I39
tp148
g0
(g9
g2
Ntp149
Rp150
(dp151
g13
I01
sg14
F-0.815650448406591
sg15
g148
sbs(I-1
I37
tp152
g0
(g9
g2
Ntp153
Rp154
(dp155
g13
I01
sg14
F-0.6290529630329363
sg15
g152
sbs(I-16
I36
tp156
g0
(g9
g2
Ntp157
Rp158
(dp159
g13
I01
sg14
F0.09775814352737346
sg15
g156
sbs(I-19
I36
tp160
g0
(g9
g2
Ntp161
Rp162
(dp163
g13
I01
sg14
F0.7047345494736268
sg15
g160
sbs(I-20
I44
tp164
g0
(g9
g2
Ntp165
Rp166
(dp167
g13
I01
sg14
F-1.0
sg15
g164
sbs(I-13
I36
tp168
g0
(g9
g2
Ntp169
Rp170
(dp171
g13
I01
sg14
F0.8814301400000818
sg15
g168
sbs(I35
I2
tp172
g0
(g9
g2
Ntp173
Rp174
(dp175
g13
I01
sg14
F-0.5444170863569748
sg15
g172
sbs(I-17
I42
tp176
g0
(g9
g2
Ntp177
Rp178
(dp179
g13
I01
sg14
F-1.0
sg15
g176
sbs(I-18
I38
tp180
g0
(g9
g2
Ntp181
Rp182
(dp183
g13
I01
sg14
F1.0
sg15
g180
sbs(I-11
I41
tp184
g0
(g9
g2
Ntp185
Rp186
(dp187
g13
I01
sg14
F-1.0
sg15
g184
sbs(I-12
I39
tp188
g0
(g9
g2
Ntp189
Rp190
(dp191
g13
I01
sg14
F-0.14452203909321037
sg15
g188
sbs(I-14
I38
tp192
g0
(g9
g2
Ntp193
Rp194
(dp195
g13
I01
sg14
F-0.47302624310973207
sg15
g192
sbs(I-17
I39
tp196
g0
(g9
g2
Ntp197
Rp198
(dp199
g13
I01
sg14
F1.0
sg15
g196
sbs(I37
I0
tp200
g0
(g9
g2
Ntp201
Rp202
(dp203
g13
I01
sg14
F-0.5693559979824176
sg15
g200
sbs(I-10
I38
tp204
g0
(g9
g2
Ntp205
Rp206
(dp207
g13
I01
sg14
F1.0
sg15
g204
sbs(I-11
I38
tp208
g0
(g9
g2
Ntp209
Rp210
(dp211
g13
I01
sg14
F0.07901920695597128
sg15
g208
sbs(I42
I0
tp212
g0
(g9
g2
Ntp213
Rp214
(dp215
g13
I01
sg14
F1.0
sg15
g212
sbs(I-7
I35
tp216
g0
(g9
g2
Ntp217
Rp218
(dp219
g13
I01
sg14
F0.28392944849471563
sg15
g216
sbs(I-9
I39
tp220
g0
(g9
g2
Ntp221
Rp222
(dp223
g13
I01
sg14
F-0.15659124954713385
sg15
g220
sbs(I44
I3
tp224
g0
(g9
g2
Ntp225
Rp226
(dp227
g13
I01
sg14
F0.5260472689764932
sg15
g224
sbs(I40
I2
tp228
g0
(g9
g2
Ntp229
Rp230
(dp231
g13
I01
sg14
F-0.14615709217329012
sg15
g228
sbs(I-4
I43
tp232
g0
(g9
g2
Ntp233
Rp234
(dp235
g13
I01
sg14
F1.0
sg15
g232
sbs(I-3
I42
tp236
g0
(g9
g2
Ntp237
Rp238
(dp239
g13
I01
sg14
F0.502834933402277
sg15
g236
sbs(I-20
I38
tp240
g0
(g9
g2
Ntp241
Rp242
(dp243
g13
I01
sg14
F-0.762158397139577
sg15
g240
sbs(I-18
I44
tp244
g0
(g9
g2
Ntp245
Rp246
(dp247
g13
I01
sg14
F-0.27294981390078876
sg15
g244
sbs(I-19
I39
tp248
g0
(g9
g2
Ntp249
Rp250
(dp251
g13
I01
sg14
F0.4195595440447428
sg15
g248
sbs(I-12
I41
tp252
g0
(g9
g2
Ntp253
Rp254
(dp255
g13
I01
sg14
F-0.6483383977993791
sg15
g252
sbs(I-13
I35
tp256
g0
(g9
g2
Ntp257
Rp258
(dp259
g13
I01
sg14
F0.8702019381004297
sg15
g256
sbs(I-15
I44
tp260
g0
(g9
g2
Ntp261
Rp262
(dp263
g13
I01
sg14
F-1.0
sg15
g260
sbs(I-8
I44
tp264
g0
(g9
g2
Ntp265
Rp266
(dp267
g13
I01
sg14
F1.0
sg15
g264
sbs(I-18
I35
tp268
g0
(g9
g2
Ntp269
Rp270
(dp271
g13
I01
sg14
F0.14940167446741168
sg15
g268
sbs(I36
I2
tp272
g0
(g9
g2
Ntp273
Rp274
(dp275
g13
I01
sg14
F-1.0
sg15
g272
sbs(I-11
I44
tp276
g0
(g9
g2
Ntp277
Rp278
(dp279
g13
I01
sg14
F-0.3464146370129935
sg15
g276
sbs(I-12
I36
tp280
g0
(g9
g2
Ntp281
Rp282
(dp283
g13
I01
sg14
F1.0
sg15
g280
sbs(I-14
I43
tp284
g0
(g9
g2
Ntp285
Rp286
(dp287
g13
I01
sg14
F0.9640894917471146
sg15
g284
sbs(I-7
I41
tp288
g0
(g9
g2
Ntp289
Rp290
(dp291
g13
I01
sg14
F-1.0
sg15
g288
sbs(I37
I3
tp292
g0
(g9
g2
Ntp293
Rp294
(dp295
g13
I01
sg14
F-1.0
sg15
g292
sbs(I-10
I35
tp296
g0
(g9
g2
Ntp297
Rp298
(dp299
g13
I01
sg14
F-0.2819847395116892
sg15
g296
sbs(I40
I0
tp300
g0
(g9
g2
Ntp301
Rp302
(dp303
g13
I01
sg14
F-1.0
sg15
g300
sbs(I39
I0
tp304
g0
(g9
g2
Ntp305
Rp306
(dp307
g13
I01
sg14
F0.5551797773715902
sg15
g304
sbs(I-9
I42
tp308
g0
(g9
g2
Ntp309
Rp310
(dp311
g13
I01
sg14
F-1.0
sg15
g308
sbs(I44
I0
tp312
g0
(g9
g2
Ntp313
Rp314
(dp315
g13
I01
sg14
F0.20919199160277213
sg15
g312
sbs(I-1
I40
tp316
g0
(g9
g2
Ntp317
Rp318
(dp319
g13
I01
sg14
F1.0
sg15
g316
sbs(I-4
I40
tp320
g0
(g9
g2
Ntp321
Rp322
(dp323
g13
I01
sg14
F0.7671486633713507
sg15
g320
sbs(I-20
I43
tp324
g0
(g9
g2
Ntp325
Rp326
(dp327
g13
I01
sg14
F1.0
sg15
g324
sbs(I-2
I36
tp328
g0
(g9
g2
Ntp329
Rp330
(dp331
g13
I01
sg14
F-0.47662779106771636
sg15
g328
sbs(I-18
I41
tp332
g0
(g9
g2
Ntp333
Rp334
(dp335
g13
I01
sg14
F0.08897705200761989
sg15
g332
sbs(I-19
I42
tp336
g0
(g9
g2
Ntp337
Rp338
(dp339
g13
I01
sg14
F-0.7137339294984273
sg15
g336
sbs(I40
I4
tp340
g0
(g9
g2
Ntp341
Rp342
(dp343
g13
I01
sg14
F-0.053872961004662025
sg15
g340
sbs(I-8
I41
tp344
g0
(g9
g2
Ntp345
Rp346
(dp347
g13
I01
sg14
F0.6880598554616995
sg15
g344
sbs(I-14
I44
tp348
g0
(g9
g2
Ntp349
Rp350
(dp351
g13
I01
sg14
F-0.8225357826213281
sg15
g348
sbs(I-7
I36
tp352
g0
(g9
g2
Ntp353
Rp354
(dp355
g13
I01
sg14
F0.04829713230333128
sg15
g352
sbs(I-10
I44
tp356
g0
(g9
g2
Ntp357
Rp358
(dp359
g13
I01
sg14
F0.34129094060668874
sg15
g356
sbs(I43
I2
tp360
g0
(g9
g2
Ntp361
Rp362
(dp363
g13
I01
sg14
F-1.0
sg15
g360
sbs(I-6
I35
tp364
g0
(g9
g2
Ntp365
Rp366
(dp367
g13
I01
sg14
F-1.0
sg15
g364
sbs(I-9
I41
tp368
g0
(g9
g2
Ntp369
Rp370
(dp371
g13
I01
sg14
F-0.8532647248449636
sg15
g368
sbs(I40
I1
tp372
g0
(g9
g2
Ntp373
Rp374
(dp375
g13
I01
sg14
F0.49237129284639275
sg15
g372
sbs(I-5
I42
tp376
g0
(g9
g2
Ntp377
Rp378
(dp379
g13
I01
sg14
F-0.8515976505665754
sg15
g376
sbs(I-2
I37
tp380
g0
(g9
g2
Ntp381
Rp382
(dp383
g13
I01
sg14
F0.728871937900157
sg15
g380
sbs(I-3
I35
tp384
g0
(g9
g2
Ntp385
Rp386
(dp387
g13
I01
sg14
F-0.8030493381314
sg15
g384
sbs(I36
I4
tp388
g0
(g9
g2
Ntp389
Rp390
(dp391
g13
I01
sg14
F-0.5230312622232214
sg15
g388
sbs(I-20
I40
tp392
g0
(g9
g2
Ntp393
Rp394
(dp395
g13
I01
sg14
F-0.5435481605035724
sg15
g392
sbs(I-13
I40
tp396
g0
(g9
g2
Ntp397
Rp398
(dp399
g13
I01
sg14
F1.0
sg15
g396
sbs(I-15
I37
tp400
g0
(g9
g2
Ntp401
Rp402
(dp403
g13
I01
sg14
F-0.367074148685457
sg15
g400
sbs(I-16
I43
tp404
g0
(g9
g2
Ntp405
Rp406
(dp407
g13
I01
sg14
F0.06262991403446953
sg15
g404
sbs(I-18
I42
tp408
g0
(g9
g2
Ntp409
Rp410
(dp411
g13
I01
sg14
F-1.0
sg15
g408
sbs(I35
I3
tp412
g0
(g9
g2
Ntp413
Rp414
(dp415
g13
I01
sg14
F0.2643105166210174
sg15
g412
sbs(I-12
I35
tp416
g0
(g9
g2
Ntp417
Rp418
(dp419
g13
I01
sg14
F1.0
sg15
g416
sbs(I-15
I42
tp420
g0
(g9
g2
Ntp421
Rp422
(dp423
g13
I01
sg14
F-0.45327661233329436
sg15
g420
sbs(I-8
I38
tp424
g0
(g9
g2
Ntp425
Rp426
(dp427
g13
I01
sg14
F-0.6661854865259116
sg15
g424
sbs(I-17
I41
tp428
g0
(g9
g2
Ntp429
Rp430
(dp431
g13
I01
sg14
F-0.951139670093465
sg15
g428
sbs(I-6
I41
tp432
g0
(g9
g2
Ntp433
Rp434
(dp435
g13
I01
sg14
F-0.900829448627445
sg15
g432
sbs(I-7
I39
tp436
g0
(g9
g2
Ntp437
Rp438
(dp439
g13
I01
sg14
F1.0
sg15
g436
sbs(I38
I3
tp440
g0
(g9
g2
Ntp441
Rp442
(dp443
g13
I01
sg14
F0.26740375970767194
sg15
g440
sbs(I-9
I35
tp444
g0
(g9
g2
Ntp445
Rp446
(dp447
g13
I01
sg14
F1.0
sg15
g444
sbs(I-10
I41
tp448
g0
(g9
g2
Ntp449
Rp450
(dp451
g13
I01
sg14
F1.0
sg15
g448
sbs(I43
I1
tp452
g0
(g9
g2
Ntp453
Rp454
(dp455
g13
I01
sg14
F1.0
sg15
g452
sbs(I-5
I36
tp456
g0
(g9
g2
Ntp457
Rp458
(dp459
g13
I01
sg14
F-0.4291562175726277
sg15
g456
sbs(I-6
I36
tp460
g0
(g9
g2
Ntp461
Rp462
(dp463
g13
I01
sg14
F0.2580374445322697
sg15
g460
sbs(I41
I4
tp464
g0
(g9
g2
Ntp465
Rp466
(dp467
g13
I01
sg14
F0.4647180052022751
sg15
g464
sbs(I-9
I44
tp468
g0
(g9
g2
Ntp469
Rp470
(dp471
g13
I01
sg14
F1.0
sg15
g468
sbs(I-4
I39
tp472
g0
(g9
g2
Ntp473
Rp474
(dp475
g13
I01
sg14
F-0.04390193409531666
sg15
g472
sbs(I-5
I41
tp476
g0
(g9
g2
Ntp477
Rp478
(dp479
g13
I01
sg14
F-1.0
sg15
g476
sbs(I-1
I38
tp480
g0
(g9
g2
Ntp481
Rp482
(dp483
g13
I01
sg14
F0.28260321658660853
sg15
g480
sbs(I-3
I38
tp484
g0
(g9
g2
Ntp485
Rp486
(dp487
g13
I01
sg14
F-1.0
sg15
g484
sbs(I-16
I37
tp488
g0
(g9
g2
Ntp489
Rp490
(dp491
g13
I01
sg14
F1.0
sg15
g488
sbs(I-19
I35
tp492
g0
(g9
g2
Ntp493
Rp494
(dp495
g13
I01
sg14
F-0.9687706432988054
sg15
g492
sbs(I-2
I39
tp496
g0
(g9
g2
Ntp497
Rp498
(dp499
g13
I01
sg14
F0.4793838318267203
sg15
g496
sbs(I-16
I40
tp500
g0
(g9
g2
Ntp501
Rp502
(dp503
g13
I01
sg14
F-0.5386116777009079
sg15
g500
sbs(I-18
I39
tp504
g0
(g9
g2
Ntp505
Rp506
(dp507
g13
I01
sg14
F-0.5087243533937861
sg15
g504
sbs(I-11
I40
tp508
g0
(g9
g2
Ntp509
Rp510
(dp511
g13
I01
sg14
F-0.11937448484598755
sg15
g508
sbs(I-14
I39
tp512
g0
(g9
g2
Ntp513
Rp514
(dp515
g13
I01
sg14
F0.7813271721109789
sg15
g512
sbs(I-8
I35
tp516
g0
(g9
g2
Ntp517
Rp518
(dp519
g13
I01
sg14
F-0.8940253473013897
sg15
g516
sbs(I-10
I39
tp520
g0
(g9
g2
Ntp521
Rp522
(dp523
g13
I01
sg14
F0.528387641507966
sg15
g520
sbs(I-11
I37
tp524
g0
(g9
g2
Ntp525
Rp526
(dp527
g13
I01
sg14
F0.16822454249742871
sg15
g524
sbs(I42
I1
tp528
g0
(g9
g2
Ntp529
Rp530
(dp531
g13
I01
sg14
F1.0
sg15
g528
sbs(I-6
I42
tp532
g0
(g9
g2
Ntp533
Rp534
(dp535
g13
I01
sg14
F-0.39334710917620375
sg15
g532
sbs(I-9
I38
tp536
g0
(g9
g2
Ntp537
Rp538
(dp539
g13
I01
sg14
F-0.0653300817211777
sg15
g536
sbs(I-10
I42
tp540
g0
(g9
g2
Ntp541
Rp542
(dp543
g13
I01
sg14
F1.0
sg15
g540
sbs(I-2
I41
tp544
g0
(g9
g2
Ntp545
Rp546
(dp547
g13
I01
sg14
F-0.9176956539958734
sg15
g544
sbs(I-1
I44
tp548
g0
(g9
g2
Ntp549
Rp550
(dp551
g13
I01
sg14
F-0.06689553236367507
sg15
g548
sbs(I-4
I36
tp552
g0
(g9
g2
Ntp553
Rp554
(dp555
g13
I01
sg14
F-0.062275635095168036
sg15
g552
sbs(I-1
I35
tp556
g0
(g9
g2
Ntp557
Rp558
(dp559
g13
I01
sg14
F0.3929127053133815
sg15
g556
sbs(I-3
I41
tp560
g0
(g9
g2
Ntp561
Rp562
(dp563
g13
I01
sg14
F0.04441950803952076
sg15
g560
sbs(I-20
I39
tp564
g0
(g9
g2
Ntp565
Rp566
(dp567
g13
I01
sg14
F0.07459285464096703
sg15
g564
sbs(I-19
I38
tp568
g0
(g9
g2
Ntp569
Rp570
(dp571
g13
I01
sg14
F0.9359480920191626
sg15
g568
sbs(I-12
I42
tp572
g0
(g9
g2
Ntp573
Rp574
(dp575
g13
I01
sg14
F0.4087863557041794
sg15
g572
sbs(I-15
I35
tp576
g0
(g9
g2
Ntp577
Rp578
(dp579
g13
I01
sg14
F-0.7130435370516514
sg15
g576
sbs(I-17
I40
tp580
g0
(g9
g2
Ntp581
Rp582
(dp583
g13
I01
sg14
F0.17592797975058133
sg15
g580
sbs(I36
I3
tp584
g0
(g9
g2
Ntp585
Rp586
(dp587
g13
I01
sg14
F1.0
sg15
g584
sbs(I-11
I43
tp588
g0
(g9
g2
Ntp589
Rp590
(dp591
g13
I01
sg14
F-0.8633574248003754
sg15
g588
sbs(I-12
I37
tp592
g0
(g9
g2
Ntp593
Rp594
(dp595
g13
I01
sg14
F-0.11122449351068513
sg15
g592
sbs(I-14
I40
tp596
g0
(g9
g2
Ntp597
Rp598
(dp599
g13
I01
sg14
F1.0
sg15
g596
sbs(I-7
I40
tp600
g0
(g9
g2
Ntp601
Rp602
(dp603
g13
I01
sg14
F0.9375744413752206
sg15
g600
sbs(I-17
I37
tp604
g0
(g9
g2
Ntp605
Rp606
(dp607
g13
I01
sg14
F-0.3204126526104716
sg15
g604
sbs(I37
I2
tp608
g0
(g9
g2
Ntp609
Rp610
(dp611
g13
I01
sg14
F-0.5616206663828368
sg15
g608
sbs(I42
I2
tp612
g0
(g9
g2
Ntp613
Rp614
(dp615
g13
I01
sg14
F0.9471419782833845
sg15
g612
sbs(I39
I3
tp616
g0
(g9
g2
Ntp617
Rp618
(dp619
g13
I01
sg14
F0.15864779995656494
sg15
g616
sbs(I-9
I37
tp620
g0
(g9
g2
Ntp621
Rp622
(dp623
g13
I01
sg14
F-1.0
sg15
g620
sbs(I44
I1
tp624
g0
(g9
g2
Ntp625
Rp626
(dp627
g13
I01
sg14
F-1.0
sg15
g624
sbs(I-1
I41
tp628
g0
(g9
g2
Ntp629
Rp630
(dp631
g13
I01
sg14
F1.0
sg15
g628
sbs(I-4
I41
tp632
g0
(g9
g2
Ntp633
Rp634
(dp635
g13
I01
sg14
F-0.38558465040153816
sg15
g632
sbs(I-3
I44
tp636
g0
(g9
g2
Ntp637
Rp638
(dp639
g13
I01
sg14
F1.0
sg15
g636
sbs(I-20
I36
tp640
g0
(g9
g2
Ntp641
Rp642
(dp643
g13
I01
sg14
F-1.0
sg15
g640
sbs(I-13
I44
tp644
g0
(g9
g2
Ntp645
Rp646
(dp647
g13
I01
sg14
F0.7675022166947131
sg15
g644
sbs(I-19
I41
tp648
g0
(g9
g2
Ntp649
Rp650
(dp651
g13
I01
sg14
F-0.6353991598632447
sg15
g648
sbs(I-2
I38
tp652
g0
(g9
g2
Ntp653
Rp654
(dp655
g13
I01
sg14
F-1.0
sg15
g652
sbs(I-8
I42
tp656
g0
(g9
g2
Ntp657
Rp658
(dp659
g13
I01
sg14
F1.0
sg15
g656
sbs(I36
I0
tp660
g0
(g9
g2
Ntp661
Rp662
(dp663
g13
I01
sg14
F-0.054287266830912395
sg15
g660
sbs(I41
I0
tp664
g0
(g9
g2
Ntp665
Rp666
(dp667
g13
I01
sg14
F-0.8194855714839141
sg15
g664
sbs(I-7
I43
tp668
g0
(g9
g2
Ntp669
Rp670
(dp671
g13
I01
sg14
F0.3622457618162863
sg15
g668
sbs(I-9
I40
tp672
g0
(g9
g2
Ntp673
Rp674
(dp675
g13
I01
sg14
F-0.24403140825146435
sg15
g672
sbs(I-4
I35
tp676
g0
(g9
g2
Ntp677
Rp678
(dp679
g13
I01
sg14
F1.0
sg15
g676
sbs(I-2
I40
tp680
g0
(g9
g2
Ntp681
Rp682
(dp683
g13
I01
sg14
F-0.811882212715002
sg15
g680
sbs(I-2
I42
tp684
g0
(g9
g2
Ntp685
Rp686
(dp687
g13
I01
sg14
F0.49533662951310814
sg15
g684
sbs(I-20
I41
tp688
g0
(g9
g2
Ntp689
Rp690
(dp691
g13
I01
sg14
F1.0
sg15
g688
sbs(I-13
I43
tp692
g0
(g9
g2
Ntp693
Rp694
(dp695
g13
I01
sg14
F-0.6522310053338254
sg15
g692
sbs(I-15
I36
tp696
g0
(g9
g2
Ntp697
Rp698
(dp699
g13
I01
sg14
F0.115291639935221
sg15
g696
sbs(I-16
I44
tp700
g0
(g9
g2
Ntp701
Rp702
(dp703
g13
I01
sg14
F0.5662966473577968
sg15
g700
sbs(I-18
I43
tp704
g0
(g9
g2
Ntp705
Rp706
(dp707
g13
I01
sg14
F-0.3438027696442321
sg15
g704
sbs(I-19
I44
tp708
g0
(g9
g2
Ntp709
Rp710
(dp711
g13
I01
sg14
F-0.6295267275061687
sg15
g708
sbs(I-12
I44
tp712
g0
(g9
g2
Ntp713
Rp714
(dp715
g13
I01
sg14
F0.4720763457392467
sg15
g712
sbs(I-14
I35
tp716
g0
(g9
g2
Ntp717
Rp718
(dp719
g13
I01
sg14
F-0.41038207015324296
sg15
g716
sbs(I-15
I41
tp720
g0
(g9
g2
Ntp721
Rp722
(dp723
g13
I01
sg14
F-1.0
sg15
g720
sbs(I-8
I39
tp724
g0
(g9
g2
Ntp725
Rp726
(dp727
g13
I01
sg14
F-0.05446638782454907
sg15
g724
sbs(I41
I3
tp728
g0
(g9
g2
Ntp729
Rp730
(dp731
g13
I01
sg14
F0.3042308272366954
sg15
g728
sbs(I-7
I38
tp732
g0
(g9
g2
Ntp733
Rp734
(dp735
g13
I01
sg14
F-1.0
sg15
g732
sbs(I38
I0
tp736
g0
(g9
g2
Ntp737
Rp738
(dp739
g13
I01
sg14
F1.0
sg15
g736
sbs(I43
I0
tp740
g0
(g9
g2
Ntp741
Rp742
(dp743
g13
I01
sg14
F1.0
sg15
g740
sbs(I-5
I39
tp744
g0
(g9
g2
Ntp745
Rp746
(dp747
g13
I01
sg14
F-0.46003919542374205
sg15
g744
sbs(I-6
I37
tp748
g0
(g9
g2
Ntp749
Rp750
(dp751
g13
I01
sg14
F-0.6729912301406179
sg15
g748
sbs(I-13
I39
tp752
g0
(g9
g2
Ntp753
Rp754
(dp755
g13
I01
sg14
F1.0
sg15
g752
sbs(I-5
I40
tp756
g0
(g9
g2
Ntp757
Rp758
(dp759
g13
I01
sg14
F-0.5879645336654792
sg15
g756
sbs(I-1
I39
tp760
g0
(g9
g2
Ntp761
Rp762
(dp763
g13
I01
sg14
F-0.1624715289810322
sg15
g760
sbs(I-3
I37
tp764
g0
(g9
g2
Ntp765
Rp766
(dp767
g13
I01
sg14
F0.9619659225180734
sg15
g764
sbs(I-20
I35
tp768
g0
(g9
g2
Ntp769
Rp770
(dp771
g13
I01
sg14
F1.0
sg15
g768
sbs(I-16
I38
tp772
g0
(g9
g2
Ntp773
Rp774
(dp775
g13
I01
sg14
F0.5503079231524657
sg15
g772
sbs(I-13
I38
tp776
g0
(g9
g2
Ntp777
Rp778
(dp779
g13
I01
sg14
F-1.0
sg15
g776
sbs(I-15
I39
tp780
g0
(g9
g2
Ntp781
Rp782
(dp783
g13
I01
sg14
F0.9361353848393791
sg15
g780
sbs(I-16
I41
tp784
g0
(g9
g2
Ntp785
Rp786
(dp787
g13
I01
sg14
F0.14474638445993748
sg15
g784
sbs(I-18
I36
tp788
g0
(g9
g2
Ntp789
Rp790
(dp791
g13
I01
sg14
F0.6435174241677295
sg15
g788
sbs(I35
I1
tp792
g0
(g9
g2
Ntp793
Rp794
(dp795
g13
I01
sg14
F-1.0
sg15
g792
sbs(I43
I3
tp796
g0
(g9
g2
Ntp797
Rp798
(dp799
g13
I01
sg14
F0.48655394043204425
sg15
g796
sbs(I-14
I36
tp800
g0
(g9
g2
Ntp801
Rp802
(dp803
g13
I01
sg14
F-0.34685016091697574
sg15
g800
sbs(I-7
I44
tp804
g0
(g9
g2
Ntp805
Rp806
(dp807
g13
I01
sg14
F1.0
sg15
g804
sbs(I-8
I36
tp808
g0
(g9
g2
Ntp809
Rp810
(dp811
g13
I01
sg14
F0.49212309199702714
sg15
g808
sbs(I-10
I36
tp812
g0
(g9
g2
Ntp813
Rp814
(dp815
g13
I01
sg14
F-0.3742681614925777
sg15
g812
sbs(I-11
I36
tp816
g0
(g9
g2
Ntp817
Rp818
(dp819
g13
I01
sg14
F-0.3512815966195452
sg15
g816
sbs(I-6
I43
tp820
g0
(g9
g2
Ntp821
Rp822
(dp823
g13
I01
sg14
F0.6486248720476295
sg15
g820
sbs(I-10
I43
tp824
g0
(g9
g2
Ntp825
Rp826
(dp827
g13
I01
sg14
F-1.0
sg15
g824
sbs(I-6
I38
tp828
g0
(g9
g2
Ntp829
Rp830
(dp831
g13
I01
sg14
F-0.9819057318925309
sg15
g828
sbs(I-4
I37
tp832
g0
(g9
g2
Ntp833
Rp834
(dp835
g13
I01
sg14
F0.48161301392142464
sg15
g832
sbs(I-1
I43
tp836
g0
(g9
g2
Ntp837
Rp838
(dp839
g13
I01
sg14
F0.8471283343162049
sg15
g836
sbs(I-3
I40
tp840
g0
(g9
g2
Ntp841
Rp842
(dp843
g13
I01
sg14
F0.6100970464583184
sg15
g840
sbs(I35
I4
tp844
g0
(g9
g2
Ntp845
Rp846
(dp847
g13
I01
sg14
F-0.1724047453997625
sg15
g844
sbs(I-16
I35
tp848
g0
(g9
g2
Ntp849
Rp850
(dp851
g13
I01
sg14
F-0.4928975489890813
sg15
g848
sbs(I-17
I38
tp852
g0
(g9
g2
Ntp853
Rp854
(dp855
g13
I01
sg14
F0.005693568612630237
sg15
g852
sbs(I-12
I43
tp856
g0
(g9
g2
Ntp857
Rp858
(dp859
g13
I01
sg14
F1.0
sg15
g856
sbs(I-13
I37
tp860
g0
(g9
g2
Ntp861
Rp862
(dp863
g13
I01
sg14
F-1.0
sg15
g860
sbs(I-17
I43
tp864
g0
(g9
g2
Ntp865
Rp866
(dp867
g13
I01
sg14
F-0.10735419719450376
sg15
g864
sbs(I-11
I42
tp868
g0
(g9
g2
Ntp869
Rp870
(dp871
g13
I01
sg14
F0.4376202447308058
sg15
g868
sbs(I-12
I38
tp872
g0
(g9
g2
Ntp873
Rp874
(dp875
g13
I01
sg14
F-1.0
sg15
g872
sbs(I-14
I41
tp876
g0
(g9
g2
Ntp877
Rp878
(dp879
g13
I01
sg14
F0.29650676504545087
sg15
g876
sbs(I-17
I36
tp880
g0
(g9
g2
Ntp881
Rp882
(dp883
g13
I01
sg14
F-0.3504023622680514
sg15
g880
sbs(I37
I1
tp884
g0
(g9
g2
Ntp885
Rp886
(dp887
g13
I01
sg14
F0.3252387614618293
sg15
g884
sbs(I-11
I39
tp888
g0
(g9
g2
Ntp889
Rp890
(dp891
g13
I01
sg14
F-0.9026787103939296
sg15
g888
sbs(I42
I3
tp892
g0
(g9
g2
Ntp893
Rp894
(dp895
g13
I01
sg14
F-0.062253650879419704
sg15
g892
sbs(I-6
I44
tp896
g0
(g9
g2
Ntp897
Rp898
(dp899
g13
I01
sg14
F0.643806693004244
sg15
g896
sbs(I39
I2
tp900
g0
(g9
g2
Ntp901
Rp902
(dp903
g13
I01
sg14
F-0.7169886306910179
sg15
g900
sbs(I-9
I36
tp904
g0
(g9
g2
Ntp905
Rp906
(dp907
g13
I01
sg14
F1.0
sg15
g904
sbs(I-17
I44
tp908
g0
(g9
g2
Ntp909
Rp910
(dp911
g13
I01
sg14
F0.5261584291872626
sg15
g908
sbs(I-4
I42
tp912
g0
(g9
g2
Ntp913
Rp914
(dp915
g13
I01
sg14
F-1.0
sg15
g912
sbs(I-3
I43
tp916
g0
(g9
g2
Ntp917
Rp918
(dp919
g13
I01
sg14
F-0.5310732785500129
sg15
g916
sbs(I-20
I37
tp920
g0
(g9
g2
Ntp921
Rp922
(dp923
g13
I01
sg14
F0.07003866110381587
sg15
g920
sbs(I-19
I40
tp924
g0
(g9
g2
Ntp925
Rp926
(dp927
g13
I01
sg14
F-0.21538473283328863
sg15
g924
sbs(I-12
I40
tp928
g0
(g9
g2
Ntp929
Rp930
(dp931
g13
I01
sg14
F0.9163175600491039
sg15
g928
sbs(I-8
I43
tp932
g0
(g9
g2
Ntp933
Rp934
(dp935
g13
I01
sg14
F-1.0
sg15
g932
sbs(I36
I1
tp936
g0
(g9
g2
Ntp937
Rp938
(dp939
g13
I01
sg14
F-1.0
sg15
g936
sbs(I-14
I42
tp940
g0
(g9
g2
Ntp941
Rp942
(dp943
g13
I01
sg14
F-1.0
sg15
g940
sbs(I-7
I42
tp944
g0
(g9
g2
Ntp945
Rp946
(dp947
g13
I01
sg14
F0.13296128020465472
sg15
g944
sbs(I38
I4
tp948
g0
(g9
g2
Ntp949
Rp950
(dp951
g13
I01
sg14
F-1.0
sg15
g948
sbs(I37
I4
tp952
g0
(g9
g2
Ntp953
Rp954
(dp955
g13
I01
sg14
F1.0
sg15
g952
sbs(I43
I4
tp956
g0
(g9
g2
Ntp957
Rp958
(dp959
g13
I01
sg14
F0.10343536732942363
sg15
g956
sbs(I42
I4
tp960
g0
(g9
g2
Ntp961
Rp962
(dp963
g13
I01
sg14
F0.6410483615247758
sg15
g960
sbs(I39
I1
tp964
g0
(g9
g2
Ntp965
Rp966
(dp967
g13
I01
sg14
F-1.0
sg15
g964
sbs(I-9
I43
tp968
g0
(g9
g2
Ntp969
Rp970
(dp971
g13
I01
sg14
F1.0
sg15
g968
sbs(I-17
I35
tp972
g0
(g9
g2
Ntp973
Rp974
(dp975
g13
I01
sg14
F0.6119424989887529
sg15
g972
sbs(I-5
I44
tp976
g0
(g9
g2
Ntp977
Rp978
(dp979
g13
I01
sg14
F-0.942087864138602
sg15
g976
sbs(I-5
I35
tp980
g0
(g9
g2
Ntp981
Rp982
(dp983
g13
I01
sg14
F-0.36347541054351373
sg15
g980
sbs(I-2
I43
tp984
g0
(g9
g2
Ntp985
Rp986
(dp987
g13
I01
sg14
F0.09507231106067968
sg15
g984
sbs(I-1
I42
tp988
g0
(g9
g2
Ntp989
Rp990
(dp991
g13
I01
sg14
F-0.25484572536771644
sg15
g988
sbs(I-20
I42
tp992
g0
(g9
g2
Ntp993
Rp994
(dp995
g13
I01
sg14
F-1.0
sg15
g992
sbs(I-13
I42
tp996
g0
(g9
g2
Ntp997
Rp998
(dp999
g13
I01
sg14
F0.3735809932324117
sg15
g996
sbs(I-18
I40
tp1000
g0
(g9
g2
Ntp1001
Rp1002
(dp1003
g13
I01
sg14
F1.0
sg15
g1000
sbs(I-2
I35
tp1004
g0
(g9
g2
Ntp1005
Rp1006
(dp1007
g13
I01
sg14
F0.25652710725401934
sg15
g1004
sbs(I-19
I43
tp1008
g0
(g9
g2
Ntp1009
Rp1010
(dp1011
g13
I01
sg14
F-0.9767797706459754
sg15
g1008
sbssS'nodes'
p1012
(dp1013
I0
g0
(cneat.genes
DefaultNodeGene
p1014
g2
Ntp1015
Rp1016
(dp1017
S'activation'
p1018
S'sigmoid'
p1019
sS'bias'
p1020
F-0.2240692696734945
sS'response'
p1021
F1.0
sg15
I0
sS'aggregation'
p1022
S'product'
p1023
sbsI1
g0
(g1014
g2
Ntp1024
Rp1025
(dp1026
g1018
g1019
sg1020
F-1.0
sg1021
F1.0
sg15
I1
sg1022
g1023
sbsI2
g0
(g1014
g2
Ntp1027
Rp1028
(dp1029
g1018
g1019
sg1020
F-0.17211622476821895
sg1021
F1.0
sg15
I2
sg1022
g1023
sbsI3
g0
(g1014
g2
Ntp1030
Rp1031
(dp1032
g1018
g1019
sg1020
F0.6024542103903893
sg1021
F1.0
sg15
I3
sg1022
g1023
sbsI4
g0
(g1014
g2
Ntp1033
Rp1034
(dp1035
g1018
g1019
sg1020
F-1.0
sg1021
F1.0
sg15
I4
sg1022
g1023
sbsI37
g0
(g1014
g2
Ntp1036
Rp1037
(dp1038
g1018
g1019
sg1020
F-1.0
sg1021
F1.0
sg15
I37
sg1022
g1023
sbsI38
g0
(g1014
g2
Ntp1039
Rp1040
(dp1041
g1018
g1019
sg1020
F0.46742628056641844
sg1021
F1.0
sg15
I38
sg1022
g1023
sbsI39
g0
(g1014
g2
Ntp1042
Rp1043
(dp1044
g1018
g1019
sg1020
F-1.0
sg1021
F1.0
sg15
I39
sg1022
g1023
sbsI40
g0
(g1014
g2
Ntp1045
Rp1046
(dp1047
g1018
g1019
sg1020
F-0.6460472468039683
sg1021
F1.0
sg15
I40
sg1022
g1023
sbsI41
g0
(g1014
g2
Ntp1048
Rp1049
(dp1050
g1018
g1019
sg1020
F0.3652991014600267
sg1021
F1.0
sg15
I41
sg1022
g1023
sbsI42
g0
(g1014
g2
Ntp1051
Rp1052
(dp1053
g1018
g1019
sg1020
F0.11637202443482382
sg1021
F1.0
sg15
I42
sg1022
g1023
sbsI43
g0
(g1014
g2
Ntp1054
Rp1055
(dp1056
g1018
g1019
sg1020
F-1.0
sg1021
F1.0
sg15
I43
sg1022
g1023
sbsI44
g0
(g1014
g2
Ntp1057
Rp1058
(dp1059
g1018
g1019
sg1020
F-1.0
sg1021
F1.0
sg15
I44
sg1022
g1023
sbsI35
g0
(g1014
g2
Ntp1060
Rp1061
(dp1062
g1018
g1019
sg1020
F1.0
sg1021
F1.0
sg15
I35
sg1022
g1023
sbsI36
g0
(g1014
g2
Ntp1063
Rp1064
(dp1065
g1018
g1019
sg1020
F-1.0
sg1021
F1.0
sg15
I36
sg1022
g1023
sbssg15
I4
sS'fitness'
p1066
cnumpy.core.multiarray
scalar
p1067
(cnumpy
dtype
p1068
(S'f8'
p1069
I0
I1
tp1070
Rp1071
(I3
S'<'
p1072
NNNI-1
I-1
I0
tp1073
bS'\xab@\xea\x1a\x0eQ#@'
p1074
tp1075
Rp1076
sb.