ccopy_reg
_reconstructor
p0
(cneat.genome
DefaultGenome
p1
c__builtin__
object
p2
Ntp3
Rp4
(dp5
S'connections'
p6
(dp7
(I-1
I0
tp8
g0
(cneat.genes
DefaultConnectionGene
p9
g2
Ntp10
Rp11
(dp12
S'enabled'
p13
I01
sS'weight'
p14
F-1.005046943934811
sS'key'
p15
g8
sbs(I-16
I3
tp16
g0
(g9
g2
Ntp17
Rp18
(dp19
g13
I01
sg14
F1.845937512031286
sg15
g16
sbs(I-15
I2
tp20
g0
(g9
g2
Ntp21
Rp22
(dp23
g13
I01
sg14
F0.953412763791445
sg15
g20
sbs(I-18
I1
tp24
g0
(g9
g2
Ntp25
Rp26
(dp27
g13
I01
sg14
F-0.44803263322584996
sg15
g24
sbs(I-13
I3
tp28
g0
(g9
g2
Ntp29
Rp30
(dp31
g13
I01
sg14
F-1.973490733812083
sg15
g28
sbs(I-8
I1
tp32
g0
(g9
g2
Ntp33
Rp34
(dp35
g13
I01
sg14
F1.532797832815675
sg15
g32
sbs(I-12
I4
tp36
g0
(g9
g2
Ntp37
Rp38
(dp39
g13
I01
sg14
F-2.415845290268222
sg15
g36
sbs(I-2
I0
tp40
g0
(g9
g2
Ntp41
Rp42
(dp43
g13
I01
sg14
F-2.2918064200633346
sg15
g40
sbs(I-10
I3
tp44
g0
(g9
g2
Ntp45
Rp46
(dp47
g13
I01
sg14
F1.6841522638846729
sg15
g44
sbs(I-5
I1
tp48
g0
(g9
g2
Ntp49
Rp50
(dp51
g13
I01
sg14
F0.9790130482985075
sg15
g48
sbs(I-16
I0
tp52
g0
(g9
g2
Ntp53
Rp54
(dp55
g13
I01
sg14
F-1.1468456131203775
sg15
g52
sbs(I-18
I2
tp56
g0
(g9
g2
Ntp57
Rp58
(dp59
g13
I01
sg14
F2.6751655109600527
sg15
g56
sbs(I-6
I1
tp60
g0
(g9
g2
Ntp61
Rp62
(dp63
g13
I01
sg14
F-2.6419206244642135
sg15
g60
sbs(I-3
I1
tp64
g0
(g9
g2
Ntp65
Rp66
(dp67
g13
I01
sg14
F0.9622700122468192
sg15
g64
sbs(I-19
I0
tp68
g0
(g9
g2
Ntp69
Rp70
(dp71
g13
I01
sg14
F-0.4881611077374747
sg15
g68
sbs(I-14
I0
tp72
g0
(g9
g2
Ntp73
Rp74
(dp75
g13
I01
sg14
F0.8837930185605041
sg15
g72
sbs(I-12
I3
tp76
g0
(g9
g2
Ntp77
Rp78
(dp79
g13
I01
sg14
F1.438731506270153
sg15
g76
sbs(I-11
I2
tp80
g0
(g9
g2
Ntp81
Rp82
(dp83
g13
I01
sg14
F0.6054868731639766
sg15
g80
sbs(I-6
I2
tp84
g0
(g9
g2
Ntp85
Rp86
(dp87
g13
I01
sg14
F0.42773465072805067
sg15
g84
sbs(I-9
I3
tp88
g0
(g9
g2
Ntp89
Rp90
(dp91
g13
I01
sg14
F2.2522818435250525
sg15
g88
sbs(I-4
I1
tp92
g0
(g9
g2
Ntp93
Rp94
(dp95
g13
I01
sg14
F-0.600323055398708
sg15
g92
sbs(I-1
I4
tp96
g0
(g9
g2
Ntp97
Rp98
(dp99
g13
I01
sg14
F-0.3797754984618981
sg15
g96
sbs(I-3
I4
tp100
g0
(g9
g2
Ntp101
Rp102
(dp103
g13
I01
sg14
F-1.2640391340254133
sg15
g100
sbs(I-20
I2
tp104
g0
(g9
g2
Ntp105
Rp106
(dp107
g13
I00
sg14
F0.1814128277180494
sg15
g104
sbs(I-19
I3
tp108
g0
(g9
g2
Ntp109
Rp110
(dp111
g13
I01
sg14
F-1.1458465817870256
sg15
g108
sbs(I180
I2
tp112
g0
(g9
g2
Ntp113
Rp114
(dp115
g13
I01
sg14
F0.08381794405555673
sg15
g112
sbs(I-17
I0
tp116
g0
(g9
g2
Ntp117
Rp118
(dp119
g13
I01
sg14
F-0.05708644324400269
sg15
g116
sbs(I-17
I4
tp120
g0
(g9
g2
Ntp121
Rp122
(dp123
g13
I01
sg14
F0.15759086920551635
sg15
g120
sbs(I-7
I0
tp124
g0
(g9
g2
Ntp125
Rp126
(dp127
g13
I01
sg14
F1.1074850165260304
sg15
g124
sbs(I-1
I1
tp128
g0
(g9
g2
Ntp129
Rp130
(dp131
g13
I01
sg14
F-0.06675106610603065
sg15
g128
sbs(I-16
I4
tp132
g0
(g9
g2
Ntp133
Rp134
(dp135
g13
I01
sg14
F2.1967254485255507
sg15
g132
sbs(I-15
I1
tp136
g0
(g9
g2
Ntp137
Rp138
(dp139
g13
I01
sg14
F-1.3818350640510906
sg15
g136
sbs(I-13
I2
tp140
g0
(g9
g2
Ntp141
Rp142
(dp143
g13
I01
sg14
F-0.4292063616953712
sg15
g140
sbs(I-8
I2
tp144
g0
(g9
g2
Ntp145
Rp146
(dp147
g13
I01
sg14
F3.578659813016081
sg15
g144
sbs(I-7
I3
tp148
g0
(g9
g2
Ntp149
Rp150
(dp151
g13
I01
sg14
F0.23238555674204875
sg15
g148
sbs(I-10
I0
tp152
g0
(g9
g2
Ntp153
Rp154
(dp155
g13
I01
sg14
F0.5170192122190033
sg15
g152
sbs(I-5
I0
tp156
g0
(g9
g2
Ntp157
Rp158
(dp159
g13
I01
sg14
F0.22627308952542646
sg15
g156
sbs(I-2
I2
tp160
g0
(g9
g2
Ntp161
Rp162
(dp163
g13
I01
sg14
F1.5981898500249763
sg15
g160
sbs(I-1
I2
tp164
g0
(g9
g2
Ntp165
Rp166
(dp167
g13
I01
sg14
F-0.30651983023155266
sg15
g164
sbs(I-16
I1
tp168
g0
(g9
g2
Ntp169
Rp170
(dp171
g13
I01
sg14
F-1.826554294411865
sg15
g168
sbs(I-20
I4
tp172
g0
(g9
g2
Ntp173
Rp174
(dp175
g13
I01
sg14
F-1.4072986542824149
sg15
g172
sbs(I-2
I4
tp176
g0
(g9
g2
Ntp177
Rp178
(dp179
g13
I01
sg14
F1.5463616844617338
sg15
g176
sbs(I-18
I3
tp180
g0
(g9
g2
Ntp181
Rp182
(dp183
g13
I01
sg14
F2.900309491719203
sg15
g180
sbs(I-13
I1
tp184
g0
(g9
g2
Ntp185
Rp186
(dp187
g13
I01
sg14
F-0.8873822586727307
sg15
g184
sbs(I-20
I180
tp188
g0
(g9
g2
Ntp189
Rp190
(dp191
g13
I01
sg14
F2.3928511488848128
sg15
g188
sbs(I-16
I37
tp192
g0
(g9
g2
Ntp193
Rp194
(dp195
g13
I01
sg14
F1.73337464390789
sg15
g192
sbs(I-3
I0
tp196
g0
(g9
g2
Ntp197
Rp198
(dp199
g13
I01
sg14
F-0.5840447301282898
sg15
g196
sbs(I-14
I1
tp200
g0
(g9
g2
Ntp201
Rp202
(dp203
g13
I01
sg14
F1.928301972879368
sg15
g200
sbs(I-7
I4
tp204
g0
(g9
g2
Ntp205
Rp206
(dp207
g13
I01
sg14
F0.564641985137185
sg15
g204
sbs(I-11
I1
tp208
g0
(g9
g2
Ntp209
Rp210
(dp211
g13
I01
sg14
F-1.3957612119196492
sg15
g208
sbs(I-6
I3
tp212
g0
(g9
g2
Ntp213
Rp214
(dp215
g13
I01
sg14
F0.8641294341261351
sg15
g212
sbs(I-9
I2
tp216
g0
(g9
g2
Ntp217
Rp218
(dp219
g13
I01
sg14
F-2.027215693433274
sg15
g216
sbs(I-4
I2
tp220
g0
(g9
g2
Ntp221
Rp222
(dp223
g13
I01
sg14
F2.34295594504728
sg15
g220
sbs(I-3
I3
tp224
g0
(g9
g2
Ntp225
Rp226
(dp227
g13
I01
sg14
F-2.4933877339515575
sg15
g224
sbs(I37
I2
tp228
g0
(g9
g2
Ntp229
Rp230
(dp231
g13
I01
sg14
F1.9822465956669753
sg15
g228
sbs(I-20
I3
tp232
g0
(g9
g2
Ntp233
Rp234
(dp235
g13
I01
sg14
F0.9639058368143789
sg15
g232
sbs(I-19
I2
tp236
g0
(g9
g2
Ntp237
Rp238
(dp239
g13
I01
sg14
F2.6291432507674033
sg15
g236
sbs(I-14
I2
tp240
g0
(g9
g2
Ntp241
Rp242
(dp243
g13
I01
sg14
F0.7612818310060344
sg15
g240
sbs(I-17
I3
tp244
g0
(g9
g2
Ntp245
Rp246
(dp247
g13
I01
sg14
F3.931357816721646
sg15
g244
sbs(I-12
I1
tp248
g0
(g9
g2
Ntp249
Rp250
(dp251
g13
I01
sg14
F0.060455876392486035
sg15
g248
sbs(I-10
I4
tp252
g0
(g9
g2
Ntp253
Rp254
(dp255
g13
I01
sg14
F1.2742374792056055
sg15
g252
sbs(I-11
I4
tp256
g0
(g9
g2
Ntp257
Rp258
(dp259
g13
I01
sg14
F4.648493437758013
sg15
g256
sbs(I-5
I4
tp260
g0
(g9
g2
Ntp261
Rp262
(dp263
g13
I01
sg14
F-0.379386059655973
sg15
g260
sbs(I-6
I4
tp264
g0
(g9
g2
Ntp265
Rp266
(dp267
g13
I01
sg14
F-1.137755884912996
sg15
g264
sbs(I-9
I1
tp268
g0
(g9
g2
Ntp269
Rp270
(dp271
g13
I01
sg14
F-0.8662793027913938
sg15
g268
sbs(I-20
I0
tp272
g0
(g9
g2
Ntp273
Rp274
(dp275
g13
I01
sg14
F-0.3752871738967737
sg15
g272
sbs(I-15
I0
tp276
g0
(g9
g2
Ntp277
Rp278
(dp279
g13
I01
sg14
F0.30964611604663866
sg15
g276
sbs(I-8
I3
tp280
g0
(g9
g2
Ntp281
Rp282
(dp283
g13
I01
sg14
F2.18672834863827
sg15
g280
sbs(I-5
I3
tp284
g0
(g9
g2
Ntp285
Rp286
(dp287
g13
I01
sg14
F1.3263971362436382
sg15
g284
sbs(I-9
I4
tp288
g0
(g9
g2
Ntp289
Rp290
(dp291
g13
I01
sg14
F-0.39328178883545417
sg15
g288
sbs(I-4
I4
tp292
g0
(g9
g2
Ntp293
Rp294
(dp295
g13
I01
sg14
F-1.2733300532763265
sg15
g292
sbs(I-2
I3
tp296
g0
(g9
g2
Ntp297
Rp298
(dp299
g13
I01
sg14
F-0.9846026056084447
sg15
g296
sbs(I-16
I2
tp300
g0
(g9
g2
Ntp301
Rp302
(dp303
g13
I01
sg14
F0.11008298691841603
sg15
g300
sbs(I-15
I3
tp304
g0
(g9
g2
Ntp305
Rp306
(dp307
g13
I01
sg14
F2.304927918060706
sg15
g304
sbs(I-18
I0
tp308
g0
(g9
g2
Ntp309
Rp310
(dp311
g13
I01
sg14
F-2.2036355369034215
sg15
g308
sbs(I-13
I0
tp312
g0
(g9
g2
Ntp313
Rp314
(dp315
g13
I01
sg14
F-0.497174430199188
sg15
g312
sbs(I-8
I0
tp316
g0
(g9
g2
Ntp317
Rp318
(dp319
g13
I01
sg14
F-1.1149346874737995
sg15
g316
sbs(I-10
I2
tp320
g0
(g9
g2
Ntp321
Rp322
(dp323
g13
I01
sg14
F1.3234217734043503
sg15
g320
sbs(I-17
I1
tp324
g0
(g9
g2
Ntp325
Rp326
(dp327
g13
I01
sg14
F-2.5338606677048126
sg15
g324
sbs(I-11
I0
tp328
g0
(g9
g2
Ntp329
Rp330
(dp331
g13
I01
sg14
F1.2013019598255499
sg15
g328
sbs(I-6
I0
tp332
g0
(g9
g2
Ntp333
Rp334
(dp335
g13
I01
sg14
F2.4298667303981927
sg15
g332
sbs(I-4
I3
tp336
g0
(g9
g2
Ntp337
Rp338
(dp339
g13
I01
sg14
F-0.32179113620186617
sg15
g336
sbs(I-3
I2
tp340
g0
(g9
g2
Ntp341
Rp342
(dp343
g13
I01
sg14
F0.9215708181624812
sg15
g340
sbs(I37
I1
tp344
g0
(g9
g2
Ntp345
Rp346
(dp347
g13
I01
sg14
F1.358461807666417
sg15
g344
sbs(I-15
I4
tp348
g0
(g9
g2
Ntp349
Rp350
(dp351
g13
I01
sg14
F-0.1155823515836808
sg15
g348
sbs(I-19
I1
tp352
g0
(g9
g2
Ntp353
Rp354
(dp355
g13
I01
sg14
F-1.6501468992204926
sg15
g352
sbs(I-17
I2
tp356
g0
(g9
g2
Ntp357
Rp358
(dp359
g13
I01
sg14
F2.4699603886554584
sg15
g356
sbs(I-12
I2
tp360
g0
(g9
g2
Ntp361
Rp362
(dp363
g13
I01
sg14
F0.8874737280305376
sg15
g360
sbs(I-2
I1
tp364
g0
(g9
g2
Ntp365
Rp366
(dp367
g13
I01
sg14
F-0.1876747603302683
sg15
g364
sbs(I-11
I3
tp368
g0
(g9
g2
Ntp369
Rp370
(dp371
g13
I00
sg14
F-0.4128151125332986
sg15
g368
sbs(I-9
I0
tp372
g0
(g9
g2
Ntp373
Rp374
(dp375
g13
I01
sg14
F1.099368337600557
sg15
g372
sbs(I-4
I0
tp376
g0
(g9
g2
Ntp377
Rp378
(dp379
g13
I00
sg14
F-0.05270992015486514
sg15
g376
sbs(I37
I4
tp380
g0
(g9
g2
Ntp381
Rp382
(dp383
g13
I01
sg14
F-0.7046058341497171
sg15
g380
sbs(I-20
I1
tp384
g0
(g9
g2
Ntp385
Rp386
(dp387
g13
I01
sg14
F-1.7940291251059577
sg15
g384
sbs(I-19
I4
tp388
g0
(g9
g2
Ntp389
Rp390
(dp391
g13
I01
sg14
F3.442726297621276
sg15
g388
sbs(I-13
I4
tp392
g0
(g9
g2
Ntp393
Rp394
(dp395
g13
I01
sg14
F-3.8091267853201947
sg15
g392
sbs(I-8
I4
tp396
g0
(g9
g2
Ntp397
Rp398
(dp399
g13
I01
sg14
F0.1527049635815637
sg15
g396
sbs(I-7
I1
tp400
g0
(g9
g2
Ntp401
Rp402
(dp403
g13
I01
sg14
F-0.30671466895161503
sg15
g400
sbs(I-5
I2
tp404
g0
(g9
g2
Ntp405
Rp406
(dp407
g13
I01
sg14
F0.6808060166556613
sg15
g404
sbssS'nodes'
p408
(dp409
I0
g0
(cneat.genes
DefaultNodeGene
p410
g2
Ntp411
Rp412
(dp413
S'activation'
p414
S'tanh'
p415
sS'bias'
p416
F-3.071647693451074
sS'response'
p417
F1.0
sg15
I0
sS'aggregation'
p418
S'sum'
p419
sbsI1
g0
(g410
g2
Ntp420
Rp421
(dp422
g414
g415
sg416
F-1.9942621375508225
sg417
F1.0
sg15
I1
sg418
g419
sbsI2
g0
(g410
g2
Ntp423
Rp424
(dp425
g414
g415
sg416
F1.2757914356970572
sg417
F1.0
sg15
I2
sg418
g419
sbsI3
g0
(g410
g2
Ntp426
Rp427
(dp428
g414
g415
sg416
F-0.9875262052873927
sg417
F1.0
sg15
I3
sg418
g419
sbsI4
g0
(g410
g2
Ntp429
Rp430
(dp431
g414
g415
sg416
F-0.7725941604288837
sg417
F1.0
sg15
I4
sg418
g419
sbsI37
g0
(g410
g2
Ntp432
Rp433
(dp434
g414
g415
sg416
F-1.1741260442867072
sg417
F1.0
sg15
I37
sg418
g419
sbsI180
g0
(g410
g2
Ntp435
Rp436
(dp437
g414
g415
sg416
F-0.19752813762417049
sg417
F1.0
sg15
I180
sg418
g419
sbssg15
I1040
sS'fitness'
p438
F88.0
sb.