ccopy_reg
_reconstructor
p0
(cneat.genome
DefaultGenome
p1
c__builtin__
object
p2
Ntp3
Rp4
(dp5
S'connections'
p6
(dp7
(I-14
I32
tp8
g0
(cneat.genes
DefaultConnectionGene
p9
g2
Ntp10
Rp11
(dp12
S'enabled'
p13
I01
sS'weight'
p14
F-1.0
sS'key'
p15
g8
sbs(I-18
I31
tp16
g0
(g9
g2
Ntp17
Rp18
(dp19
g13
I01
sg14
F-0.3900779714371518
sg15
g16
sbs(I-11
I32
tp20
g0
(g9
g2
Ntp21
Rp22
(dp23
g13
I01
sg14
F-1.0
sg15
g20
sbs(I-13
I29
tp24
g0
(g9
g2
Ntp25
Rp26
(dp27
g13
I01
sg14
F0.9756006614427067
sg15
g24
sbs(I-8
I27
tp28
g0
(g9
g2
Ntp29
Rp30
(dp31
g13
I01
sg14
F1.0
sg15
g28
sbs(I-2
I30
tp32
g0
(g9
g2
Ntp33
Rp34
(dp35
g13
I01
sg14
F-0.8581766251140588
sg15
g32
sbs(I-12
I30
tp36
g0
(g9
g2
Ntp37
Rp38
(dp39
g13
I01
sg14
F-0.35187212173554155
sg15
g36
sbs(I-6
I34
tp40
g0
(g9
g2
Ntp41
Rp42
(dp43
g13
I01
sg14
F-1.0
sg15
g40
sbs(I-7
I26
tp44
g0
(g9
g2
Ntp45
Rp46
(dp47
g13
I01
sg14
F0.774131683627135
sg15
g44
sbs(I-11
I31
tp48
g0
(g9
g2
Ntp49
Rp50
(dp51
g13
I01
sg14
F0.5230970759023198
sg15
g48
sbs(I-4
I33
tp52
g0
(g9
g2
Ntp53
Rp54
(dp55
g13
I01
sg14
F0.7456772366541433
sg15
g52
sbs(I25
I1
tp56
g0
(g9
g2
Ntp57
Rp58
(dp59
g13
I01
sg14
F0.6466254909069585
sg15
g56
sbs(I-16
I25
tp60
g0
(g9
g2
Ntp61
Rp62
(dp63
g13
I01
sg14
F-0.29429342218981197
sg15
g60
sbs(I-10
I28
tp64
g0
(g9
g2
Ntp65
Rp66
(dp67
g13
I01
sg14
F-0.3068044421071281
sg15
g64
sbs(I27
I2
tp68
g0
(g9
g2
Ntp69
Rp70
(dp71
g13
I01
sg14
F-0.2540254241887508
sg15
g68
sbs(I-20
I28
tp72
g0
(g9
g2
Ntp73
Rp74
(dp75
g13
I01
sg14
F-0.5549160593887477
sg15
g72
sbs(I-5
I28
tp76
g0
(g9
g2
Ntp77
Rp78
(dp79
g13
I01
sg14
F-0.5896137388955286
sg15
g76
sbs(I32
I2
tp80
g0
(g9
g2
Ntp81
Rp82
(dp83
g13
I01
sg14
F0.9527260696506596
sg15
g80
sbs(I-9
I25
tp84
g0
(g9
g2
Ntp85
Rp86
(dp87
g13
I01
sg14
F-0.3281971439242804
sg15
g84
sbs(I-19
I33
tp88
g0
(g9
g2
Ntp89
Rp90
(dp91
g13
I01
sg14
F0.7964172026692997
sg15
g88
sbs(I-4
I31
tp92
g0
(g9
g2
Ntp93
Rp94
(dp95
g13
I01
sg14
F0.4873613173202319
sg15
g92
sbs(I33
I3
tp96
g0
(g9
g2
Ntp97
Rp98
(dp99
g13
I01
sg14
F0.8292534528635919
sg15
g96
sbs(I30
I0
tp100
g0
(g9
g2
Ntp101
Rp102
(dp103
g13
I01
sg14
F-0.4876794676449813
sg15
g100
sbs(I-3
I30
tp104
g0
(g9
g2
Ntp105
Rp106
(dp107
g13
I01
sg14
F0.22473249187010488
sg15
g104
sbs(I-12
I34
tp108
g0
(g9
g2
Ntp109
Rp110
(dp111
g13
I01
sg14
F0.9919246096468435
sg15
g108
sbs(I-17
I32
tp112
g0
(g9
g2
Ntp113
Rp114
(dp115
g13
I01
sg14
F0.9455694076981527
sg15
g112
sbs(I-2
I29
tp116
g0
(g9
g2
Ntp117
Rp118
(dp119
g13
I01
sg14
F-0.1576699448096875
sg15
g116
sbs(I-7
I32
tp120
g0
(g9
g2
Ntp121
Rp122
(dp123
g13
I01
sg14
F-0.9717339662902557
sg15
g120
sbs(I-17
I29
tp124
g0
(g9
g2
Ntp125
Rp126
(dp127
g13
I01
sg14
F0.6089601303809814
sg15
g124
sbs(I-9
I32
tp128
g0
(g9
g2
Ntp129
Rp130
(dp131
g13
I01
sg14
F-0.34558062565900394
sg15
g128
sbs(I-17
I30
tp132
g0
(g9
g2
Ntp133
Rp134
(dp135
g13
I01
sg14
F0.15128455817044337
sg15
g132
sbs(I-20
I34
tp136
g0
(g9
g2
Ntp137
Rp138
(dp139
g13
I01
sg14
F-0.4231144449825468
sg15
g136
sbs(I-2
I33
tp140
g0
(g9
g2
Ntp141
Rp142
(dp143
g13
I01
sg14
F-0.9672407803541601
sg15
g140
sbs(I27
I1
tp144
g0
(g9
g2
Ntp145
Rp146
(dp147
g13
I01
sg14
F-0.3595383897017781
sg15
g144
sbs(I-20
I33
tp148
g0
(g9
g2
Ntp149
Rp150
(dp151
g13
I01
sg14
F0.7936072084048924
sg15
g148
sbs(I-5
I27
tp152
g0
(g9
g2
Ntp153
Rp154
(dp155
g13
I01
sg14
F0.25310492391714595
sg15
g152
sbs(I-14
I25
tp156
g0
(g9
g2
Ntp157
Rp158
(dp159
g13
I01
sg14
F0.5174961105955327
sg15
g156
sbs(I-9
I28
tp160
g0
(g9
g2
Ntp161
Rp162
(dp163
g13
I01
sg14
F0.9576023748846425
sg15
g160
sbs(I-10
I26
tp164
g0
(g9
g2
Ntp165
Rp166
(dp167
g13
I01
sg14
F-0.11726161549812164
sg15
g164
sbs(I-4
I28
tp168
g0
(g9
g2
Ntp169
Rp170
(dp171
g13
I01
sg14
F1.0
sg15
g168
sbs(I-15
I33
tp172
g0
(g9
g2
Ntp173
Rp174
(dp175
g13
I01
sg14
F-0.5499514399552993
sg15
g172
sbs(I-8
I34
tp176
g0
(g9
g2
Ntp177
Rp178
(dp179
g13
I01
sg14
F0.6940483672721668
sg15
g176
sbs(I-1
I30
tp180
g0
(g9
g2
Ntp181
Rp182
(dp183
g13
I01
sg14
F0.7835726205345203
sg15
g180
sbs(I-2
I25
tp184
g0
(g9
g2
Ntp185
Rp186
(dp187
g13
I01
sg14
F1.0
sg15
g184
sbs(I-5
I32
tp188
g0
(g9
g2
Ntp189
Rp190
(dp191
g13
I01
sg14
F0.3884829657290262
sg15
g188
sbs(I26
I1
tp192
g0
(g9
g2
Ntp193
Rp194
(dp195
g13
I01
sg14
F-1.0
sg15
g192
sbs(I-20
I27
tp196
g0
(g9
g2
Ntp197
Rp198
(dp199
g13
I01
sg14
F1.0
sg15
g196
sbs(I-15
I29
tp200
g0
(g9
g2
Ntp201
Rp202
(dp203
g13
I01
sg14
F1.0
sg15
g200
sbs(I-2
I34
tp204
g0
(g9
g2
Ntp205
Rp206
(dp207
g13
I01
sg14
F0.3850318302010485
sg15
g204
sbs(I-19
I26
tp208
g0
(g9
g2
Ntp209
Rp210
(dp211
g13
I01
sg14
F-1.0
sg15
g208
sbs(I33
I4
tp212
g0
(g9
g2
Ntp213
Rp214
(dp215
g13
I01
sg14
F-0.5367588595350467
sg15
g212
sbs(I-14
I26
tp216
g0
(g9
g2
Ntp217
Rp218
(dp219
g13
I01
sg14
F0.9850371187566055
sg15
g216
sbs(I-16
I33
tp220
g0
(g9
g2
Ntp221
Rp222
(dp223
g13
I01
sg14
F-1.0
sg15
g220
sbs(I29
I1
tp224
g0
(g9
g2
Ntp225
Rp226
(dp227
g13
I01
sg14
F-0.20784951852184896
sg15
g224
sbs(I34
I3
tp228
g0
(g9
g2
Ntp229
Rp230
(dp231
g13
I01
sg14
F-0.7786322874249471
sg15
g228
sbs(I31
I2
tp232
g0
(g9
g2
Ntp233
Rp234
(dp235
g13
I01
sg14
F-1.0
sg15
g232
sbs(I-8
I31
tp236
g0
(g9
g2
Ntp237
Rp238
(dp239
g13
I01
sg14
F0.22740515849275936
sg15
g236
sbs(I-18
I32
tp240
g0
(g9
g2
Ntp241
Rp242
(dp243
g13
I01
sg14
F0.5402240705086909
sg15
g240
sbs(I-1
I27
tp244
g0
(g9
g2
Ntp245
Rp246
(dp247
g13
I01
sg14
F0.49219081154668465
sg15
g244
sbs(I-12
I26
tp248
g0
(g9
g2
Ntp249
Rp250
(dp251
g13
I01
sg14
F-0.20739348480585676
sg15
g248
sbs(I-1
I34
tp252
g0
(g9
g2
Ntp253
Rp254
(dp255
g13
I01
sg14
F1.0
sg15
g252
sbs(I-7
I30
tp256
g0
(g9
g2
Ntp257
Rp258
(dp259
g13
I01
sg14
F0.9651880690382701
sg15
g256
sbs(I-11
I27
tp260
g0
(g9
g2
Ntp261
Rp262
(dp263
g13
I01
sg14
F-0.5757978331519248
sg15
g260
sbs(I-6
I29
tp264
g0
(g9
g2
Ntp265
Rp266
(dp267
g13
I01
sg14
F-0.4334766638637666
sg15
g264
sbs(I-16
I29
tp268
g0
(g9
g2
Ntp269
Rp270
(dp271
g13
I01
sg14
F-0.3275879233070304
sg15
g268
sbs(I-3
I32
tp272
g0
(g9
g2
Ntp273
Rp274
(dp275
g13
I01
sg14
F0.018035262536170323
sg15
g272
sbs(I-17
I31
tp276
g0
(g9
g2
Ntp277
Rp278
(dp279
g13
I01
sg14
F0.13317408115148652
sg15
g276
sbs(I28
I1
tp280
g0
(g9
g2
Ntp281
Rp282
(dp283
g13
I01
sg14
F0.06031324620492167
sg15
g280
sbs(I-19
I29
tp284
g0
(g9
g2
Ntp285
Rp286
(dp287
g13
I01
sg14
F0.6880856442448503
sg15
g284
sbs(I-4
I27
tp288
g0
(g9
g2
Ntp289
Rp290
(dp291
g13
I01
sg14
F0.04582696137916037
sg15
g288
sbs(I-10
I34
tp292
g0
(g9
g2
Ntp293
Rp294
(dp295
g13
I01
sg14
F0.006036626274278911
sg15
g292
sbs(I-14
I31
tp296
g0
(g9
g2
Ntp297
Rp298
(dp299
g13
I01
sg14
F-1.0
sg15
g296
sbs(I30
I4
tp300
g0
(g9
g2
Ntp301
Rp302
(dp303
g13
I01
sg14
F0.23726584313402332
sg15
g300
sbs(I29
I4
tp304
g0
(g9
g2
Ntp305
Rp306
(dp307
g13
I01
sg14
F-0.29767470819311137
sg15
g304
sbs(I-3
I26
tp308
g0
(g9
g2
Ntp309
Rp310
(dp311
g13
I01
sg14
F0.0842905848354526
sg15
g308
sbs(I34
I4
tp312
g0
(g9
g2
Ntp313
Rp314
(dp315
g13
I01
sg14
F-0.8741036204383129
sg15
g312
sbs(I-14
I33
tp316
g0
(g9
g2
Ntp317
Rp318
(dp319
g13
I01
sg14
F-1.0
sg15
g316
sbs(I31
I1
tp320
g0
(g9
g2
Ntp321
Rp322
(dp323
g13
I01
sg14
F0.01493836077788995
sg15
g320
sbs(I-18
I28
tp324
g0
(g9
g2
Ntp325
Rp326
(dp327
g13
I01
sg14
F-0.04390037119118333
sg15
g324
sbs(I-13
I28
tp328
g0
(g9
g2
Ntp329
Rp330
(dp331
g13
I01
sg14
F0.8133793354481648
sg15
g328
sbs(I-8
I28
tp332
g0
(g9
g2
Ntp333
Rp334
(dp335
g13
I01
sg14
F0.6857780827046347
sg15
g332
sbs(I-12
I31
tp336
g0
(g9
g2
Ntp337
Rp338
(dp339
g13
I01
sg14
F-1.0
sg15
g336
sbs(I-7
I25
tp340
g0
(g9
g2
Ntp341
Rp342
(dp343
g13
I01
sg14
F1.0
sg15
g340
sbs(I-11
I30
tp344
g0
(g9
g2
Ntp345
Rp346
(dp347
g13
I01
sg14
F-0.9890605549487412
sg15
g344
sbs(I-4
I34
tp348
g0
(g9
g2
Ntp349
Rp350
(dp351
g13
I01
sg14
F-1.0
sg15
g348
sbs(I25
I0
tp352
g0
(g9
g2
Ntp353
Rp354
(dp355
g13
I01
sg14
F0.7855521672956012
sg15
g352
sbs(I-6
I30
tp356
g0
(g9
g2
Ntp357
Rp358
(dp359
g13
I01
sg14
F-1.0
sg15
g356
sbs(I-16
I26
tp360
g0
(g9
g2
Ntp361
Rp362
(dp363
g13
I01
sg14
F-0.07253486965076494
sg15
g360
sbs(I-10
I29
tp364
g0
(g9
g2
Ntp365
Rp366
(dp367
g13
I01
sg14
F0.5204684168682094
sg15
g364
sbs(I26
I0
tp368
g0
(g9
g2
Ntp369
Rp370
(dp371
g13
I01
sg14
F0.24121952528514728
sg15
g368
sbs(I-20
I29
tp372
g0
(g9
g2
Ntp373
Rp374
(dp375
g13
I01
sg14
F1.0
sg15
g372
sbs(I-5
I31
tp376
g0
(g9
g2
Ntp377
Rp378
(dp379
g13
I01
sg14
F-0.056093768477809974
sg15
g376
sbs(I32
I3
tp380
g0
(g9
g2
Ntp381
Rp382
(dp383
g13
I01
sg14
F-0.0076879679375869685
sg15
g380
sbs(I-15
I27
tp384
g0
(g9
g2
Ntp385
Rp386
(dp387
g13
I01
sg14
F-0.20923861228943105
sg15
g384
sbs(I-19
I32
tp388
g0
(g9
g2
Ntp389
Rp390
(dp391
g13
I01
sg14
F1.0
sg15
g388
sbs(I33
I2
tp392
g0
(g9
g2
Ntp393
Rp394
(dp395
g13
I01
sg14
F-0.49876180127074793
sg15
g392
sbs(I30
I1
tp396
g0
(g9
g2
Ntp397
Rp398
(dp399
g13
I01
sg14
F0.8993975641694604
sg15
g396
sbs(I-3
I29
tp400
g0
(g9
g2
Ntp401
Rp402
(dp403
g13
I01
sg14
F0.2903809931582774
sg15
g400
sbs(I-14
I34
tp404
g0
(g9
g2
Ntp405
Rp406
(dp407
g13
I01
sg14
F-0.32871882069354014
sg15
g404
sbs(I31
I4
tp408
g0
(g9
g2
Ntp409
Rp410
(dp411
g13
I01
sg14
F-1.0
sg15
g408
sbs(I-18
I25
tp412
g0
(g9
g2
Ntp413
Rp414
(dp415
g13
I01
sg14
F-0.8227561736591713
sg15
g412
sbs(I-11
I34
tp416
g0
(g9
g2
Ntp417
Rp418
(dp419
g13
I01
sg14
F0.7857958118997609
sg15
g416
sbs(I-13
I27
tp420
g0
(g9
g2
Ntp421
Rp422
(dp423
g13
I01
sg14
F-1.0
sg15
g420
sbs(I-8
I25
tp424
g0
(g9
g2
Ntp425
Rp426
(dp427
g13
I01
sg14
F-1.0
sg15
g424
sbs(I-12
I28
tp428
g0
(g9
g2
Ntp429
Rp430
(dp431
g13
I01
sg14
F-0.882317475956082
sg15
g428
sbs(I25
I3
tp432
g0
(g9
g2
Ntp433
Rp434
(dp435
g13
I01
sg14
F-1.0
sg15
g432
sbs(I-10
I30
tp436
g0
(g9
g2
Ntp437
Rp438
(dp439
g13
I01
sg14
F0.5174294884365332
sg15
g436
sbs(I27
I0
tp440
g0
(g9
g2
Ntp441
Rp442
(dp443
g13
I01
sg14
F0.5408042701134571
sg15
g440
sbs(I-17
I28
tp444
g0
(g9
g2
Ntp445
Rp446
(dp447
g13
I01
sg14
F-0.2921615761579631
sg15
g444
sbs(I-5
I26
tp448
g0
(g9
g2
Ntp449
Rp450
(dp451
g13
I01
sg14
F0.6297157270029545
sg15
g448
sbs(I32
I0
tp452
g0
(g9
g2
Ntp453
Rp454
(dp455
g13
I01
sg14
F-1.0
sg15
g452
sbs(I-9
I31
tp456
g0
(g9
g2
Ntp457
Rp458
(dp459
g13
I01
sg14
F0.3556538803925597
sg15
g456
sbs(I-4
I29
tp460
g0
(g9
g2
Ntp461
Rp462
(dp463
g13
I01
sg14
F-1.0
sg15
g460
sbs(I-15
I32
tp464
g0
(g9
g2
Ntp465
Rp466
(dp467
g13
I01
sg14
F-1.0
sg15
g464
sbs(I30
I2
tp468
g0
(g9
g2
Ntp469
Rp470
(dp471
g13
I01
sg14
F1.0
sg15
g468
sbs(I-12
I32
tp472
g0
(g9
g2
Ntp473
Rp474
(dp475
g13
I01
sg14
F-1.0
sg15
g472
sbs(I-18
I26
tp476
g0
(g9
g2
Ntp477
Rp478
(dp479
g13
I01
sg14
F-0.1547026523790246
sg15
g476
sbs(I-2
I31
tp480
g0
(g9
g2
Ntp481
Rp482
(dp483
g13
I01
sg14
F-0.23091952466499738
sg15
g480
sbs(I-17
I26
tp484
g0
(g9
g2
Ntp485
Rp486
(dp487
g13
I01
sg14
F0.851051400489507
sg15
g484
sbs(I26
I3
tp488
g0
(g9
g2
Ntp489
Rp490
(dp491
g13
I01
sg14
F-0.8850826853283283
sg15
g488
sbs(I-7
I34
tp492
g0
(g9
g2
Ntp493
Rp494
(dp495
g13
I01
sg14
F0.9417342477939625
sg15
g492
sbs(I-6
I25
tp496
g0
(g9
g2
Ntp497
Rp498
(dp499
g13
I01
sg14
F-0.10503051777278125
sg15
g496
sbs(I-2
I27
tp500
g0
(g9
g2
Ntp501
Rp502
(dp503
g13
I01
sg14
F1.0
sg15
g500
sbs(I-15
I28
tp504
g0
(g9
g2
Ntp505
Rp506
(dp507
g13
I01
sg14
F0.3255206743205469
sg15
g504
sbs(I-10
I27
tp508
g0
(g9
g2
Ntp509
Rp510
(dp511
g13
I01
sg14
F0.06132016566293043
sg15
g508
sbs(I-19
I25
tp512
g0
(g9
g2
Ntp513
Rp514
(dp515
g13
I01
sg14
F0.5574429552729582
sg15
g512
sbs(I-5
I25
tp516
g0
(g9
g2
Ntp517
Rp518
(dp519
g13
I01
sg14
F0.28230484633476116
sg15
g516
sbs(I-14
I27
tp520
g0
(g9
g2
Ntp521
Rp522
(dp523
g13
I01
sg14
F0.17396548593209563
sg15
g520
sbs(I-16
I34
tp524
g0
(g9
g2
Ntp525
Rp526
(dp527
g13
I01
sg14
F-0.33496683813556677
sg15
g524
sbs(I29
I0
tp528
g0
(g9
g2
Ntp529
Rp530
(dp531
g13
I01
sg14
F-0.38682706324140786
sg15
g528
sbs(I34
I0
tp532
g0
(g9
g2
Ntp533
Rp534
(dp535
g13
I01
sg14
F-1.0
sg15
g532
sbs(I-13
I34
tp536
g0
(g9
g2
Ntp537
Rp538
(dp539
g13
I01
sg14
F1.0
sg15
g536
sbs(I-1
I29
tp540
g0
(g9
g2
Ntp541
Rp542
(dp543
g13
I01
sg14
F-1.0
sg15
g540
sbs(I-8
I32
tp544
g0
(g9
g2
Ntp545
Rp546
(dp547
g13
I01
sg14
F-0.2171633723723052
sg15
g544
sbs(I-10
I32
tp548
g0
(g9
g2
Ntp549
Rp550
(dp551
g13
I01
sg14
F-0.7448683845661632
sg15
g548
sbs(I-12
I27
tp552
g0
(g9
g2
Ntp553
Rp554
(dp555
g13
I01
sg14
F-0.7034965236225056
sg15
g552
sbs(I-7
I29
tp556
g0
(g9
g2
Ntp557
Rp558
(dp559
g13
I01
sg14
F1.0
sg15
g556
sbs(I-11
I26
tp560
g0
(g9
g2
Ntp561
Rp562
(dp563
g13
I01
sg14
F-1.0
sg15
g560
sbs(I25
I4
tp564
g0
(g9
g2
Ntp565
Rp566
(dp567
g13
I01
sg14
F-0.03278237760298178
sg15
g564
sbs(I-6
I26
tp568
g0
(g9
g2
Ntp569
Rp570
(dp571
g13
I01
sg14
F0.6562665162329906
sg15
g568
sbs(I-16
I30
tp572
g0
(g9
g2
Ntp573
Rp574
(dp575
g13
I01
sg14
F0.758140256468387
sg15
g572
sbs(I26
I2
tp576
g0
(g9
g2
Ntp577
Rp578
(dp579
g13
I01
sg14
F0.7301688126468429
sg15
g576
sbs(I-20
I25
tp580
g0
(g9
g2
Ntp581
Rp582
(dp583
g13
I01
sg14
F-1.0
sg15
g580
sbs(I-15
I31
tp584
g0
(g9
g2
Ntp585
Rp586
(dp587
g13
I01
sg14
F0.305368176634118
sg15
g584
sbs(I28
I2
tp588
g0
(g9
g2
Ntp589
Rp590
(dp591
g13
I01
sg14
F0.44078040800623347
sg15
g588
sbs(I-19
I28
tp592
g0
(g9
g2
Ntp593
Rp594
(dp595
g13
I01
sg14
F0.08298790878848218
sg15
g592
sbs(I-14
I28
tp596
g0
(g9
g2
Ntp597
Rp598
(dp599
g13
I01
sg14
F0.08063764365190017
sg15
g596
sbs(I29
I3
tp600
g0
(g9
g2
Ntp601
Rp602
(dp603
g13
I01
sg14
F0.7911507223899533
sg15
g600
sbs(I-3
I25
tp604
g0
(g9
g2
Ntp605
Rp606
(dp607
g13
I01
sg14
F0.4992677649443222
sg15
g604
sbs(I-13
I33
tp608
g0
(g9
g2
Ntp609
Rp610
(dp611
g13
I01
sg14
F0.8058193521156939
sg15
g608
sbs(I31
I0
tp612
g0
(g9
g2
Ntp613
Rp614
(dp615
g13
I01
sg14
F-1.0
sg15
g612
sbs(I-18
I29
tp616
g0
(g9
g2
Ntp617
Rp618
(dp619
g13
I01
sg14
F1.0
sg15
g616
sbs(I-13
I31
tp620
g0
(g9
g2
Ntp621
Rp622
(dp623
g13
I01
sg14
F0.8738371531218164
sg15
g620
sbs(I-8
I29
tp624
g0
(g9
g2
Ntp625
Rp626
(dp627
g13
I01
sg14
F1.0
sg15
g624
sbs(I-17
I27
tp628
g0
(g9
g2
Ntp629
Rp630
(dp631
g13
I01
sg14
F1.0
sg15
g628
sbs(I-6
I32
tp632
g0
(g9
g2
Ntp633
Rp634
(dp635
g13
I01
sg14
F0.6953332661285436
sg15
g632
sbs(I-11
I29
tp636
g0
(g9
g2
Ntp637
Rp638
(dp639
g13
I01
sg14
F0.39157868104086707
sg15
g636
sbs(I-6
I31
tp640
g0
(g9
g2
Ntp641
Rp642
(dp643
g13
I01
sg14
F0.5928514934306276
sg15
g640
sbs(I-16
I27
tp644
g0
(g9
g2
Ntp645
Rp646
(dp647
g13
I01
sg14
F-0.8685299933373101
sg15
g644
sbs(I-1
I26
tp648
g0
(g9
g2
Ntp649
Rp650
(dp651
g13
I01
sg14
F1.0
sg15
g648
sbs(I-3
I34
tp652
g0
(g9
g2
Ntp653
Rp654
(dp655
g13
I01
sg14
F-0.44394707168310377
sg15
g652
sbs(I-20
I30
tp656
g0
(g9
g2
Ntp657
Rp658
(dp659
g13
I01
sg14
F0.4719992192387406
sg15
g656
sbs(I-5
I30
tp660
g0
(g9
g2
Ntp661
Rp662
(dp663
g13
I01
sg14
F1.0
sg15
g660
sbs(I32
I4
tp664
g0
(g9
g2
Ntp665
Rp666
(dp667
g13
I01
sg14
F0.13309189741838695
sg15
g664
sbs(I-15
I26
tp668
g0
(g9
g2
Ntp669
Rp670
(dp671
g13
I01
sg14
F-0.9210929479521252
sg15
g668
sbs(I-9
I27
tp672
g0
(g9
g2
Ntp673
Rp674
(dp675
g13
I01
sg14
F-0.7053912801861624
sg15
g672
sbs(I-19
I31
tp676
g0
(g9
g2
Ntp677
Rp678
(dp679
g13
I01
sg14
F-0.8124097245555723
sg15
g676
sbs(I-4
I25
tp680
g0
(g9
g2
Ntp681
Rp682
(dp683
g13
I01
sg14
F-1.0
sg15
g680
sbs(I33
I1
tp684
g0
(g9
g2
Ntp685
Rp686
(dp687
g13
I01
sg14
F-0.7662335598817259
sg15
g684
sbs(I-3
I28
tp688
g0
(g9
g2
Ntp689
Rp690
(dp691
g13
I01
sg14
F0.8845512848483239
sg15
g688
sbs(I27
I4
tp692
g0
(g9
g2
Ntp693
Rp694
(dp695
g13
I01
sg14
F-0.6547993120806009
sg15
g692
sbs(I-10
I25
tp696
g0
(g9
g2
Ntp697
Rp698
(dp699
g13
I01
sg14
F1.0
sg15
g696
sbs(I-17
I34
tp700
g0
(g9
g2
Ntp701
Rp702
(dp703
g13
I01
sg14
F0.9294229782071403
sg15
g700
sbs(I-1
I28
tp704
g0
(g9
g2
Ntp705
Rp706
(dp707
g13
I01
sg14
F0.34727294529348424
sg15
g704
sbs(I-11
I33
tp708
g0
(g9
g2
Ntp709
Rp710
(dp711
g13
I01
sg14
F-0.3407950761341674
sg15
g708
sbs(I-13
I26
tp712
g0
(g9
g2
Ntp713
Rp714
(dp715
g13
I01
sg14
F-1.0
sg15
g712
sbs(I-8
I26
tp716
g0
(g9
g2
Ntp717
Rp718
(dp719
g13
I01
sg14
F-1.0
sg15
g716
sbs(I-9
I34
tp720
g0
(g9
g2
Ntp721
Rp722
(dp723
g13
I01
sg14
F-0.1572390822477742
sg15
g720
sbs(I-12
I29
tp724
g0
(g9
g2
Ntp725
Rp726
(dp727
g13
I01
sg14
F0.944809351077028
sg15
g724
sbs(I-7
I27
tp728
g0
(g9
g2
Ntp729
Rp730
(dp731
g13
I01
sg14
F0.2772411326011354
sg15
g728
sbs(I-4
I32
tp732
g0
(g9
g2
Ntp733
Rp734
(dp735
g13
I01
sg14
F-0.1542715861544805
sg15
g732
sbs(I25
I2
tp736
g0
(g9
g2
Ntp737
Rp738
(dp739
g13
I01
sg14
F-0.3142472081977657
sg15
g736
sbs(I26
I4
tp740
g0
(g9
g2
Ntp741
Rp742
(dp743
g13
I01
sg14
F0.9122057869617907
sg15
g740
sbs(I-10
I31
tp744
g0
(g9
g2
Ntp745
Rp746
(dp747
g13
I01
sg14
F-0.8217225207239062
sg15
g744
sbs(I27
I3
tp748
g0
(g9
g2
Ntp749
Rp750
(dp751
g13
I01
sg14
F0.23365586150035142
sg15
g748
sbs(I-5
I29
tp752
g0
(g9
g2
Ntp753
Rp754
(dp755
g13
I01
sg14
F0.16636068479356247
sg15
g752
sbs(I32
I1
tp756
g0
(g9
g2
Ntp757
Rp758
(dp759
g13
I01
sg14
F0.4422630987704812
sg15
g756
sbs(I-9
I30
tp760
g0
(g9
g2
Ntp761
Rp762
(dp763
g13
I01
sg14
F0.2920649140405059
sg15
g760
sbs(I28
I4
tp764
g0
(g9
g2
Ntp765
Rp766
(dp767
g13
I01
sg14
F0.020947409743565133
sg15
g764
sbs(I-19
I34
tp768
g0
(g9
g2
Ntp769
Rp770
(dp771
g13
I01
sg14
F0.5045630443860482
sg15
g768
sbs(I-4
I30
tp772
g0
(g9
g2
Ntp773
Rp774
(dp775
g13
I01
sg14
F1.0
sg15
g772
sbs(I30
I3
tp776
g0
(g9
g2
Ntp777
Rp778
(dp779
g13
I01
sg14
F-0.2607853034151449
sg15
g776
sbs(I-3
I31
tp780
g0
(g9
g2
Ntp781
Rp782
(dp783
g13
I01
sg14
F-0.7786927092414649
sg15
g780
sbs(I-12
I33
tp784
g0
(g9
g2
Ntp785
Rp786
(dp787
g13
I01
sg14
F-0.5587523937740388
sg15
g784
sbs(I-1
I33
tp788
g0
(g9
g2
Ntp789
Rp790
(dp791
g13
I01
sg14
F0.7168364861534187
sg15
g788
sbs(I-17
I33
tp792
g0
(g9
g2
Ntp793
Rp794
(dp795
g13
I01
sg14
F0.2869718336915928
sg15
g792
sbs(I-18
I27
tp796
g0
(g9
g2
Ntp797
Rp798
(dp799
g13
I01
sg14
F-0.7300691638032308
sg15
g796
sbs(I-2
I28
tp800
g0
(g9
g2
Ntp801
Rp802
(dp803
g13
I01
sg14
F1.0
sg15
g800
sbs(I-13
I25
tp804
g0
(g9
g2
Ntp805
Rp806
(dp807
g13
I01
sg14
F-0.9695959565748604
sg15
g804
sbs(I-7
I33
tp808
g0
(g9
g2
Ntp809
Rp810
(dp811
g13
I01
sg14
F0.736480884529534
sg15
g808
sbs(I-9
I33
tp812
g0
(g9
g2
Ntp813
Rp814
(dp815
g13
I01
sg14
F-1.0
sg15
g812
sbs(I-5
I34
tp816
g0
(g9
g2
Ntp817
Rp818
(dp819
g13
I01
sg14
F-0.9085141652034348
sg15
g816
sbs(I-1
I32
tp820
g0
(g9
g2
Ntp821
Rp822
(dp823
g13
I01
sg14
F-1.0
sg15
g820
sbs(I-20
I32
tp824
g0
(g9
g2
Ntp825
Rp826
(dp827
g13
I01
sg14
F-0.18930655352967224
sg15
g824
sbs(I-9
I29
tp828
g0
(g9
g2
Ntp829
Rp830
(dp831
g13
I01
sg14
F-0.14090309492849895
sg15
g828
sbs(I34
I1
tp832
g0
(g9
g2
Ntp833
Rp834
(dp835
g13
I01
sg14
F1.0
sg15
g832
sbs(I-10
I33
tp836
g0
(g9
g2
Ntp837
Rp838
(dp839
g13
I01
sg14
F1.0
sg15
g836
sbs(I-15
I34
tp840
g0
(g9
g2
Ntp841
Rp842
(dp843
g13
I01
sg14
F1.0
sg15
g840
sbs(I-18
I33
tp844
g0
(g9
g2
Ntp845
Rp846
(dp847
g13
I01
sg14
F0.7831841995012252
sg15
g844
sbs(I-8
I33
tp848
g0
(g9
g2
Ntp849
Rp850
(dp851
g13
I01
sg14
F-0.21387070231554153
sg15
g848
sbs(I-1
I31
tp852
g0
(g9
g2
Ntp853
Rp854
(dp855
g13
I01
sg14
F0.012635557059823874
sg15
g852
sbs(I-1
I25
tp856
g0
(g9
g2
Ntp857
Rp858
(dp859
g13
I01
sg14
F-0.04748817120532118
sg15
g856
sbs(I-7
I28
tp860
g0
(g9
g2
Ntp861
Rp862
(dp863
g13
I01
sg14
F0.9690546261625038
sg15
g860
sbs(I-11
I25
tp864
g0
(g9
g2
Ntp865
Rp866
(dp867
g13
I01
sg14
F-0.940393220246756
sg15
g864
sbs(I-5
I33
tp868
g0
(g9
g2
Ntp869
Rp870
(dp871
g13
I01
sg14
F0.684134643728023
sg15
g868
sbs(I-6
I27
tp872
g0
(g9
g2
Ntp873
Rp874
(dp875
g13
I01
sg14
F-0.4533046824153205
sg15
g872
sbs(I-16
I31
tp876
g0
(g9
g2
Ntp877
Rp878
(dp879
g13
I01
sg14
F-0.0392334879336563
sg15
g876
sbs(I-20
I26
tp880
g0
(g9
g2
Ntp881
Rp882
(dp883
g13
I01
sg14
F-0.14802943444621236
sg15
g880
sbs(I-15
I30
tp884
g0
(g9
g2
Ntp885
Rp886
(dp887
g13
I01
sg14
F0.22309210817270503
sg15
g884
sbs(I28
I3
tp888
g0
(g9
g2
Ntp889
Rp890
(dp891
g13
I01
sg14
F-0.7504385099878434
sg15
g888
sbs(I-19
I27
tp892
g0
(g9
g2
Ntp893
Rp894
(dp895
g13
I01
sg14
F-0.8816819845809956
sg15
g892
sbs(I-14
I29
tp896
g0
(g9
g2
Ntp897
Rp898
(dp899
g13
I01
sg14
F1.0
sg15
g896
sbs(I-16
I32
tp900
g0
(g9
g2
Ntp901
Rp902
(dp903
g13
I01
sg14
F0.4178280778553553
sg15
g900
sbs(I29
I2
tp904
g0
(g9
g2
Ntp905
Rp906
(dp907
g13
I01
sg14
F-1.0
sg15
g904
sbs(I34
I2
tp908
g0
(g9
g2
Ntp909
Rp910
(dp911
g13
I01
sg14
F-0.14241050722723916
sg15
g908
sbs(I-13
I32
tp912
g0
(g9
g2
Ntp913
Rp914
(dp915
g13
I01
sg14
F-1.0
sg15
g912
sbs(I31
I3
tp916
g0
(g9
g2
Ntp917
Rp918
(dp919
g13
I01
sg14
F-0.2800235798127637
sg15
g916
sbs(I-18
I34
tp920
g0
(g9
g2
Ntp921
Rp922
(dp923
g13
I01
sg14
F-1.0
sg15
g920
sbs(I-13
I30
tp924
g0
(g9
g2
Ntp925
Rp926
(dp927
g13
I01
sg14
F1.0
sg15
g924
sbs(I-2
I32
tp928
g0
(g9
g2
Ntp929
Rp930
(dp931
g13
I01
sg14
F-1.0
sg15
g928
sbs(I-8
I30
tp932
g0
(g9
g2
Ntp933
Rp934
(dp935
g13
I01
sg14
F-1.0
sg15
g932
sbs(I-2
I26
tp936
g0
(g9
g2
Ntp937
Rp938
(dp939
g13
I01
sg14
F1.0
sg15
g936
sbs(I-12
I25
tp940
g0
(g9
g2
Ntp941
Rp942
(dp943
g13
I01
sg14
F1.0
sg15
g940
sbs(I-6
I33
tp944
g0
(g9
g2
Ntp945
Rp946
(dp947
g13
I01
sg14
F-0.5046035112269552
sg15
g944
sbs(I-7
I31
tp948
g0
(g9
g2
Ntp949
Rp950
(dp951
g13
I01
sg14
F0.7298223865966457
sg15
g948
sbs(I-11
I28
tp952
g0
(g9
g2
Ntp953
Rp954
(dp955
g13
I01
sg14
F-1.0
sg15
g952
sbs(I-17
I25
tp956
g0
(g9
g2
Ntp957
Rp958
(dp959
g13
I01
sg14
F1.0
sg15
g956
sbs(I-6
I28
tp960
g0
(g9
g2
Ntp961
Rp962
(dp963
g13
I01
sg14
F1.0
sg15
g960
sbs(I-16
I28
tp964
g0
(g9
g2
Ntp965
Rp966
(dp967
g13
I01
sg14
F0.9657367557155883
sg15
g964
sbs(I-3
I33
tp968
g0
(g9
g2
Ntp969
Rp970
(dp971
g13
I01
sg14
F-0.07660048298166418
sg15
g968
sbs(I-20
I31
tp972
g0
(g9
g2
Ntp973
Rp974
(dp975
g13
I01
sg14
F-0.3063755385387565
sg15
g972
sbs(I-18
I30
tp976
g0
(g9
g2
Ntp977
Rp978
(dp979
g13
I01
sg14
F0.46966329088345443
sg15
g976
sbs(I-15
I25
tp980
g0
(g9
g2
Ntp981
Rp982
(dp983
g13
I01
sg14
F-0.7266257099463919
sg15
g980
sbs(I-9
I26
tp984
g0
(g9
g2
Ntp985
Rp986
(dp987
g13
I01
sg14
F0.881904725785453
sg15
g984
sbs(I28
I0
tp988
g0
(g9
g2
Ntp989
Rp990
(dp991
g13
I01
sg14
F-1.0
sg15
g988
sbs(I-19
I30
tp992
g0
(g9
g2
Ntp993
Rp994
(dp995
g13
I01
sg14
F0.8906005764328824
sg15
g992
sbs(I-4
I26
tp996
g0
(g9
g2
Ntp997
Rp998
(dp999
g13
I01
sg14
F-0.2408737510050882
sg15
g996
sbs(I33
I0
tp1000
g0
(g9
g2
Ntp1001
Rp1002
(dp1003
g13
I01
sg14
F-0.8765873403267289
sg15
g1000
sbs(I-14
I30
tp1004
g0
(g9
g2
Ntp1005
Rp1006
(dp1007
g13
I01
sg14
F0.4824222951263986
sg15
g1004
sbs(I-3
I27
tp1008
g0
(g9
g2
Ntp1009
Rp1010
(dp1011
g13
I01
sg14
F-1.0
sg15
g1008
sbssS'nodes'
p1012
(dp1013
I0
g0
(cneat.genes
DefaultNodeGene
p1014
g2
Ntp1015
Rp1016
(dp1017
S'activation'
p1018
S'sigmoid'
p1019
sS'bias'
p1020
F-0.180477377241192
sS'response'
p1021
F1.0
sg15
I0
sS'aggregation'
p1022
S'product'
p1023
sbsI1
g0
(g1014
g2
Ntp1024
Rp1025
(dp1026
g1018
g1019
sg1020
F-0.31802804615736535
sg1021
F1.0
sg15
I1
sg1022
g1023
sbsI2
g0
(g1014
g2
Ntp1027
Rp1028
(dp1029
g1018
g1019
sg1020
F1.0
sg1021
F1.0
sg15
I2
sg1022
g1023
sbsI3
g0
(g1014
g2
Ntp1030
Rp1031
(dp1032
g1018
g1019
sg1020
F0.11878047893877273
sg1021
F1.0
sg15
I3
sg1022
g1023
sbsI4
g0
(g1014
g2
Ntp1033
Rp1034
(dp1035
g1018
g1019
sg1020
F0.4541378653821707
sg1021
F1.0
sg15
I4
sg1022
g1023
sbsI33
g0
(g1014
g2
Ntp1036
Rp1037
(dp1038
g1018
g1019
sg1020
F-0.3215771453529829
sg1021
F1.0
sg15
I33
sg1022
g1023
sbsI32
g0
(g1014
g2
Ntp1039
Rp1040
(dp1041
g1018
g1019
sg1020
F0.0971383808369697
sg1021
F1.0
sg15
I32
sg1022
g1023
sbsI34
g0
(g1014
g2
Ntp1042
Rp1043
(dp1044
g1018
g1019
sg1020
F0.4023920520710542
sg1021
F1.0
sg15
I34
sg1022
g1023
sbsI25
g0
(g1014
g2
Ntp1045
Rp1046
(dp1047
g1018
g1019
sg1020
F-0.11654482506181356
sg1021
F1.0
sg15
I25
sg1022
g1023
sbsI26
g0
(g1014
g2
Ntp1048
Rp1049
(dp1050
g1018
g1019
sg1020
F-0.5552560884868522
sg1021
F1.0
sg15
I26
sg1022
g1023
sbsI27
g0
(g1014
g2
Ntp1051
Rp1052
(dp1053
g1018
g1019
sg1020
F-1.0
sg1021
F1.0
sg15
I27
sg1022
g1023
sbsI28
g0
(g1014
g2
Ntp1054
Rp1055
(dp1056
g1018
g1019
sg1020
F-1.0
sg1021
F1.0
sg15
I28
sg1022
g1023
sbsI29
g0
(g1014
g2
Ntp1057
Rp1058
(dp1059
g1018
g1019
sg1020
F-0.6953090054868002
sg1021
F1.0
sg15
I29
sg1022
g1023
sbsI30
g0
(g1014
g2
Ntp1060
Rp1061
(dp1062
g1018
g1019
sg1020
F-1.0
sg1021
F1.0
sg15
I30
sg1022
g1023
sbsI31
g0
(g1014
g2
Ntp1063
Rp1064
(dp1065
g1018
g1019
sg1020
F0.6913437408018838
sg1021
F1.0
sg15
I31
sg1022
g1023
sbssg15
I3
sS'fitness'
p1066
cnumpy.core.multiarray
scalar
p1067
(cnumpy
dtype
p1068
(S'f8'
p1069
I0
I1
tp1070
Rp1071
(I3
S'<'
p1072
NNNI-1
I-1
I0
tp1073
bS'"Q\x9d\x81\x06\x00\x1b@'
p1074
tp1075
Rp1076
sb.