ccopy_reg
_reconstructor
p0
(cneat.genome
DefaultGenome
p1
c__builtin__
object
p2
Ntp3
Rp4
(dp5
S'connections'
p6
(dp7
(I-1
I0
tp8
g0
(cneat.genes
DefaultConnectionGene
p9
g2
Ntp10
Rp11
(dp12
S'enabled'
p13
I01
sS'weight'
p14
F-2.57014526629703
sS'key'
p15
g8
sbs(I-16
I3
tp16
g0
(g9
g2
Ntp17
Rp18
(dp19
g13
I01
sg14
F0.9655201918468297
sg15
g16
sbs(I-15
I2
tp20
g0
(g9
g2
Ntp21
Rp22
(dp23
g13
I01
sg14
F-0.2411353428703481
sg15
g20
sbs(I-18
I1
tp24
g0
(g9
g2
Ntp25
Rp26
(dp27
g13
I01
sg14
F-0.6332085904900675
sg15
g24
sbs(I-13
I3
tp28
g0
(g9
g2
Ntp29
Rp30
(dp31
g13
I01
sg14
F0.4768710117471726
sg15
g28
sbs(I-17
I4
tp32
g0
(g9
g2
Ntp33
Rp34
(dp35
g13
I01
sg14
F-1.4828922264585995
sg15
g32
sbs(I-12
I4
tp36
g0
(g9
g2
Ntp37
Rp38
(dp39
g13
I01
sg14
F1.9219116912436702
sg15
g36
sbs(I-2
I0
tp40
g0
(g9
g2
Ntp41
Rp42
(dp43
g13
I01
sg14
F-0.6647668974400742
sg15
g40
sbs(I-10
I3
tp44
g0
(g9
g2
Ntp45
Rp46
(dp47
g13
I01
sg14
F-0.1349715322630639
sg15
g44
sbs(I-5
I1
tp48
g0
(g9
g2
Ntp49
Rp50
(dp51
g13
I01
sg14
F0.39742291194340834
sg15
g48
sbs(I-16
I0
tp52
g0
(g9
g2
Ntp53
Rp54
(dp55
g13
I01
sg14
F0.028747978166369287
sg15
g52
sbs(I-18
I2
tp56
g0
(g9
g2
Ntp57
Rp58
(dp59
g13
I01
sg14
F-0.009178324440153318
sg15
g56
sbs(I-6
I1
tp60
g0
(g9
g2
Ntp61
Rp62
(dp63
g13
I01
sg14
F1.0659687309434092
sg15
g60
sbs(I-3
I1
tp64
g0
(g9
g2
Ntp65
Rp66
(dp67
g13
I01
sg14
F-1.6296324694415636
sg15
g64
sbs(I-19
I0
tp68
g0
(g9
g2
Ntp69
Rp70
(dp71
g13
I01
sg14
F-0.12499318767032097
sg15
g68
sbs(I-14
I0
tp72
g0
(g9
g2
Ntp73
Rp74
(dp75
g13
I01
sg14
F1.0026233800574955
sg15
g72
sbs(I-12
I3
tp76
g0
(g9
g2
Ntp77
Rp78
(dp79
g13
I01
sg14
F0.7495182326497031
sg15
g76
sbs(I-11
I2
tp80
g0
(g9
g2
Ntp81
Rp82
(dp83
g13
I01
sg14
F1.2588795074437293
sg15
g80
sbs(I-6
I2
tp84
g0
(g9
g2
Ntp85
Rp86
(dp87
g13
I01
sg14
F-0.010349165353645974
sg15
g84
sbs(I-2
I3
tp88
g0
(g9
g2
Ntp89
Rp90
(dp91
g13
I01
sg14
F-0.8372631506828889
sg15
g88
sbs(I-9
I3
tp92
g0
(g9
g2
Ntp93
Rp94
(dp95
g13
I00
sg14
F0.23061356196962624
sg15
g92
sbs(I-4
I1
tp96
g0
(g9
g2
Ntp97
Rp98
(dp99
g13
I01
sg14
F0.4912289843989358
sg15
g96
sbs(I-2
I4
tp100
g0
(g9
g2
Ntp101
Rp102
(dp103
g13
I01
sg14
F-1.509092444839116
sg15
g100
sbs(I-3
I4
tp104
g0
(g9
g2
Ntp105
Rp106
(dp107
g13
I01
sg14
F2.076221735724073
sg15
g104
sbs(I-20
I2
tp108
g0
(g9
g2
Ntp109
Rp110
(dp111
g13
I01
sg14
F-0.6589583843516404
sg15
g108
sbs(I-19
I3
tp112
g0
(g9
g2
Ntp113
Rp114
(dp115
g13
I01
sg14
F-0.36161411780864666
sg15
g112
sbs(I-17
I0
tp116
g0
(g9
g2
Ntp117
Rp118
(dp119
g13
I01
sg14
F-3.1855392864661436
sg15
g116
sbs(I-12
I0
tp120
g0
(g9
g2
Ntp121
Rp122
(dp123
g13
I01
sg14
F-1.2050806203735542
sg15
g120
sbs(I-8
I1
tp124
g0
(g9
g2
Ntp125
Rp126
(dp127
g13
I01
sg14
F-2.1450388341082007
sg15
g124
sbs(I-7
I0
tp128
g0
(g9
g2
Ntp129
Rp130
(dp131
g13
I01
sg14
F-1.3505667227932237
sg15
g128
sbs(I-1
I1
tp132
g0
(g9
g2
Ntp133
Rp134
(dp135
g13
I01
sg14
F-1.5537587079172632
sg15
g132
sbs(I-16
I4
tp136
g0
(g9
g2
Ntp137
Rp138
(dp139
g13
I01
sg14
F-1.1786860210361862
sg15
g136
sbs(I-15
I1
tp140
g0
(g9
g2
Ntp141
Rp142
(dp143
g13
I01
sg14
F-0.7717507385029226
sg15
g140
sbs(I-13
I2
tp144
g0
(g9
g2
Ntp145
Rp146
(dp147
g13
I01
sg14
F-1.3986875430889079
sg15
g144
sbs(I-8
I2
tp148
g0
(g9
g2
Ntp149
Rp150
(dp151
g13
I01
sg14
F0.5436716783102018
sg15
g148
sbs(I-7
I3
tp152
g0
(g9
g2
Ntp153
Rp154
(dp155
g13
I01
sg14
F0.15219738922328246
sg15
g152
sbs(I-10
I0
tp156
g0
(g9
g2
Ntp157
Rp158
(dp159
g13
I01
sg14
F-0.2539383159955909
sg15
g156
sbs(I-5
I0
tp160
g0
(g9
g2
Ntp161
Rp162
(dp163
g13
I01
sg14
F0.11649929349914628
sg15
g160
sbs(I-2
I2
tp164
g0
(g9
g2
Ntp165
Rp166
(dp167
g13
I01
sg14
F0.04449844043673373
sg15
g164
sbs(I-1
I2
tp168
g0
(g9
g2
Ntp169
Rp170
(dp171
g13
I01
sg14
F1.30872335545447
sg15
g168
sbs(I-16
I1
tp172
g0
(g9
g2
Ntp173
Rp174
(dp175
g13
I01
sg14
F-1.663826737160148
sg15
g172
sbs(I-20
I4
tp176
g0
(g9
g2
Ntp177
Rp178
(dp179
g13
I01
sg14
F1.4539268913255576
sg15
g176
sbs(I-1
I4
tp180
g0
(g9
g2
Ntp181
Rp182
(dp183
g13
I01
sg14
F-1.712555003098829
sg15
g180
sbs(I-18
I3
tp184
g0
(g9
g2
Ntp185
Rp186
(dp187
g13
I01
sg14
F0.31984442926091816
sg15
g184
sbs(I-13
I1
tp188
g0
(g9
g2
Ntp189
Rp190
(dp191
g13
I01
sg14
F0.8897331934203372
sg15
g188
sbs(I-3
I0
tp192
g0
(g9
g2
Ntp193
Rp194
(dp195
g13
I01
sg14
F0.5221210112381356
sg15
g192
sbs(I-14
I1
tp196
g0
(g9
g2
Ntp197
Rp198
(dp199
g13
I01
sg14
F-0.721572243728848
sg15
g196
sbs(I-7
I4
tp200
g0
(g9
g2
Ntp201
Rp202
(dp203
g13
I01
sg14
F-1.0147934549072175
sg15
g200
sbs(I-11
I1
tp204
g0
(g9
g2
Ntp205
Rp206
(dp207
g13
I01
sg14
F-0.43303713642232217
sg15
g204
sbs(I-6
I3
tp208
g0
(g9
g2
Ntp209
Rp210
(dp211
g13
I01
sg14
F-1.1008760387186023
sg15
g208
sbs(I-9
I2
tp212
g0
(g9
g2
Ntp213
Rp214
(dp215
g13
I01
sg14
F0.20504401439602477
sg15
g212
sbs(I-3
I3
tp216
g0
(g9
g2
Ntp217
Rp218
(dp219
g13
I01
sg14
F2.1637458427500116
sg15
g216
sbs(I-20
I3
tp220
g0
(g9
g2
Ntp221
Rp222
(dp223
g13
I01
sg14
F1.4207507719772348
sg15
g220
sbs(I-19
I2
tp224
g0
(g9
g2
Ntp225
Rp226
(dp227
g13
I01
sg14
F0.5881290374801592
sg15
g224
sbs(I-14
I2
tp228
g0
(g9
g2
Ntp229
Rp230
(dp231
g13
I01
sg14
F-0.07808825331371883
sg15
g228
sbs(I-17
I3
tp232
g0
(g9
g2
Ntp233
Rp234
(dp235
g13
I01
sg14
F1.8997295935017797
sg15
g232
sbs(I-12
I1
tp236
g0
(g9
g2
Ntp237
Rp238
(dp239
g13
I01
sg14
F1.1372891447386269
sg15
g236
sbs(I-10
I4
tp240
g0
(g9
g2
Ntp241
Rp242
(dp243
g13
I01
sg14
F-0.8747670879542948
sg15
g240
sbs(I-11
I4
tp244
g0
(g9
g2
Ntp245
Rp246
(dp247
g13
I01
sg14
F-0.18778445949115655
sg15
g244
sbs(I-5
I4
tp248
g0
(g9
g2
Ntp249
Rp250
(dp251
g13
I01
sg14
F-1.4248909558895404
sg15
g248
sbs(I-6
I4
tp252
g0
(g9
g2
Ntp253
Rp254
(dp255
g13
I01
sg14
F-0.48131743256586085
sg15
g252
sbs(I-9
I1
tp256
g0
(g9
g2
Ntp257
Rp258
(dp259
g13
I01
sg14
F-0.26670380030288815
sg15
g256
sbs(I-20
I0
tp260
g0
(g9
g2
Ntp261
Rp262
(dp263
g13
I01
sg14
F0.33178168947773135
sg15
g260
sbs(I-15
I0
tp264
g0
(g9
g2
Ntp265
Rp266
(dp267
g13
I01
sg14
F1.7244303302516633
sg15
g264
sbs(I-8
I3
tp268
g0
(g9
g2
Ntp269
Rp270
(dp271
g13
I01
sg14
F0.9251059492088404
sg15
g268
sbs(I-7
I2
tp272
g0
(g9
g2
Ntp273
Rp274
(dp275
g13
I01
sg14
F0.9134194328931502
sg15
g272
sbs(I-10
I1
tp276
g0
(g9
g2
Ntp277
Rp278
(dp279
g13
I01
sg14
F0.7224562825928958
sg15
g276
sbs(I-5
I3
tp280
g0
(g9
g2
Ntp281
Rp282
(dp283
g13
I01
sg14
F0.17245950151639688
sg15
g280
sbs(I-9
I4
tp284
g0
(g9
g2
Ntp285
Rp286
(dp287
g13
I01
sg14
F1.789230876538809
sg15
g284
sbs(I-4
I4
tp288
g0
(g9
g2
Ntp289
Rp290
(dp291
g13
I01
sg14
F-0.44977191051512866
sg15
g288
sbs(I-1
I3
tp292
g0
(g9
g2
Ntp293
Rp294
(dp295
g13
I01
sg14
F0.02330841195551528
sg15
g292
sbs(I-16
I2
tp296
g0
(g9
g2
Ntp297
Rp298
(dp299
g13
I01
sg14
F0.8392538496602253
sg15
g296
sbs(I-15
I3
tp300
g0
(g9
g2
Ntp301
Rp302
(dp303
g13
I01
sg14
F0.14783523934962067
sg15
g300
sbs(I-18
I0
tp304
g0
(g9
g2
Ntp305
Rp306
(dp307
g13
I01
sg14
F0.36362598456808254
sg15
g304
sbs(I-13
I0
tp308
g0
(g9
g2
Ntp309
Rp310
(dp311
g13
I01
sg14
F0.8460866873981615
sg15
g308
sbs(I-8
I0
tp312
g0
(g9
g2
Ntp313
Rp314
(dp315
g13
I01
sg14
F-0.6105336011765202
sg15
g312
sbs(I-10
I2
tp316
g0
(g9
g2
Ntp317
Rp318
(dp319
g13
I01
sg14
F0.3628309234042024
sg15
g316
sbs(I-8
I4
tp320
g0
(g9
g2
Ntp321
Rp322
(dp323
g13
I01
sg14
F0.08651968737742707
sg15
g320
sbs(I-11
I0
tp324
g0
(g9
g2
Ntp325
Rp326
(dp327
g13
I01
sg14
F-0.33829493461367466
sg15
g324
sbs(I-6
I0
tp328
g0
(g9
g2
Ntp329
Rp330
(dp331
g13
I01
sg14
F-0.7695651791932755
sg15
g328
sbs(I-4
I3
tp332
g0
(g9
g2
Ntp333
Rp334
(dp335
g13
I01
sg14
F-0.09556715039970543
sg15
g332
sbs(I-3
I2
tp336
g0
(g9
g2
Ntp337
Rp338
(dp339
g13
I01
sg14
F0.6043112675506698
sg15
g336
sbs(I-15
I4
tp340
g0
(g9
g2
Ntp341
Rp342
(dp343
g13
I01
sg14
F-1.3795081554311446
sg15
g340
sbs(I-19
I1
tp344
g0
(g9
g2
Ntp345
Rp346
(dp347
g13
I01
sg14
F-1.5040952631380828
sg15
g344
sbs(I-14
I3
tp348
g0
(g9
g2
Ntp349
Rp350
(dp351
g13
I01
sg14
F0.34244647475309353
sg15
g348
sbs(I-17
I2
tp352
g0
(g9
g2
Ntp353
Rp354
(dp355
g13
I01
sg14
F0.5888535730901312
sg15
g352
sbs(I-12
I2
tp356
g0
(g9
g2
Ntp357
Rp358
(dp359
g13
I01
sg14
F0.31819617689947627
sg15
g356
sbs(I-2
I1
tp360
g0
(g9
g2
Ntp361
Rp362
(dp363
g13
I01
sg14
F1.4130239619091793
sg15
g360
sbs(I-11
I3
tp364
g0
(g9
g2
Ntp365
Rp366
(dp367
g13
I01
sg14
F-0.8293425375242601
sg15
g364
sbs(I-9
I0
tp368
g0
(g9
g2
Ntp369
Rp370
(dp371
g13
I01
sg14
F-1.3018342026420777
sg15
g368
sbs(I-4
I0
tp372
g0
(g9
g2
Ntp373
Rp374
(dp375
g13
I01
sg14
F-1.1877837902432895
sg15
g372
sbs(I-20
I1
tp376
g0
(g9
g2
Ntp377
Rp378
(dp379
g13
I01
sg14
F-0.1980773828477023
sg15
g376
sbs(I-18
I4
tp380
g0
(g9
g2
Ntp381
Rp382
(dp383
g13
I01
sg14
F1.2579383463444853
sg15
g380
sbs(I-19
I4
tp384
g0
(g9
g2
Ntp385
Rp386
(dp387
g13
I01
sg14
F-0.18567324115599465
sg15
g384
sbs(I-13
I4
tp388
g0
(g9
g2
Ntp389
Rp390
(dp391
g13
I01
sg14
F1.5455255844039313
sg15
g388
sbs(I-14
I4
tp392
g0
(g9
g2
Ntp393
Rp394
(dp395
g13
I01
sg14
F-0.07687001967723117
sg15
g392
sbs(I-17
I1
tp396
g0
(g9
g2
Ntp397
Rp398
(dp399
g13
I01
sg14
F1.7802728725376156
sg15
g396
sbs(I-7
I1
tp400
g0
(g9
g2
Ntp401
Rp402
(dp403
g13
I01
sg14
F0.0012569768731576225
sg15
g400
sbs(I-5
I2
tp404
g0
(g9
g2
Ntp405
Rp406
(dp407
g13
I01
sg14
F0.12247846756997413
sg15
g404
sbssS'nodes'
p408
(dp409
I0
g0
(cneat.genes
DefaultNodeGene
p410
g2
Ntp411
Rp412
(dp413
S'activation'
p414
S'tanh'
p415
sS'bias'
p416
F0.14395487886170688
sS'response'
p417
F1.0
sg15
I0
sS'aggregation'
p418
S'sum'
p419
sbsI1
g0
(g410
g2
Ntp420
Rp421
(dp422
g414
g415
sg416
F-1.1561869627817019
sg417
F1.0
sg15
I1
sg418
g419
sbsI2
g0
(g410
g2
Ntp423
Rp424
(dp425
g414
g415
sg416
F-0.2670538831281827
sg417
F1.0
sg15
I2
sg418
g419
sbsI3
g0
(g410
g2
Ntp426
Rp427
(dp428
g414
g415
sg416
F0.5600421938520543
sg417
F1.0
sg15
I3
sg418
g419
sbsI4
g0
(g410
g2
Ntp429
Rp430
(dp431
g414
g415
sg416
F-0.03273013946000495
sg417
F1.0
sg15
I4
sg418
g419
sbssg15
I400
sS'fitness'
p432
F88.0
sb.