ccopy_reg
_reconstructor
p0
(cneat.genome
DefaultGenome
p1
c__builtin__
object
p2
Ntp3
Rp4
(dp5
S'connections'
p6
(dp7
(I59
I0
tp8
g0
(cneat.genes
DefaultConnectionGene
p9
g2
Ntp10
Rp11
(dp12
S'enabled'
p13
I01
sS'weight'
p14
F-1.0
sS'key'
p15
g8
sbs(I-6
I56
tp16
g0
(g9
g2
Ntp17
Rp18
(dp19
g13
I01
sg14
F-0.05607289680484939
sg15
g16
sbs(I64
I0
tp20
g0
(g9
g2
Ntp21
Rp22
(dp23
g13
I01
sg14
F-1.0
sg15
g20
sbs(I-10
I56
tp24
g0
(g9
g2
Ntp25
Rp26
(dp27
g13
I01
sg14
F-0.4589664873416494
sg15
g24
sbs(I-19
I56
tp28
g0
(g9
g2
Ntp29
Rp30
(dp31
g13
I01
sg14
F-0.42992387258051046
sg15
g28
sbs(I-6
I55
tp32
g0
(g9
g2
Ntp33
Rp34
(dp35
g13
I01
sg14
F0.43693311181807326
sg15
g32
sbs(I-15
I61
tp36
g0
(g9
g2
Ntp37
Rp38
(dp39
g13
I01
sg14
F1.0
sg15
g36
sbs(I-15
I64
tp40
g0
(g9
g2
Ntp41
Rp42
(dp43
g13
I01
sg14
F0.23860186610941725
sg15
g40
sbs(I-9
I61
tp44
g0
(g9
g2
Ntp45
Rp46
(dp47
g13
I01
sg14
F0.5188068903674489
sg15
g44
sbs(I-14
I58
tp48
g0
(g9
g2
Ntp49
Rp50
(dp51
g13
I01
sg14
F1.0
sg15
g48
sbs(I-3
I55
tp52
g0
(g9
g2
Ntp53
Rp54
(dp55
g13
I01
sg14
F-0.3889705136154445
sg15
g52
sbs(I-2
I57
tp56
g0
(g9
g2
Ntp57
Rp58
(dp59
g13
I01
sg14
F0.5077902131574428
sg15
g56
sbs(I-8
I63
tp60
g0
(g9
g2
Ntp61
Rp62
(dp63
g13
I01
sg14
F0.7115951314091211
sg15
g60
sbs(I-1
I59
tp64
g0
(g9
g2
Ntp65
Rp66
(dp67
g13
I01
sg14
F0.4729563151594448
sg15
g64
sbs(I-11
I57
tp68
g0
(g9
g2
Ntp69
Rp70
(dp71
g13
I01
sg14
F0.6013611957487579
sg15
g68
sbs(I-12
I55
tp72
g0
(g9
g2
Ntp73
Rp74
(dp75
g13
I01
sg14
F0.33519365284047253
sg15
g72
sbs(I-7
I62
tp76
g0
(g9
g2
Ntp77
Rp78
(dp79
g13
I01
sg14
F-0.796927289187732
sg15
g76
sbs(I-17
I55
tp80
g0
(g9
g2
Ntp81
Rp82
(dp83
g13
I01
sg14
F0.15161204943079534
sg15
g80
sbs(I-20
I58
tp84
g0
(g9
g2
Ntp85
Rp86
(dp87
g13
I01
sg14
F1.0
sg15
g84
sbs(I-6
I61
tp88
g0
(g9
g2
Ntp89
Rp90
(dp91
g13
I01
sg14
F-0.1752714800783679
sg15
g88
sbs(I-16
I61
tp92
g0
(g9
g2
Ntp93
Rp94
(dp95
g13
I01
sg14
F1.0
sg15
g92
sbs(I-9
I55
tp96
g0
(g9
g2
Ntp97
Rp98
(dp99
g13
I01
sg14
F-1.0
sg15
g96
sbs(I61
I0
tp100
g0
(g9
g2
Ntp101
Rp102
(dp103
g13
I01
sg14
F-0.24843510831515309
sg15
g100
sbs(I-19
I59
tp104
g0
(g9
g2
Ntp105
Rp106
(dp107
g13
I01
sg14
F-1.0
sg15
g104
sbs(I-9
I59
tp108
g0
(g9
g2
Ntp109
Rp110
(dp111
g13
I01
sg14
F-1.0
sg15
g108
sbs(I-15
I56
tp112
g0
(g9
g2
Ntp113
Rp114
(dp115
g13
I01
sg14
F0.013902686776677529
sg15
g112
sbs(I-12
I61
tp116
g0
(g9
g2
Ntp117
Rp118
(dp119
g13
I01
sg14
F-1.0
sg15
g116
sbs(I-18
I64
tp120
g0
(g9
g2
Ntp121
Rp122
(dp123
g13
I01
sg14
F-0.47996911525795205
sg15
g120
sbs(I-4
I59
tp124
g0
(g9
g2
Ntp125
Rp126
(dp127
g13
I01
sg14
F0.17773052602940967
sg15
g124
sbs(I-13
I64
tp128
g0
(g9
g2
Ntp129
Rp130
(dp131
g13
I01
sg14
F-1.0
sg15
g128
sbs(I-3
I58
tp132
g0
(g9
g2
Ntp133
Rp134
(dp135
g13
I01
sg14
F-0.48663443266735656
sg15
g132
sbs(I-13
I62
tp136
g0
(g9
g2
Ntp137
Rp138
(dp139
g13
I01
sg14
F0.6749584193983021
sg15
g136
sbs(I-18
I60
tp140
g0
(g9
g2
Ntp141
Rp142
(dp143
g13
I01
sg14
F1.0
sg15
g140
sbs(I62
I2
tp144
g0
(g9
g2
Ntp145
Rp146
(dp147
g13
I01
sg14
F-1.0
sg15
g144
sbs(I-12
I57
tp148
g0
(g9
g2
Ntp149
Rp150
(dp151
g13
I01
sg14
F0.9005599172016506
sg15
g148
sbs(I57
I4
tp152
g0
(g9
g2
Ntp153
Rp154
(dp155
g13
I01
sg14
F0.7215186717274957
sg15
g152
sbs(I-8
I60
tp156
g0
(g9
g2
Ntp157
Rp158
(dp159
g13
I01
sg14
F0.30572540756469924
sg15
g156
sbs(I-11
I60
tp160
g0
(g9
g2
Ntp161
Rp162
(dp163
g13
I01
sg14
F-1.0
sg15
g160
sbs(I58
I3
tp164
g0
(g9
g2
Ntp165
Rp166
(dp167
g13
I01
sg14
F0.8110466755236347
sg15
g164
sbs(I-7
I57
tp168
g0
(g9
g2
Ntp169
Rp170
(dp171
g13
I01
sg14
F1.0
sg15
g168
sbs(I-16
I55
tp172
g0
(g9
g2
Ntp173
Rp174
(dp175
g13
I01
sg14
F-0.7907609503853318
sg15
g172
sbs(I-8
I58
tp176
g0
(g9
g2
Ntp177
Rp178
(dp179
g13
I01
sg14
F0.19342746346936732
sg15
g176
sbs(I60
I2
tp180
g0
(g9
g2
Ntp181
Rp182
(dp183
g13
I01
sg14
F-0.5535556578163552
sg15
g180
sbs(I-20
I63
tp184
g0
(g9
g2
Ntp185
Rp186
(dp187
g13
I01
sg14
F-0.4419550012511106
sg15
g184
sbs(I-6
I62
tp188
g0
(g9
g2
Ntp189
Rp190
(dp191
g13
I01
sg14
F-1.0
sg15
g188
sbs(I-16
I58
tp192
g0
(g9
g2
Ntp193
Rp194
(dp195
g13
I01
sg14
F-0.9825929249017175
sg15
g192
sbs(I-9
I58
tp196
g0
(g9
g2
Ntp197
Rp198
(dp199
g13
I01
sg14
F0.29930158053979306
sg15
g196
sbs(I61
I3
tp200
g0
(g9
g2
Ntp201
Rp202
(dp203
g13
I01
sg14
F-0.8799946719311463
sg15
g200
sbs(I-19
I62
tp204
g0
(g9
g2
Ntp205
Rp206
(dp207
g13
I01
sg14
F-1.0
sg15
g204
sbs(I-5
I63
tp208
g0
(g9
g2
Ntp209
Rp210
(dp211
g13
I01
sg14
F1.0
sg15
g208
sbs(I-15
I59
tp212
g0
(g9
g2
Ntp213
Rp214
(dp215
g13
I01
sg14
F-0.48874701408877175
sg15
g212
sbs(I63
I0
tp216
g0
(g9
g2
Ntp217
Rp218
(dp219
g13
I01
sg14
F-0.3911124020914154
sg15
g216
sbs(I-4
I56
tp220
g0
(g9
g2
Ntp221
Rp222
(dp223
g13
I01
sg14
F-1.0
sg15
g220
sbs(I-8
I64
tp224
g0
(g9
g2
Ntp225
Rp226
(dp227
g13
I01
sg14
F-1.0
sg15
g224
sbs(I-3
I61
tp228
g0
(g9
g2
Ntp229
Rp230
(dp231
g13
I01
sg14
F-0.2002963392227129
sg15
g228
sbs(I-11
I64
tp232
g0
(g9
g2
Ntp233
Rp234
(dp235
g13
I01
sg14
F1.0
sg15
g232
sbs(I-13
I61
tp236
g0
(g9
g2
Ntp237
Rp238
(dp239
g13
I01
sg14
F-0.2959552114509907
sg15
g236
sbs(I-18
I57
tp240
g0
(g9
g2
Ntp241
Rp242
(dp243
g13
I01
sg14
F-0.3578243462287711
sg15
g240
sbs(I-12
I62
tp244
g0
(g9
g2
Ntp245
Rp246
(dp247
g13
I01
sg14
F1.0
sg15
g244
sbs(I-2
I56
tp248
g0
(g9
g2
Ntp249
Rp250
(dp251
g13
I01
sg14
F0.46653854132792305
sg15
g248
sbs(I-17
I60
tp252
g0
(g9
g2
Ntp253
Rp254
(dp255
g13
I01
sg14
F-0.9194291700034061
sg15
g252
sbs(I-11
I63
tp256
g0
(g9
g2
Ntp257
Rp258
(dp259
g13
I01
sg14
F1.0
sg15
g256
sbs(I59
I4
tp260
g0
(g9
g2
Ntp261
Rp262
(dp263
g13
I01
sg14
F1.0
sg15
g260
sbs(I58
I4
tp264
g0
(g9
g2
Ntp265
Rp266
(dp267
g13
I01
sg14
F-0.41886469560840195
sg15
g264
sbs(I64
I4
tp268
g0
(g9
g2
Ntp269
Rp270
(dp271
g13
I01
sg14
F-0.9298563623108274
sg15
g268
sbs(I-10
I60
tp272
g0
(g9
g2
Ntp273
Rp274
(dp275
g13
I01
sg14
F0.7397185536238664
sg15
g272
sbs(I-20
I60
tp276
g0
(g9
g2
Ntp277
Rp278
(dp279
g13
I01
sg14
F-1.0
sg15
g276
sbs(I-9
I57
tp280
g0
(g9
g2
Ntp281
Rp282
(dp283
g13
I01
sg14
F-0.12736852208847466
sg15
g280
sbs(I-5
I58
tp284
g0
(g9
g2
Ntp285
Rp286
(dp287
g13
I01
sg14
F1.0
sg15
g284
sbs(I-20
I64
tp288
g0
(g9
g2
Ntp289
Rp290
(dp291
g13
I01
sg14
F-0.9934304937943343
sg15
g288
sbs(I-4
I61
tp292
g0
(g9
g2
Ntp293
Rp294
(dp295
g13
I01
sg14
F-1.0
sg15
g292
sbs(I-4
I64
tp296
g0
(g9
g2
Ntp297
Rp298
(dp299
g13
I01
sg14
F-0.6930196109168437
sg15
g296
sbs(I-13
I56
tp300
g0
(g9
g2
Ntp301
Rp302
(dp303
g13
I01
sg14
F-1.0
sg15
g300
sbs(I56
I3
tp304
g0
(g9
g2
Ntp305
Rp306
(dp307
g13
I01
sg14
F0.26206858115328946
sg15
g304
sbs(I-18
I58
tp308
g0
(g9
g2
Ntp309
Rp310
(dp311
g13
I01
sg14
F-0.5478120538409958
sg15
g308
sbs(I-1
I63
tp312
g0
(g9
g2
Ntp313
Rp314
(dp315
g13
I01
sg14
F-0.7508147159605519
sg15
g312
sbs(I57
I2
tp316
g0
(g9
g2
Ntp317
Rp318
(dp319
g13
I01
sg14
F0.2641738948111079
sg15
g316
sbs(I59
I3
tp320
g0
(g9
g2
Ntp321
Rp322
(dp323
g13
I01
sg14
F-0.07688392006633504
sg15
g320
sbs(I-6
I57
tp324
g0
(g9
g2
Ntp325
Rp326
(dp327
g13
I01
sg14
F-0.5794358566111009
sg15
g324
sbs(I-7
I55
tp328
g0
(g9
g2
Ntp329
Rp330
(dp331
g13
I01
sg14
F-0.47520041892684783
sg15
g328
sbs(I64
I1
tp332
g0
(g9
g2
Ntp333
Rp334
(dp335
g13
I01
sg14
F0.030778400937888972
sg15
g332
sbs(I-8
I57
tp336
g0
(g9
g2
Ntp337
Rp338
(dp339
g13
I01
sg14
F0.49437442784596886
sg15
g336
sbs(I-10
I57
tp340
g0
(g9
g2
Ntp341
Rp342
(dp343
g13
I01
sg14
F-1.0
sg15
g340
sbs(I-19
I55
tp344
g0
(g9
g2
Ntp345
Rp346
(dp347
g13
I01
sg14
F0.26507139879039315
sg15
g344
sbs(I-15
I60
tp348
g0
(g9
g2
Ntp349
Rp350
(dp351
g13
I01
sg14
F0.08828001532252408
sg15
g348
sbs(I-9
I60
tp352
g0
(g9
g2
Ntp353
Rp354
(dp355
g13
I01
sg14
F-0.3026661253510637
sg15
g352
sbs(I-4
I55
tp356
g0
(g9
g2
Ntp357
Rp358
(dp359
g13
I01
sg14
F-0.8603218213709718
sg15
g356
sbs(I-5
I57
tp360
g0
(g9
g2
Ntp361
Rp362
(dp363
g13
I01
sg14
F0.15286081180091007
sg15
g360
sbs(I-14
I59
tp364
g0
(g9
g2
Ntp365
Rp366
(dp367
g13
I01
sg14
F-0.2423132643650489
sg15
g364
sbs(I-17
I58
tp368
g0
(g9
g2
Ntp369
Rp370
(dp371
g13
I01
sg14
F-0.04054205408741393
sg15
g368
sbs(I-13
I55
tp372
g0
(g9
g2
Ntp373
Rp374
(dp375
g13
I01
sg14
F0.4381722889871603
sg15
g372
sbs(I-1
I58
tp376
g0
(g9
g2
Ntp377
Rp378
(dp379
g13
I01
sg14
F0.5630905205708874
sg15
g376
sbs(I56
I0
tp380
g0
(g9
g2
Ntp381
Rp382
(dp383
g13
I01
sg14
F1.0
sg15
g380
sbs(I-18
I55
tp384
g0
(g9
g2
Ntp385
Rp386
(dp387
g13
I01
sg14
F1.0
sg15
g384
sbs(I-1
I56
tp388
g0
(g9
g2
Ntp389
Rp390
(dp391
g13
I01
sg14
F0.09259506373381254
sg15
g388
sbs(I-11
I56
tp392
g0
(g9
g2
Ntp393
Rp394
(dp395
g13
I01
sg14
F-0.2603261583230025
sg15
g392
sbs(I-7
I61
tp396
g0
(g9
g2
Ntp397
Rp398
(dp399
g13
I01
sg14
F-1.0
sg15
g396
sbs(I-10
I55
tp400
g0
(g9
g2
Ntp401
Rp402
(dp403
g13
I01
sg14
F0.05539063938032769
sg15
g400
sbs(I-20
I59
tp404
g0
(g9
g2
Ntp405
Rp406
(dp407
g13
I01
sg14
F0.24542476730828083
sg15
g404
sbs(I-6
I58
tp408
g0
(g9
g2
Ntp409
Rp410
(dp411
g13
I01
sg14
F0.13580921995329423
sg15
g408
sbs(I-16
I62
tp412
g0
(g9
g2
Ntp413
Rp414
(dp415
g13
I01
sg14
F0.034981508884390944
sg15
g412
sbs(I-10
I58
tp416
g0
(g9
g2
Ntp417
Rp418
(dp419
g13
I01
sg14
F1.0
sg15
g416
sbs(I-19
I58
tp420
g0
(g9
g2
Ntp421
Rp422
(dp423
g13
I01
sg14
F-0.5412148042928769
sg15
g420
sbs(I-15
I63
tp424
g0
(g9
g2
Ntp425
Rp426
(dp427
g13
I01
sg14
F0.052031726592576266
sg15
g424
sbs(I-14
I60
tp428
g0
(g9
g2
Ntp429
Rp430
(dp431
g13
I01
sg14
F0.17918614764428997
sg15
g428
sbs(I-3
I57
tp432
g0
(g9
g2
Ntp433
Rp434
(dp435
g13
I01
sg14
F-0.20715356971805676
sg15
g432
sbs(I-18
I61
tp436
g0
(g9
g2
Ntp437
Rp438
(dp439
g13
I01
sg14
F1.0
sg15
g436
sbs(I-12
I58
tp440
g0
(g9
g2
Ntp441
Rp442
(dp443
g13
I01
sg14
F0.564788918461052
sg15
g440
sbs(I-8
I61
tp444
g0
(g9
g2
Ntp445
Rp446
(dp447
g13
I01
sg14
F-0.264569950610679
sg15
g444
sbs(I-11
I59
tp448
g0
(g9
g2
Ntp449
Rp450
(dp451
g13
I01
sg14
F-0.8116422272215494
sg15
g448
sbs(I-1
I61
tp452
g0
(g9
g2
Ntp453
Rp454
(dp455
g13
I01
sg14
F-0.8477343184151984
sg15
g452
sbs(I-6
I64
tp456
g0
(g9
g2
Ntp457
Rp458
(dp459
g13
I01
sg14
F-1.0
sg15
g456
sbs(I-7
I56
tp460
g0
(g9
g2
Ntp461
Rp462
(dp463
g13
I01
sg14
F0.7701888097355665
sg15
g460
sbs(I60
I3
tp464
g0
(g9
g2
Ntp465
Rp466
(dp467
g13
I01
sg14
F-0.35892858741452727
sg15
g464
sbs(I-20
I56
tp468
g0
(g9
g2
Ntp469
Rp470
(dp471
g13
I01
sg14
F-0.9978945114058074
sg15
g468
sbs(I-6
I63
tp472
g0
(g9
g2
Ntp473
Rp474
(dp475
g13
I01
sg14
F-0.26155068361015366
sg15
g472
sbs(I-16
I59
tp476
g0
(g9
g2
Ntp477
Rp478
(dp479
g13
I01
sg14
F-0.5406836487119617
sg15
g476
sbs(I-8
I56
tp480
g0
(g9
g2
Ntp481
Rp482
(dp483
g13
I01
sg14
F-0.48338092655079734
sg15
g480
sbs(I61
I2
tp484
g0
(g9
g2
Ntp485
Rp486
(dp487
g13
I01
sg14
F0.4056624445640568
sg15
g484
sbs(I-19
I61
tp488
g0
(g9
g2
Ntp489
Rp490
(dp491
g13
I01
sg14
F0.9293775161917522
sg15
g488
sbs(I-5
I62
tp492
g0
(g9
g2
Ntp493
Rp494
(dp495
g13
I01
sg14
F-0.26389044635588627
sg15
g492
sbs(I-15
I58
tp496
g0
(g9
g2
Ntp497
Rp498
(dp499
g13
I01
sg14
F-1.0
sg15
g496
sbs(I63
I3
tp500
g0
(g9
g2
Ntp501
Rp502
(dp503
g13
I01
sg14
F0.4306500197510194
sg15
g500
sbs(I-4
I57
tp504
g0
(g9
g2
Ntp505
Rp506
(dp507
g13
I01
sg14
F-1.0
sg15
g504
sbs(I-3
I60
tp508
g0
(g9
g2
Ntp509
Rp510
(dp511
g13
I01
sg14
F0.7519872742283517
sg15
g508
sbs(I-13
I60
tp512
g0
(g9
g2
Ntp513
Rp514
(dp515
g13
I01
sg14
F-0.5761266783930602
sg15
g512
sbs(I-18
I62
tp516
g0
(g9
g2
Ntp517
Rp518
(dp519
g13
I01
sg14
F-0.6387300912379024
sg15
g516
sbs(I-12
I63
tp520
g0
(g9
g2
Ntp521
Rp522
(dp523
g13
I01
sg14
F0.3493764029966395
sg15
g520
sbs(I-17
I63
tp524
g0
(g9
g2
Ntp525
Rp526
(dp527
g13
I01
sg14
F0.6275289150235921
sg15
g524
sbs(I-11
I62
tp528
g0
(g9
g2
Ntp529
Rp530
(dp531
g13
I01
sg14
F-0.3442781998964881
sg15
g528
sbs(I-7
I59
tp532
g0
(g9
g2
Ntp533
Rp534
(dp535
g13
I01
sg14
F0.2540975708533598
sg15
g532
sbs(I55
I0
tp536
g0
(g9
g2
Ntp537
Rp538
(dp539
g13
I01
sg14
F0.8152489557490151
sg15
g536
sbs(I-10
I61
tp540
g0
(g9
g2
Ntp541
Rp542
(dp543
g13
I01
sg14
F-1.0
sg15
g540
sbs(I60
I0
tp544
g0
(g9
g2
Ntp545
Rp546
(dp547
g13
I01
sg14
F0.25841722135144984
sg15
g544
sbs(I-20
I61
tp548
g0
(g9
g2
Ntp549
Rp550
(dp551
g13
I01
sg14
F-1.0
sg15
g548
sbs(I-16
I56
tp552
g0
(g9
g2
Ntp553
Rp554
(dp555
g13
I01
sg14
F0.23905468593974633
sg15
g552
sbs(I-9
I56
tp556
g0
(g9
g2
Ntp557
Rp558
(dp559
g13
I01
sg14
F-1.0
sg15
g556
sbs(I-19
I64
tp560
g0
(g9
g2
Ntp561
Rp562
(dp563
g13
I01
sg14
F-0.5868456375945226
sg15
g560
sbs(I-5
I61
tp564
g0
(g9
g2
Ntp565
Rp566
(dp567
g13
I01
sg14
F-1.0
sg15
g564
sbs(I-14
I55
tp568
g0
(g9
g2
Ntp569
Rp570
(dp571
g13
I01
sg14
F1.0
sg15
g568
sbs(I-4
I62
tp572
g0
(g9
g2
Ntp573
Rp574
(dp575
g13
I01
sg14
F0.16893951248645236
sg15
g572
sbs(I-1
I60
tp576
g0
(g9
g2
Ntp577
Rp578
(dp579
g13
I01
sg14
F0.3090672871554025
sg15
g576
sbs(I-3
I63
tp580
g0
(g9
g2
Ntp581
Rp582
(dp583
g13
I01
sg14
F0.1253161188083387
sg15
g580
sbs(I-13
I59
tp584
g0
(g9
g2
Ntp585
Rp586
(dp587
g13
I01
sg14
F0.06431853793271414
sg15
g584
sbs(I56
I4
tp588
g0
(g9
g2
Ntp589
Rp590
(dp591
g13
I01
sg14
F-0.9105054509628993
sg15
g588
sbs(I-18
I59
tp592
g0
(g9
g2
Ntp593
Rp594
(dp595
g13
I01
sg14
F-0.2279584745593397
sg15
g592
sbs(I-2
I60
tp596
g0
(g9
g2
Ntp597
Rp598
(dp599
g13
I01
sg14
F1.0
sg15
g596
sbs(I-12
I60
tp600
g0
(g9
g2
Ntp601
Rp602
(dp603
g13
I01
sg14
F0.6479154794420382
sg15
g600
sbs(I57
I1
tp604
g0
(g9
g2
Ntp605
Rp606
(dp607
g13
I01
sg14
F-0.22414205174239016
sg15
g604
sbs(I-8
I55
tp608
g0
(g9
g2
Ntp609
Rp610
(dp611
g13
I01
sg14
F0.5107005687781304
sg15
g608
sbs(I-20
I55
tp612
g0
(g9
g2
Ntp613
Rp614
(dp615
g13
I01
sg14
F-0.6565209928517696
sg15
g612
sbs(I64
I2
tp616
g0
(g9
g2
Ntp617
Rp618
(dp619
g13
I01
sg14
F1.0
sg15
g616
sbs(I-10
I62
tp620
g0
(g9
g2
Ntp621
Rp622
(dp623
g13
I01
sg14
F0.6920954908501545
sg15
g620
sbs(I-5
I55
tp624
g0
(g9
g2
Ntp625
Rp626
(dp627
g13
I01
sg14
F1.0
sg15
g624
sbs(I-9
I63
tp628
g0
(g9
g2
Ntp629
Rp630
(dp631
g13
I01
sg14
F-1.0
sg15
g628
sbs(I-5
I56
tp632
g0
(g9
g2
Ntp633
Rp634
(dp635
g13
I01
sg14
F0.3042992624384409
sg15
g632
sbs(I-14
I56
tp636
g0
(g9
g2
Ntp637
Rp638
(dp639
g13
I01
sg14
F0.36391021874087875
sg15
g636
sbs(I-9
I62
tp640
g0
(g9
g2
Ntp641
Rp642
(dp643
g13
I01
sg14
F0.7999731307293587
sg15
g640
sbs(I-14
I63
tp644
g0
(g9
g2
Ntp645
Rp646
(dp647
g13
I00
sg14
F-0.6092690052792031
sg15
g644
sbs(I-7
I64
tp648
g0
(g9
g2
Ntp649
Rp650
(dp651
g13
I01
sg14
F-0.2833354455809465
sg15
g648
sbs(I56
I1
tp652
g0
(g9
g2
Ntp653
Rp654
(dp655
g13
I01
sg14
F1.0
sg15
g652
sbs(I-17
I56
tp656
g0
(g9
g2
Ntp657
Rp658
(dp659
g13
I01
sg14
F1.0
sg15
g656
sbs(I-1
I57
tp660
g0
(g9
g2
Ntp661
Rp662
(dp663
g13
I01
sg14
F-1.0
sg15
g660
sbs(I59
I2
tp664
g0
(g9
g2
Ntp665
Rp666
(dp667
g13
I01
sg14
F0.4102980652502164
sg15
g664
sbs(I-7
I60
tp668
g0
(g9
g2
Ntp669
Rp670
(dp671
g13
I01
sg14
F0.4075726489764058
sg15
g668
sbs(I59
I1
tp672
g0
(g9
g2
Ntp673
Rp674
(dp675
g13
I01
sg14
F0.9144953338731583
sg15
g672
sbs(I-6
I59
tp676
g0
(g9
g2
Ntp677
Rp678
(dp679
g13
I01
sg14
F0.5903075865844609
sg15
g676
sbs(I-14
I57
tp680
g0
(g9
g2
Ntp681
Rp682
(dp683
g13
I01
sg14
F-1.0
sg15
g680
sbs(I-16
I63
tp684
g0
(g9
g2
Ntp685
Rp686
(dp687
g13
I01
sg14
F-1.0
sg15
g684
sbs(I-10
I59
tp688
g0
(g9
g2
Ntp689
Rp690
(dp691
g13
I01
sg14
F1.0
sg15
g688
sbs(I-19
I57
tp692
g0
(g9
g2
Ntp693
Rp694
(dp695
g13
I01
sg14
F1.0
sg15
g692
sbs(I-15
I62
tp696
g0
(g9
g2
Ntp697
Rp698
(dp699
g13
I01
sg14
F-1.0
sg15
g696
sbs(I-14
I61
tp700
g0
(g9
g2
Ntp701
Rp702
(dp703
g13
I01
sg14
F-0.017484082873406387
sg15
g700
sbs(I-16
I64
tp704
g0
(g9
g2
Ntp705
Rp706
(dp707
g13
I01
sg14
F-1.0
sg15
g704
sbs(I-3
I56
tp708
g0
(g9
g2
Ntp709
Rp710
(dp711
g13
I01
sg14
F1.0
sg15
g708
sbs(I58
I0
tp712
g0
(g9
g2
Ntp713
Rp714
(dp715
g13
I01
sg14
F0.08887041435128089
sg15
g712
sbs(I-9
I64
tp716
g0
(g9
g2
Ntp717
Rp718
(dp719
g13
I01
sg14
F0.9468887882731019
sg15
g716
sbs(I-1
I55
tp720
g0
(g9
g2
Ntp721
Rp722
(dp723
g13
I01
sg14
F1.0
sg15
g720
sbs(I-19
I63
tp724
g0
(g9
g2
Ntp725
Rp726
(dp727
g13
I01
sg14
F-0.8375236710256804
sg15
g724
sbs(I-12
I59
tp728
g0
(g9
g2
Ntp729
Rp730
(dp731
g13
I01
sg14
F-1.0
sg15
g728
sbs(I-5
I64
tp732
g0
(g9
g2
Ntp733
Rp734
(dp735
g13
I01
sg14
F1.0
sg15
g732
sbs(I-17
I59
tp736
g0
(g9
g2
Ntp737
Rp738
(dp739
g13
I01
sg14
F-1.0
sg15
g736
sbs(I-1
I64
tp740
g0
(g9
g2
Ntp741
Rp742
(dp743
g13
I01
sg14
F1.0
sg15
g740
sbs(I-2
I58
tp744
g0
(g9
g2
Ntp745
Rp746
(dp747
g13
I01
sg14
F1.0
sg15
g744
sbs(I-11
I58
tp748
g0
(g9
g2
Ntp749
Rp750
(dp751
g13
I01
sg14
F1.0
sg15
g748
sbs(I-2
I63
tp752
g0
(g9
g2
Ntp753
Rp754
(dp755
g13
I01
sg14
F-0.9259269417763786
sg15
g752
sbs(I58
I1
tp756
g0
(g9
g2
Ntp757
Rp758
(dp759
g13
I01
sg14
F-0.36094357361287993
sg15
g756
sbs(I-7
I63
tp760
g0
(g9
g2
Ntp761
Rp762
(dp763
g13
I01
sg14
F-0.46163289311038924
sg15
g760
sbs(I-11
I55
tp764
g0
(g9
g2
Ntp765
Rp766
(dp767
g13
I01
sg14
F1.0
sg15
g764
sbs(I-20
I57
tp768
g0
(g9
g2
Ntp769
Rp770
(dp771
g13
I01
sg14
F0.22948833801094415
sg15
g768
sbs(I-6
I60
tp772
g0
(g9
g2
Ntp773
Rp774
(dp775
g13
I01
sg14
F-0.766326545782094
sg15
g772
sbs(I-16
I60
tp776
g0
(g9
g2
Ntp777
Rp778
(dp779
g13
I01
sg14
F0.30459016213267726
sg15
g776
sbs(I61
I1
tp780
g0
(g9
g2
Ntp781
Rp782
(dp783
g13
I01
sg14
F0.6084865491494986
sg15
g780
sbs(I-19
I60
tp784
g0
(g9
g2
Ntp785
Rp786
(dp787
g13
I01
sg14
F-0.9390417048471043
sg15
g784
sbs(I-15
I57
tp788
g0
(g9
g2
Ntp789
Rp790
(dp791
g13
I01
sg14
F0.4022772225515121
sg15
g788
sbs(I63
I2
tp792
g0
(g9
g2
Ntp793
Rp794
(dp795
g13
I01
sg14
F0.9716700788379897
sg15
g792
sbs(I-4
I58
tp796
g0
(g9
g2
Ntp797
Rp798
(dp799
g13
I01
sg14
F1.0
sg15
g796
sbs(I-14
I62
tp800
g0
(g9
g2
Ntp801
Rp802
(dp803
g13
I01
sg14
F-0.42285805448567315
sg15
g800
sbs(I62
I0
tp804
g0
(g9
g2
Ntp805
Rp806
(dp807
g13
I01
sg14
F1.0
sg15
g804
sbs(I-13
I63
tp808
g0
(g9
g2
Ntp809
Rp810
(dp811
g13
I01
sg14
F-1.0
sg15
g808
sbs(I60
I4
tp812
g0
(g9
g2
Ntp813
Rp814
(dp815
g13
I01
sg14
F-0.9659038363970162
sg15
g812
sbs(I-18
I63
tp816
g0
(g9
g2
Ntp817
Rp818
(dp819
g13
I01
sg14
F0.17492666350396588
sg15
g816
sbs(I-2
I59
tp820
g0
(g9
g2
Ntp821
Rp822
(dp823
g13
I01
sg14
F0.2843499942464452
sg15
g820
sbs(I-17
I62
tp824
g0
(g9
g2
Ntp825
Rp826
(dp827
g13
I01
sg14
F-0.6047109441706091
sg15
g824
sbs(I-17
I57
tp828
g0
(g9
g2
Ntp829
Rp830
(dp831
g13
I01
sg14
F1.0
sg15
g828
sbs(I-2
I55
tp832
g0
(g9
g2
Ntp833
Rp834
(dp835
g13
I01
sg14
F-0.4210300457863894
sg15
g832
sbs(I-11
I61
tp836
g0
(g9
g2
Ntp837
Rp838
(dp839
g13
I01
sg14
F-0.9334762256500249
sg15
g836
sbs(I-3
I64
tp840
g0
(g9
g2
Ntp841
Rp842
(dp843
g13
I01
sg14
F1.0
sg15
g840
sbs(I58
I2
tp844
g0
(g9
g2
Ntp845
Rp846
(dp847
g13
I01
sg14
F0.12740203658089178
sg15
g844
sbs(I-7
I58
tp848
g0
(g9
g2
Ntp849
Rp850
(dp851
g13
I01
sg14
F0.9978014449164143
sg15
g848
sbs(I55
I3
tp852
g0
(g9
g2
Ntp853
Rp854
(dp855
g13
I01
sg14
F-0.8016675560876753
sg15
g852
sbs(I60
I1
tp856
g0
(g9
g2
Ntp857
Rp858
(dp859
g13
I01
sg14
F-1.0
sg15
g856
sbs(I-20
I62
tp860
g0
(g9
g2
Ntp861
Rp862
(dp863
g13
I01
sg14
F-1.0
sg15
g860
sbs(I-15
I55
tp864
g0
(g9
g2
Ntp865
Rp866
(dp867
g13
I01
sg14
F0.3580782715161045
sg15
g864
sbs(I-16
I57
tp868
g0
(g9
g2
Ntp869
Rp870
(dp871
g13
I01
sg14
F-0.6459775517328924
sg15
g868
sbs(I62
I4
tp872
g0
(g9
g2
Ntp873
Rp874
(dp875
g13
I01
sg14
F1.0
sg15
g872
sbs(I61
I4
tp876
g0
(g9
g2
Ntp877
Rp878
(dp879
g13
I01
sg14
F0.972257981457934
sg15
g876
sbs(I-3
I59
tp880
g0
(g9
g2
Ntp881
Rp882
(dp883
g13
I01
sg14
F0.2758371044486027
sg15
g880
sbs(I-5
I60
tp884
g0
(g9
g2
Ntp885
Rp886
(dp887
g13
I01
sg14
F-0.5261494370412275
sg15
g884
sbs(I63
I1
tp888
g0
(g9
g2
Ntp889
Rp890
(dp891
g13
I01
sg14
F0.3980458266847974
sg15
g888
sbs(I55
I4
tp892
g0
(g9
g2
Ntp893
Rp894
(dp895
g13
I01
sg14
F-0.24671636699351202
sg15
g892
sbs(I-4
I63
tp896
g0
(g9
g2
Ntp897
Rp898
(dp899
g13
I01
sg14
F-0.2753078827367874
sg15
g896
sbs(I-14
I64
tp900
g0
(g9
g2
Ntp901
Rp902
(dp903
g13
I01
sg14
F-0.1410400851799255
sg15
g900
sbs(I-3
I62
tp904
g0
(g9
g2
Ntp905
Rp906
(dp907
g13
I01
sg14
F-1.0
sg15
g904
sbs(I-13
I58
tp908
g0
(g9
g2
Ntp909
Rp910
(dp911
g13
I01
sg14
F0.6326751602060234
sg15
g908
sbs(I-1
I62
tp912
g0
(g9
g2
Ntp913
Rp914
(dp915
g13
I01
sg14
F-0.8847066056768041
sg15
g912
sbs(I-17
I64
tp916
g0
(g9
g2
Ntp917
Rp918
(dp919
g13
I01
sg14
F-0.13650279294980466
sg15
g916
sbs(I-18
I56
tp920
g0
(g9
g2
Ntp921
Rp922
(dp923
g13
I01
sg14
F-0.1748781989154598
sg15
g920
sbs(I-2
I61
tp924
g0
(g9
g2
Ntp925
Rp926
(dp927
g13
I01
sg14
F0.17235400013373703
sg15
g924
sbs(I-12
I64
tp928
g0
(g9
g2
Ntp929
Rp930
(dp931
g13
I01
sg14
F-1.0
sg15
g928
sbs(I-8
I62
tp932
g0
(g9
g2
Ntp933
Rp934
(dp935
g13
I01
sg14
F-0.12046371654130039
sg15
g932
sbs(I57
I0
tp936
g0
(g9
g2
Ntp937
Rp938
(dp939
g13
I01
sg14
F0.3520570194157136
sg15
g936
sbs(I-17
I61
tp940
g0
(g9
g2
Ntp941
Rp942
(dp943
g13
I01
sg14
F0.12566871909568927
sg15
g940
sbs(I55
I2
tp944
g0
(g9
g2
Ntp945
Rp946
(dp947
g13
I01
sg14
F-0.31554395614956654
sg15
g944
sbs(I64
I3
tp948
g0
(g9
g2
Ntp949
Rp950
(dp951
g13
I01
sg14
F0.12182313701437672
sg15
g948
sbs(I-10
I63
tp952
g0
(g9
g2
Ntp953
Rp954
(dp955
g13
I01
sg14
F1.0
sg15
g952
sbs(I62
I1
tp956
g0
(g9
g2
Ntp957
Rp958
(dp959
g13
I01
sg14
F-0.002033982049055289
sg15
g956
sbs(I-5
I59
tp960
g0
(g9
g2
Ntp961
Rp962
(dp963
g13
I01
sg14
F-0.868376861653683
sg15
g960
sbs(I-2
I64
tp964
g0
(g9
g2
Ntp965
Rp966
(dp967
g13
I01
sg14
F0.26107441131348463
sg15
g964
sbs(I63
I4
tp968
g0
(g9
g2
Ntp969
Rp970
(dp971
g13
I01
sg14
F-0.7551124397982358
sg15
g968
sbs(I-12
I56
tp972
g0
(g9
g2
Ntp973
Rp974
(dp975
g13
I01
sg14
F-0.18960420716021953
sg15
g972
sbs(I-10
I64
tp976
g0
(g9
g2
Ntp977
Rp978
(dp979
g13
I01
sg14
F0.5766522817482742
sg15
g976
sbs(I62
I3
tp980
g0
(g9
g2
Ntp981
Rp982
(dp983
g13
I01
sg14
F0.46268613717609364
sg15
g980
sbs(I-13
I57
tp984
g0
(g9
g2
Ntp985
Rp986
(dp987
g13
I01
sg14
F-1.0
sg15
g984
sbs(I56
I2
tp988
g0
(g9
g2
Ntp989
Rp990
(dp991
g13
I01
sg14
F0.44087924332637496
sg15
g988
sbs(I-2
I62
tp992
g0
(g9
g2
Ntp993
Rp994
(dp995
g13
I01
sg14
F0.8614555984660893
sg15
g992
sbs(I-4
I60
tp996
g0
(g9
g2
Ntp997
Rp998
(dp999
g13
I01
sg14
F0.810126275666593
sg15
g996
sbs(I57
I3
tp1000
g0
(g9
g2
Ntp1001
Rp1002
(dp1003
g13
I01
sg14
F1.0
sg15
g1000
sbs(I55
I1
tp1004
g0
(g9
g2
Ntp1005
Rp1006
(dp1007
g13
I01
sg14
F-0.07091646006804908
sg15
g1004
sbs(I-8
I59
tp1008
g0
(g9
g2
Ntp1009
Rp1010
(dp1011
g13
I01
sg14
F0.44697406920843474
sg15
g1008
sbssS'nodes'
p1012
(dp1013
I0
g0
(cneat.genes
DefaultNodeGene
p1014
g2
Ntp1015
Rp1016
(dp1017
S'activation'
p1018
S'sigmoid'
p1019
sS'bias'
p1020
F-0.779784041136621
sS'response'
p1021
F1.0
sg15
I0
sS'aggregation'
p1022
S'product'
p1023
sbsI1
g0
(g1014
g2
Ntp1024
Rp1025
(dp1026
g1018
g1019
sg1020
F-0.06353306382073365
sg1021
F1.0
sg15
I1
sg1022
g1023
sbsI2
g0
(g1014
g2
Ntp1027
Rp1028
(dp1029
g1018
g1019
sg1020
F0.6770688414207766
sg1021
F1.0
sg15
I2
sg1022
g1023
sbsI3
g0
(g1014
g2
Ntp1030
Rp1031
(dp1032
g1018
g1019
sg1020
F-0.8002035353641882
sg1021
F1.0
sg15
I3
sg1022
g1023
sbsI4
g0
(g1014
g2
Ntp1033
Rp1034
(dp1035
g1018
g1019
sg1020
F0.6449963069752335
sg1021
F1.0
sg15
I4
sg1022
g1023
sbsI64
g0
(g1014
g2
Ntp1036
Rp1037
(dp1038
g1018
g1019
sg1020
F0.08814056476735557
sg1021
F1.0
sg15
I64
sg1022
g1023
sbsI55
g0
(g1014
g2
Ntp1039
Rp1040
(dp1041
g1018
g1019
sg1020
F-0.9140826422394838
sg1021
F1.0
sg15
I55
sg1022
g1023
sbsI56
g0
(g1014
g2
Ntp1042
Rp1043
(dp1044
g1018
g1019
sg1020
F-0.2323169210651528
sg1021
F1.0
sg15
I56
sg1022
g1023
sbsI57
g0
(g1014
g2
Ntp1045
Rp1046
(dp1047
g1018
g1019
sg1020
F0.5572889715850342
sg1021
F1.0
sg15
I57
sg1022
g1023
sbsI58
g0
(g1014
g2
Ntp1048
Rp1049
(dp1050
g1018
g1019
sg1020
F-1.0
sg1021
F1.0
sg15
I58
sg1022
g1023
sbsI59
g0
(g1014
g2
Ntp1051
Rp1052
(dp1053
g1018
g1019
sg1020
F1.0
sg1021
F1.0
sg15
I59
sg1022
g1023
sbsI60
g0
(g1014
g2
Ntp1054
Rp1055
(dp1056
g1018
g1019
sg1020
F-0.6154832528477293
sg1021
F1.0
sg15
I60
sg1022
g1023
sbsI61
g0
(g1014
g2
Ntp1057
Rp1058
(dp1059
g1018
g1019
sg1020
F-0.03882196350460965
sg1021
F1.0
sg15
I61
sg1022
g1023
sbsI62
g0
(g1014
g2
Ntp1060
Rp1061
(dp1062
g1018
g1019
sg1020
F1.0
sg1021
F1.0
sg15
I62
sg1022
g1023
sbsI63
g0
(g1014
g2
Ntp1063
Rp1064
(dp1065
g1018
g1019
sg1020
F1.0
sg1021
F1.0
sg15
I63
sg1022
g1023
sbssg15
I90
sS'fitness'
p1066
cnumpy.core.multiarray
scalar
p1067
(cnumpy
dtype
p1068
(S'f8'
p1069
I0
I1
tp1070
Rp1071
(I3
S'<'
p1072
NNNI-1
I-1
I0
tp1073
bS'Z\xa4\xf8l\xd3\x82A@'
p1074
tp1075
Rp1076
sb.