ccopy_reg
_reconstructor
p0
(cneat.genome
DefaultGenome
p1
c__builtin__
object
p2
Ntp3
Rp4
(dp5
S'connections'
p6
(dp7
(I-11
I1134
tp8
g0
(cneat.genes
DefaultConnectionGene
p9
g2
Ntp10
Rp11
(dp12
S'enabled'
p13
I01
sS'weight'
p14
F-1.6405972209073842
sS'key'
p15
g8
sbs(I-5
I1143
tp16
g0
(g9
g2
Ntp17
Rp18
(dp19
g13
I01
sg14
F1.0007629325289409
sg15
g16
sbs(I-8
I1139
tp20
g0
(g9
g2
Ntp21
Rp22
(dp23
g13
I01
sg14
F-0.4155120404000652
sg15
g20
sbs(I-14
I1134
tp24
g0
(g9
g2
Ntp25
Rp26
(dp27
g13
I01
sg14
F0.05334469707087429
sg15
g24
sbs(I-10
I1143
tp28
g0
(g9
g2
Ntp29
Rp30
(dp31
g13
I01
sg14
F-0.754794153001465
sg15
g28
sbs(I1133
I3
tp32
g0
(g9
g2
Ntp33
Rp34
(dp35
g13
I01
sg14
F-1.5649209901928216
sg15
g32
sbs(I-5
I1144
tp36
g0
(g9
g2
Ntp37
Rp38
(dp39
g13
I01
sg14
F-0.42467012150866623
sg15
g36
sbs(I1135
I0
tp40
g0
(g9
g2
Ntp41
Rp42
(dp43
g13
I01
sg14
F0.028848133381560455
sg15
g40
sbs(I-3
I1141
tp44
g0
(g9
g2
Ntp45
Rp46
(dp47
g13
I01
sg14
F-0.09422189852580799
sg15
g44
sbs(I-14
I1137
tp48
g0
(g9
g2
Ntp49
Rp50
(dp51
g13
I01
sg14
F0.26665732940438425
sg15
g48
sbs(I-5
I1133
tp52
g0
(g9
g2
Ntp53
Rp54
(dp55
g13
I01
sg14
F-1.0293166319093152
sg15
g52
sbs(I-4
I1140
tp56
g0
(g9
g2
Ntp57
Rp58
(dp59
g13
I01
sg14
F0.5379986742556947
sg15
g56
sbs(I-13
I1142
tp60
g0
(g9
g2
Ntp61
Rp62
(dp63
g13
I01
sg14
F1.0780002293725708
sg15
g60
sbs(I-18
I1140
tp64
g0
(g9
g2
Ntp65
Rp66
(dp67
g13
I01
sg14
F1.527237119298915
sg15
g64
sbs(I-3
I1135
tp68
g0
(g9
g2
Ntp69
Rp70
(dp71
g13
I01
sg14
F0.4024236366821128
sg15
g68
sbs(I1134
I4
tp72
g0
(g9
g2
Ntp73
Rp74
(dp75
g13
I01
sg14
F-0.20290618482008857
sg15
g72
sbs(I-11
I1140
tp76
g0
(g9
g2
Ntp77
Rp78
(dp79
g13
I01
sg14
F0.8216758289491433
sg15
g76
sbs(I1139
I1
tp80
g0
(g9
g2
Ntp81
Rp82
(dp83
g13
I01
sg14
F-0.24531064578593087
sg15
g80
sbs(I-17
I1144
tp84
g0
(g9
g2
Ntp85
Rp86
(dp87
g13
I01
sg14
F-0.8220747474338295
sg15
g84
sbs(I-7
I1137
tp88
g0
(g9
g2
Ntp89
Rp90
(dp91
g13
I01
sg14
F-0.15731956281031445
sg15
g88
sbs(I-2
I1141
tp92
g0
(g9
g2
Ntp93
Rp94
(dp95
g13
I01
sg14
F-1.3143575431488228
sg15
g92
sbs(I-9
I1137
tp96
g0
(g9
g2
Ntp97
Rp98
(dp99
g13
I01
sg14
F-0.8119758786770915
sg15
g96
sbs(I-12
I1141
tp100
g0
(g9
g2
Ntp101
Rp102
(dp103
g13
I01
sg14
F-1.7584398575093636
sg15
g100
sbs(I-5
I1138
tp104
g0
(g9
g2
Ntp105
Rp106
(dp107
g13
I01
sg14
F-0.12223457412498169
sg15
g104
sbs(I-2
I1134
tp108
g0
(g9
g2
Ntp109
Rp110
(dp111
g13
I01
sg14
F1.3948302091548404
sg15
g108
sbs(I-2
I1137
tp112
g0
(g9
g2
Ntp113
Rp114
(dp115
g13
I01
sg14
F-0.5172286862423919
sg15
g112
sbs(I-20
I1144
tp116
g0
(g9
g2
Ntp117
Rp118
(dp119
g13
I01
sg14
F-0.5897387795439007
sg15
g116
sbs(I1139
I2
tp120
g0
(g9
g2
Ntp121
Rp122
(dp123
g13
I01
sg14
F0.9980392471919814
sg15
g120
sbs(I1136
I0
tp124
g0
(g9
g2
Ntp125
Rp126
(dp127
g13
I01
sg14
F-1.1968945113296658
sg15
g124
sbs(I-9
I1135
tp128
g0
(g9
g2
Ntp129
Rp130
(dp131
g13
I01
sg14
F0.46891994534224407
sg15
g128
sbs(I-3
I1144
tp132
g0
(g9
g2
Ntp133
Rp134
(dp135
g13
I01
sg14
F0.9062373921154461
sg15
g132
sbs(I-14
I1138
tp136
g0
(g9
g2
Ntp137
Rp138
(dp139
g13
I01
sg14
F-0.9699147884463577
sg15
g136
sbs(I-15
I1135
tp140
g0
(g9
g2
Ntp141
Rp142
(dp143
g13
I01
sg14
F1.05333687245181
sg15
g140
sbs(I1142
I0
tp144
g0
(g9
g2
Ntp145
Rp146
(dp147
g13
I01
sg14
F-0.7781773922515859
sg15
g144
sbs(I-20
I1134
tp148
g0
(g9
g2
Ntp149
Rp150
(dp151
g13
I01
sg14
F-0.8513178651977465
sg15
g148
sbs(I-13
I1141
tp152
g0
(g9
g2
Ntp153
Rp154
(dp155
g13
I01
sg14
F-2.017170852314987
sg15
g152
sbs(I-14
I1143
tp156
g0
(g9
g2
Ntp157
Rp158
(dp159
g13
I01
sg14
F0.2982987433351209
sg15
g156
sbs(I-18
I1137
tp160
g0
(g9
g2
Ntp161
Rp162
(dp163
g13
I01
sg14
F-1.5931114051370026
sg15
g160
sbs(I1141
I4
tp164
g0
(g9
g2
Ntp165
Rp166
(dp167
g13
I01
sg14
F0.3256060167018304
sg15
g164
sbs(I1140
I0
tp168
g0
(g9
g2
Ntp169
Rp170
(dp171
g13
I01
sg14
F-1.0979394340455066
sg15
g168
sbs(I-11
I1143
tp172
g0
(g9
g2
Ntp173
Rp174
(dp175
g13
I01
sg14
F-0.7178490426419161
sg15
g172
sbs(I-20
I1135
tp176
g0
(g9
g2
Ntp177
Rp178
(dp179
g13
I01
sg14
F0.6987177724026749
sg15
g176
sbs(I-15
I1140
tp180
g0
(g9
g2
Ntp181
Rp182
(dp183
g13
I01
sg14
F1.0654799894565703
sg15
g180
sbs(I-1
I1142
tp184
g0
(g9
g2
Ntp185
Rp186
(dp187
g13
I01
sg14
F0.803626399419786
sg15
g184
sbs(I-9
I1140
tp188
g0
(g9
g2
Ntp189
Rp190
(dp191
g13
I01
sg14
F0.2942175890580408
sg15
g188
sbs(I-20
I1138
tp192
g0
(g9
g2
Ntp193
Rp194
(dp195
g13
I01
sg14
F-0.37775062078175425
sg15
g192
sbs(I-5
I1137
tp196
g0
(g9
g2
Ntp197
Rp198
(dp199
g13
I01
sg14
F-1.6602585952349314
sg15
g196
sbs(I-8
I1133
tp200
g0
(g9
g2
Ntp201
Rp202
(dp203
g13
I01
sg14
F-1.5598602739063603
sg15
g200
sbs(I1134
I3
tp204
g0
(g9
g2
Ntp205
Rp206
(dp207
g13
I01
sg14
F-0.6783779935319663
sg15
g204
sbs(I-6
I1136
tp208
g0
(g9
g2
Ntp209
Rp210
(dp211
g13
I01
sg14
F0.7672688816460342
sg15
g208
sbs(I-16
I1144
tp212
g0
(g9
g2
Ntp213
Rp214
(dp215
g13
I01
sg14
F2.1244711385399393
sg15
g212
sbs(I-4
I1139
tp216
g0
(g9
g2
Ntp217
Rp218
(dp219
g13
I01
sg14
F-0.47584606490223735
sg15
g216
sbs(I-17
I1143
tp220
g0
(g9
g2
Ntp221
Rp222
(dp223
g13
I01
sg14
F0.5922796058087466
sg15
g220
sbs(I-6
I1135
tp224
g0
(g9
g2
Ntp225
Rp226
(dp227
g13
I01
sg14
F2.3202311627980934
sg15
g224
sbs(I1134
I2
tp228
g0
(g9
g2
Ntp229
Rp230
(dp231
g13
I01
sg14
F0.6984534102941893
sg15
g228
sbs(I-17
I1136
tp232
g0
(g9
g2
Ntp233
Rp234
(dp235
g13
I01
sg14
F-1.5860405354540539
sg15
g232
sbs(I-13
I1136
tp236
g0
(g9
g2
Ntp237
Rp238
(dp239
g13
I01
sg14
F-1.6205143559641282
sg15
g236
sbs(I-18
I1138
tp240
g0
(g9
g2
Ntp241
Rp242
(dp243
g13
I01
sg14
F0.4383124198661271
sg15
g240
sbs(I-19
I1138
tp244
g0
(g9
g2
Ntp245
Rp246
(dp247
g13
I01
sg14
F0.1554544275640574
sg15
g244
sbs(I-8
I1143
tp248
g0
(g9
g2
Ntp249
Rp250
(dp251
g13
I01
sg14
F0.49494517457339077
sg15
g248
sbs(I-7
I1135
tp252
g0
(g9
g2
Ntp253
Rp254
(dp255
g13
I01
sg14
F2.1015934227816486
sg15
g252
sbs(I-1
I1139
tp256
g0
(g9
g2
Ntp257
Rp258
(dp259
g13
I01
sg14
F-0.4175857070529157
sg15
g256
sbs(I-15
I1142
tp260
g0
(g9
g2
Ntp261
Rp262
(dp263
g13
I01
sg14
F1.8115857958596318
sg15
g260
sbs(I-12
I1135
tp264
g0
(g9
g2
Ntp265
Rp266
(dp267
g13
I01
sg14
F-1.2951986966984586
sg15
g264
sbs(I-16
I1138
tp268
g0
(g9
g2
Ntp269
Rp270
(dp271
g13
I01
sg14
F0.3649062239790323
sg15
g268
sbs(I1138
I1
tp272
g0
(g9
g2
Ntp273
Rp274
(dp275
g13
I01
sg14
F-0.9910584538997286
sg15
g272
sbs(I-2
I1136
tp276
g0
(g9
g2
Ntp277
Rp278
(dp279
g13
I01
sg14
F1.0415779199105704
sg15
g276
sbs(I-14
I1135
tp280
g0
(g9
g2
Ntp281
Rp282
(dp283
g13
I01
sg14
F2.3116834879123864
sg15
g280
sbs(I-3
I1137
tp284
g0
(g9
g2
Ntp285
Rp286
(dp287
g13
I01
sg14
F1.8278200427200455
sg15
g284
sbs(I-6
I1141
tp288
g0
(g9
g2
Ntp289
Rp290
(dp291
g13
I01
sg14
F0.4902588899943796
sg15
g288
sbs(I-10
I1133
tp292
g0
(g9
g2
Ntp293
Rp294
(dp295
g13
I01
sg14
F-0.3388565645991633
sg15
g292
sbs(I-4
I1136
tp296
g0
(g9
g2
Ntp297
Rp298
(dp299
g13
I01
sg14
F0.30080056026784857
sg15
g296
sbs(I-14
I1144
tp300
g0
(g9
g2
Ntp301
Rp302
(dp303
g13
I01
sg14
F0.3893688152393861
sg15
g300
sbs(I-17
I1139
tp304
g0
(g9
g2
Ntp305
Rp306
(dp307
g13
I01
sg14
F0.7814117122857569
sg15
g304
sbs(I-18
I1144
tp308
g0
(g9
g2
Ntp309
Rp310
(dp311
g13
I01
sg14
F2.7461787049678748
sg15
g308
sbs(I1143
I2
tp312
g0
(g9
g2
Ntp313
Rp314
(dp315
g13
I01
sg14
F-1.235233671498447
sg15
g312
sbs(I1138
I4
tp316
g0
(g9
g2
Ntp317
Rp318
(dp319
g13
I01
sg14
F-1.787636493046727
sg15
g316
sbs(I-13
I1135
tp320
g0
(g9
g2
Ntp321
Rp322
(dp323
g13
I01
sg14
F-0.2664983151611315
sg15
g320
sbs(I-14
I1142
tp324
g0
(g9
g2
Ntp325
Rp326
(dp327
g13
I01
sg14
F2.033404223462792
sg15
g324
sbs(I-18
I1135
tp328
g0
(g9
g2
Ntp329
Rp330
(dp331
g13
I01
sg14
F0.24453925314231398
sg15
g328
sbs(I-4
I1134
tp332
g0
(g9
g2
Ntp333
Rp334
(dp335
g13
I01
sg14
F0.5535386958881069
sg15
g332
sbs(I-11
I1136
tp336
g0
(g9
g2
Ntp337
Rp338
(dp339
g13
I01
sg14
F0.6811637708938415
sg15
g336
sbs(I-7
I1141
tp340
g0
(g9
g2
Ntp341
Rp342
(dp343
g13
I01
sg14
F-0.7088431329077411
sg15
g340
sbs(I1142
I3
tp344
g0
(g9
g2
Ntp345
Rp346
(dp347
g13
I01
sg14
F2.1151601004047094
sg15
g344
sbs(I1144
I4
tp348
g0
(g9
g2
Ntp349
Rp350
(dp351
g13
I01
sg14
F-0.0634823824561419
sg15
g348
sbs(I-12
I1137
tp352
g0
(g9
g2
Ntp353
Rp354
(dp355
g13
I01
sg14
F-0.04635056353390506
sg15
g352
sbs(I-11
I1133
tp356
g0
(g9
g2
Ntp357
Rp358
(dp359
g13
I01
sg14
F-0.7191513791868982
sg15
g356
sbs(I-5
I1142
tp360
g0
(g9
g2
Ntp361
Rp362
(dp363
g13
I01
sg14
F-1.3332806705543725
sg15
g360
sbs(I-8
I1140
tp364
g0
(g9
g2
Ntp365
Rp366
(dp367
g13
I01
sg14
F0.5444456263182464
sg15
g364
sbs(I-15
I1138
tp368
g0
(g9
g2
Ntp369
Rp370
(dp371
g13
I01
sg14
F-2.7001098975920135
sg15
g368
sbs(I-10
I1140
tp372
g0
(g9
g2
Ntp373
Rp374
(dp375
g13
I01
sg14
F-0.15760452266296646
sg15
g372
sbs(I-20
I1140
tp376
g0
(g9
g2
Ntp377
Rp378
(dp379
g13
I01
sg14
F-0.241715341667848
sg15
g376
sbs(I1133
I2
tp380
g0
(g9
g2
Ntp381
Rp382
(dp383
g13
I01
sg14
F0.4348312651129906
sg15
g380
sbs(I1138
I2
tp384
g0
(g9
g2
Ntp385
Rp386
(dp387
g13
I01
sg14
F-0.7382564042369248
sg15
g384
sbs(I1135
I3
tp388
g0
(g9
g2
Ntp389
Rp390
(dp391
g13
I01
sg14
F1.3982877367887663
sg15
g388
sbs(I-3
I1140
tp392
g0
(g9
g2
Ntp393
Rp394
(dp395
g13
I01
sg14
F-0.13694570189547609
sg15
g392
sbs(I-6
I1142
tp396
g0
(g9
g2
Ntp397
Rp398
(dp399
g13
I01
sg14
F-0.30128852827321445
sg15
g396
sbs(I1140
I1
tp400
g0
(g9
g2
Ntp401
Rp402
(dp403
g13
I01
sg14
F-0.7790608900860286
sg15
g400
sbs(I-10
I1134
tp404
g0
(g9
g2
Ntp405
Rp406
(dp407
g13
I01
sg14
F-0.26875386646582866
sg15
g404
sbs(I-4
I1141
tp408
g0
(g9
g2
Ntp409
Rp410
(dp411
g13
I01
sg14
F1.6565375385541012
sg15
g408
sbs(I-17
I1140
tp412
g0
(g9
g2
Ntp413
Rp414
(dp415
g13
I01
sg14
F-0.152469355001487
sg15
g412
sbs(I1137
I2
tp416
g0
(g9
g2
Ntp417
Rp418
(dp419
g13
I01
sg14
F0.9989389536263698
sg15
g416
sbs(I-18
I1141
tp420
g0
(g9
g2
Ntp421
Rp422
(dp423
g13
I01
sg14
F-1.7420887198396466
sg15
g420
sbs(I1143
I1
tp424
g0
(g9
g2
Ntp425
Rp426
(dp427
g13
I01
sg14
F-0.9908119101407514
sg15
g424
sbs(I-3
I1134
tp428
g0
(g9
g2
Ntp429
Rp430
(dp431
g13
I01
sg14
F0.6187555058794645
sg15
g428
sbs(I-19
I1143
tp432
g0
(g9
g2
Ntp433
Rp434
(dp435
g13
I01
sg14
F-1.61977629577291
sg15
g432
sbs(I1137
I0
tp436
g0
(g9
g2
Ntp437
Rp438
(dp439
g13
I01
sg14
F-1.0368696746868684
sg15
g436
sbs(I-11
I1139
tp440
g0
(g9
g2
Ntp441
Rp442
(dp443
g13
I01
sg14
F-0.32290780899430543
sg15
g440
sbs(I-7
I1136
tp444
g0
(g9
g2
Ntp445
Rp446
(dp447
g13
I01
sg14
F0.34100452743972703
sg15
g444
sbs(I-9
I1136
tp448
g0
(g9
g2
Ntp449
Rp450
(dp451
g13
I01
sg14
F0.6161240937386533
sg15
g448
sbs(I-12
I1142
tp452
g0
(g9
g2
Ntp453
Rp454
(dp455
g13
I01
sg14
F-0.669848170415002
sg15
g452
sbs(I-19
I1144
tp456
g0
(g9
g2
Ntp457
Rp458
(dp459
g13
I01
sg14
F-1.5975179574967695
sg15
g456
sbs(I-5
I1141
tp460
g0
(g9
g2
Ntp461
Rp462
(dp463
g13
I01
sg14
F0.7257091417500146
sg15
g460
sbs(I-8
I1137
tp464
g0
(g9
g2
Ntp465
Rp466
(dp467
g13
I01
sg14
F2.2653415911730845
sg15
g464
sbs(I1142
I4
tp468
g0
(g9
g2
Ntp469
Rp470
(dp471
g13
I01
sg14
F-1.0083763138589479
sg15
g468
sbs(I-10
I1137
tp472
g0
(g9
g2
Ntp473
Rp474
(dp475
g13
I01
sg14
F1.7975305066693967
sg15
g472
sbs(I-15
I1143
tp476
g0
(g9
g2
Ntp477
Rp478
(dp479
g13
I01
sg14
F0.17681696961338336
sg15
g476
sbs(I-19
I1133
tp480
g0
(g9
g2
Ntp481
Rp482
(dp483
g13
I01
sg14
F-0.4970255239957486
sg15
g480
sbs(I-2
I1139
tp484
g0
(g9
g2
Ntp485
Rp486
(dp487
g13
I01
sg14
F0.325277314910308
sg15
g484
sbs(I-9
I1134
tp488
g0
(g9
g2
Ntp489
Rp490
(dp491
g13
I01
sg14
F0.3897452318246478
sg15
g488
sbs(I-3
I1143
tp492
g0
(g9
g2
Ntp493
Rp494
(dp495
g13
I01
sg14
F-0.07606072672452964
sg15
g492
sbs(I-14
I1139
tp496
g0
(g9
g2
Ntp497
Rp498
(dp499
g13
I01
sg14
F-0.22016846381488345
sg15
g496
sbs(I1142
I1
tp500
g0
(g9
g2
Ntp501
Rp502
(dp503
g13
I01
sg14
F-0.5095542949432651
sg15
g500
sbs(I-13
I1140
tp504
g0
(g9
g2
Ntp505
Rp506
(dp507
g13
I01
sg14
F-0.9678918937517281
sg15
g504
sbs(I-20
I1143
tp508
g0
(g9
g2
Ntp509
Rp510
(dp511
g13
I01
sg14
F-2.3690710217499515
sg15
g508
sbs(I-1
I1133
tp512
g0
(g9
g2
Ntp513
Rp514
(dp515
g13
I01
sg14
F1.2477558581327077
sg15
g512
sbs(I-18
I1142
tp516
g0
(g9
g2
Ntp517
Rp518
(dp519
g13
I01
sg14
F-1.0713262006041642
sg15
g516
sbs(I1143
I4
tp520
g0
(g9
g2
Ntp521
Rp522
(dp523
g13
I01
sg14
F0.3253257837578156
sg15
g520
sbs(I-15
I1141
tp524
g0
(g9
g2
Ntp525
Rp526
(dp527
g13
I01
sg14
F-0.5834125110063703
sg15
g524
sbs(I-16
I1134
tp528
g0
(g9
g2
Ntp529
Rp530
(dp531
g13
I01
sg14
F0.3306418595781343
sg15
g528
sbs(I-1
I1141
tp532
g0
(g9
g2
Ntp533
Rp534
(dp535
g13
I01
sg14
F-0.7427896501025526
sg15
g532
sbs(I-12
I1144
tp536
g0
(g9
g2
Ntp537
Rp538
(dp539
g13
I01
sg14
F-0.8862063214644739
sg15
g536
sbs(I-11
I1142
tp540
g0
(g9
g2
Ntp541
Rp542
(dp543
g13
I01
sg14
F1.3113667792670973
sg15
g540
sbs(I-7
I1139
tp544
g0
(g9
g2
Ntp545
Rp546
(dp547
g13
I01
sg14
F-1.4391417942259193
sg15
g544
sbs(I-2
I1143
tp548
g0
(g9
g2
Ntp549
Rp550
(dp551
g13
I01
sg14
F-1.1705429565592063
sg15
g548
sbs(I-9
I1143
tp552
g0
(g9
g2
Ntp553
Rp554
(dp555
g13
I01
sg14
F1.3563198313112699
sg15
g552
sbs(I-20
I1139
tp556
g0
(g9
g2
Ntp557
Rp558
(dp559
g13
I01
sg14
F0.04335751599201148
sg15
g556
sbs(I-17
I1135
tp560
g0
(g9
g2
Ntp561
Rp562
(dp563
g13
I01
sg14
F0.6502459800313662
sg15
g560
sbs(I-5
I1136
tp564
g0
(g9
g2
Ntp565
Rp566
(dp567
g13
I01
sg14
F-1.578527427955561
sg15
g564
sbs(I-8
I1134
tp568
g0
(g9
g2
Ntp569
Rp570
(dp571
g13
I01
sg14
F-0.18862019216126877
sg15
g568
sbs(I-15
I1144
tp572
g0
(g9
g2
Ntp573
Rp574
(dp575
g13
I01
sg14
F0.043945160533735886
sg15
g572
sbs(I-10
I1138
tp576
g0
(g9
g2
Ntp577
Rp578
(dp579
g13
I01
sg14
F0.3725945316046867
sg15
g576
sbs(I1134
I0
tp580
g0
(g9
g2
Ntp581
Rp582
(dp583
g13
I01
sg14
F0.002568066086856919
sg15
g580
sbs(I-6
I1137
tp584
g0
(g9
g2
Ntp585
Rp586
(dp587
g13
I01
sg14
F-0.9373376121215512
sg15
g584
sbs(I1139
I0
tp588
g0
(g9
g2
Ntp589
Rp590
(dp591
g13
I01
sg14
F1.090126640349432
sg15
g588
sbs(I1140
I3
tp592
g0
(g9
g2
Ntp593
Rp594
(dp595
g13
I01
sg14
F-1.1352669229923535
sg15
g592
sbs(I-17
I1134
tp596
g0
(g9
g2
Ntp597
Rp598
(dp599
g13
I01
sg14
F0.06986532653960738
sg15
g596
sbs(I-9
I1133
tp600
g0
(g9
g2
Ntp601
Rp602
(dp603
g13
I01
sg14
F0.32799505553641206
sg15
g600
sbs(I-14
I1140
tp604
g0
(g9
g2
Ntp605
Rp606
(dp607
g13
I01
sg14
F-0.5454958632449476
sg15
g604
sbs(I1137
I3
tp608
g0
(g9
g2
Ntp609
Rp610
(dp611
g13
I01
sg14
F0.2803464149687621
sg15
g608
sbs(I-8
I1136
tp612
g0
(g9
g2
Ntp613
Rp614
(dp615
g13
I01
sg14
F1.2007127153098613
sg15
g612
sbs(I-13
I1139
tp616
g0
(g9
g2
Ntp617
Rp618
(dp619
g13
I01
sg14
F0.06469254687823188
sg15
g616
sbs(I-1
I1134
tp620
g0
(g9
g2
Ntp621
Rp622
(dp623
g13
I01
sg14
F0.0370702499636623
sg15
g620
sbs(I-18
I1139
tp624
g0
(g9
g2
Ntp625
Rp626
(dp627
g13
I01
sg14
F-0.39305239760381117
sg15
g624
sbs(I1136
I3
tp628
g0
(g9
g2
Ntp629
Rp630
(dp631
g13
I01
sg14
F-0.49492947527384606
sg15
g628
sbs(I-14
I1133
tp632
g0
(g9
g2
Ntp633
Rp634
(dp635
g13
I01
sg14
F1.6732935015284633
sg15
g632
sbs(I-10
I1136
tp636
g0
(g9
g2
Ntp637
Rp638
(dp639
g13
I01
sg14
F-2.038750129733035
sg15
g636
sbs(I-19
I1137
tp640
g0
(g9
g2
Ntp641
Rp642
(dp643
g13
I01
sg14
F1.017889654202513
sg15
g640
sbs(I-19
I1135
tp644
g0
(g9
g2
Ntp645
Rp646
(dp647
g13
I01
sg14
F-1.2359316148426522
sg15
g644
sbs(I-8
I1144
tp648
g0
(g9
g2
Ntp649
Rp650
(dp651
g13
I01
sg14
F-0.5925655590391052
sg15
g648
sbs(I-7
I1134
tp652
g0
(g9
g2
Ntp653
Rp654
(dp655
g13
I01
sg14
F-0.976287604175088
sg15
g652
sbs(I-1
I1136
tp656
g0
(g9
g2
Ntp657
Rp658
(dp659
g13
I01
sg14
F0.430986065938938
sg15
g656
sbs(I-16
I1143
tp660
g0
(g9
g2
Ntp661
Rp662
(dp663
g13
I01
sg14
F-2.090226412214593
sg15
g660
sbs(I-8
I1142
tp664
g0
(g9
g2
Ntp665
Rp666
(dp667
g13
I01
sg14
F-1.2318551336415438
sg15
g664
sbs(I1144
I3
tp668
g0
(g9
g2
Ntp669
Rp670
(dp671
g13
I01
sg14
F0.9342788879222227
sg15
g668
sbs(I-16
I1139
tp672
g0
(g9
g2
Ntp673
Rp674
(dp675
g13
I01
sg14
F0.15049191612052557
sg15
g672
sbs(I-3
I1136
tp676
g0
(g9
g2
Ntp677
Rp678
(dp679
g13
I01
sg14
F0.3236964676822062
sg15
g676
sbs(I-6
I1138
tp680
g0
(g9
g2
Ntp681
Rp682
(dp683
g13
I01
sg14
F-1.5587873825437442
sg15
g680
sbs(I-2
I1138
tp684
g0
(g9
g2
Ntp685
Rp686
(dp687
g13
I01
sg14
F0.7288148513182301
sg15
g684
sbs(I-4
I1137
tp688
g0
(g9
g2
Ntp689
Rp690
(dp691
g13
I01
sg14
F-0.16809942454176907
sg15
g688
sbs(I1141
I0
tp692
g0
(g9
g2
Ntp693
Rp694
(dp695
g13
I01
sg14
F-0.11508797699844275
sg15
g692
sbs(I-13
I1134
tp696
g0
(g9
g2
Ntp697
Rp698
(dp699
g13
I01
sg14
F-0.443506084694714
sg15
g696
sbs(I-20
I1142
tp700
g0
(g9
g2
Ntp701
Rp702
(dp703
g13
I01
sg14
F-1.0214844046075626
sg15
g700
sbs(I-4
I1135
tp704
g0
(g9
g2
Ntp705
Rp706
(dp707
g13
I01
sg14
F1.4739305207960516
sg15
g704
sbs(I1135
I2
tp708
g0
(g9
g2
Ntp709
Rp710
(dp711
g13
I01
sg14
F-0.917910298045593
sg15
g708
sbs(I-2
I1133
tp712
g0
(g9
g2
Ntp713
Rp714
(dp715
g13
I01
sg14
F1.7241906046992495
sg15
g712
sbs(I-7
I1140
tp716
g0
(g9
g2
Ntp717
Rp718
(dp719
g13
I01
sg14
F0.5218584073636666
sg15
g716
sbs(I-2
I1140
tp720
g0
(g9
g2
Ntp721
Rp722
(dp723
g13
I01
sg14
F0.8276138586586238
sg15
g720
sbs(I-12
I1138
tp724
g0
(g9
g2
Ntp725
Rp726
(dp727
g13
I01
sg14
F-0.3406254440345919
sg15
g724
sbs(I-19
I1140
tp728
g0
(g9
g2
Ntp729
Rp730
(dp731
g13
I01
sg14
F0.40293897265154105
sg15
g728
sbs(I-8
I1141
tp732
g0
(g9
g2
Ntp733
Rp734
(dp735
g13
I01
sg14
F-1.2490149013498746
sg15
g732
sbs(I-15
I1137
tp736
g0
(g9
g2
Ntp737
Rp738
(dp739
g13
I01
sg14
F2.841157591855833
sg15
g736
sbs(I-10
I1141
tp740
g0
(g9
g2
Ntp741
Rp742
(dp743
g13
I01
sg14
F1.2807447952010969
sg15
g740
sbs(I1144
I2
tp744
g0
(g9
g2
Ntp745
Rp746
(dp747
g13
I01
sg14
F0.5573598457790497
sg15
g744
sbs(I-12
I1133
tp748
g0
(g9
g2
Ntp749
Rp750
(dp751
g13
I01
sg14
F-0.36586337963227666
sg15
g748
sbs(I-6
I1144
tp752
g0
(g9
g2
Ntp753
Rp754
(dp755
g13
I01
sg14
F0.41628974899460847
sg15
g752
sbs(I-16
I1136
tp756
g0
(g9
g2
Ntp757
Rp758
(dp759
g13
I01
sg14
F-0.8619198761391742
sg15
g756
sbs(I1138
I3
tp760
g0
(g9
g2
Ntp761
Rp762
(dp763
g13
I01
sg14
F0.06735933256511721
sg15
g760
sbs(I-10
I1144
tp764
g0
(g9
g2
Ntp765
Rp766
(dp767
g13
I01
sg14
F-3.429133226077055
sg15
g764
sbs(I-19
I1142
tp768
g0
(g9
g2
Ntp769
Rp770
(dp771
g13
I01
sg14
F-0.2583814437627464
sg15
g768
sbs(I-3
I1139
tp772
g0
(g9
g2
Ntp773
Rp774
(dp775
g13
I01
sg14
F-0.9385788699701787
sg15
g772
sbs(I-6
I1143
tp776
g0
(g9
g2
Ntp777
Rp778
(dp779
g13
I01
sg14
F0.02465274510091658
sg15
g776
sbs(I-5
I1135
tp780
g0
(g9
g2
Ntp781
Rp782
(dp783
g13
I01
sg14
F-0.5693181933979872
sg15
g780
sbs(I-2
I1142
tp784
g0
(g9
g2
Ntp785
Rp786
(dp787
g13
I01
sg14
F-0.3501764393695278
sg15
g784
sbs(I-10
I1135
tp788
g0
(g9
g2
Ntp789
Rp790
(dp791
g13
I01
sg14
F-0.2407914697768066
sg15
g788
sbs(I-4
I1142
tp792
g0
(g9
g2
Ntp793
Rp794
(dp795
g13
I01
sg14
F0.03129271154289012
sg15
g792
sbs(I1141
I3
tp796
g0
(g9
g2
Ntp797
Rp798
(dp799
g13
I01
sg14
F0.6209448662329325
sg15
g796
sbs(I-13
I1144
tp800
g0
(g9
g2
Ntp801
Rp802
(dp803
g13
I01
sg14
F-1.1011465291315992
sg15
g800
sbs(I-17
I1142
tp804
g0
(g9
g2
Ntp805
Rp806
(dp807
g13
I01
sg14
F-1.0741701332202678
sg15
g804
sbs(I1143
I0
tp808
g0
(g9
g2
Ntp809
Rp810
(dp811
g13
I01
sg14
F0.6993739418630116
sg15
g808
sbs(I-3
I1133
tp812
g0
(g9
g2
Ntp813
Rp814
(dp815
g13
I01
sg14
F0.96917341906562
sg15
g812
sbs(I-13
I1133
tp816
g0
(g9
g2
Ntp817
Rp818
(dp819
g13
I01
sg14
F0.4871835930788119
sg15
g816
sbs(I-11
I1138
tp820
g0
(g9
g2
Ntp821
Rp822
(dp823
g13
I01
sg14
F-1.2024141706776978
sg15
g820
sbs(I1140
I2
tp824
g0
(g9
g2
Ntp825
Rp826
(dp827
g13
I01
sg14
F1.009515419340526
sg15
g824
sbs(I-7
I1143
tp828
g0
(g9
g2
Ntp829
Rp830
(dp831
g13
I01
sg14
F-0.17750551782985535
sg15
g828
sbs(I-9
I1139
tp832
g0
(g9
g2
Ntp833
Rp834
(dp835
g13
I01
sg14
F-0.30826781521268987
sg15
g832
sbs(I-12
I1143
tp836
g0
(g9
g2
Ntp837
Rp838
(dp839
g13
I01
sg14
F0.8470006352195742
sg15
g836
sbs(I-11
I1135
tp840
g0
(g9
g2
Ntp841
Rp842
(dp843
g13
I01
sg14
F-1.9203336369674608
sg15
g840
sbs(I-5
I1140
tp844
g0
(g9
g2
Ntp845
Rp846
(dp847
g13
I01
sg14
F-1.1945078329589802
sg15
g844
sbs(I-8
I1138
tp848
g0
(g9
g2
Ntp849
Rp850
(dp851
g13
I01
sg14
F0.18204678802234064
sg15
g848
sbs(I-10
I1142
tp852
g0
(g9
g2
Ntp853
Rp854
(dp855
g13
I01
sg14
F0.9079955829486179
sg15
g852
sbs(I-16
I1133
tp856
g0
(g9
g2
Ntp857
Rp858
(dp859
g13
I01
sg14
F2.090585481030467
sg15
g856
sbs(I1133
I4
tp860
g0
(g9
g2
Ntp861
Rp862
(dp863
g13
I01
sg14
F-0.048626824898522304
sg15
g860
sbs(I1139
I4
tp864
g0
(g9
g2
Ntp865
Rp866
(dp867
g13
I01
sg14
F-0.5927084503169604
sg15
g864
sbs(I-16
I1135
tp868
g0
(g9
g2
Ntp869
Rp870
(dp871
g13
I01
sg14
F2.09165484296326
sg15
g868
sbs(I1135
I1
tp872
g0
(g9
g2
Ntp873
Rp874
(dp875
g13
I01
sg14
F-1.1762305624172815
sg15
g872
sbs(I-3
I1142
tp876
g0
(g9
g2
Ntp877
Rp878
(dp879
g13
I01
sg14
F-0.46257804715597894
sg15
g876
sbs(I-14
I1136
tp880
g0
(g9
g2
Ntp881
Rp882
(dp883
g13
I01
sg14
F-1.1063176774535195
sg15
g880
sbs(I1137
I4
tp884
g0
(g9
g2
Ntp885
Rp886
(dp887
g13
I01
sg14
F-1.0409902773137458
sg15
g884
sbs(I-13
I1143
tp888
g0
(g9
g2
Ntp889
Rp890
(dp891
g13
I01
sg14
F-1.2062989079933442
sg15
g888
sbs(I-18
I1143
tp892
g0
(g9
g2
Ntp893
Rp894
(dp895
g13
I01
sg14
F-0.863485627508795
sg15
g892
sbs(I-17
I1138
tp896
g0
(g9
g2
Ntp897
Rp898
(dp899
g13
I01
sg14
F1.307290093301002
sg15
g896
sbs(I-11
I1144
tp900
g0
(g9
g2
Ntp901
Rp902
(dp903
g13
I01
sg14
F2.174884904082566
sg15
g900
sbs(I-20
I1141
tp904
g0
(g9
g2
Ntp905
Rp906
(dp907
g13
I01
sg14
F0.5449192598340091
sg15
g904
sbs(I-11
I1141
tp908
g0
(g9
g2
Ntp909
Rp910
(dp911
g13
I01
sg14
F-1.0277374772006436
sg15
g908
sbs(I1133
I1
tp912
g0
(g9
g2
Ntp913
Rp914
(dp915
g13
I01
sg14
F0.12796591645876412
sg15
g912
sbs(I-7
I1138
tp916
g0
(g9
g2
Ntp917
Rp918
(dp919
g13
I01
sg14
F1.1145504971768607
sg15
g916
sbs(I-1
I1140
tp920
g0
(g9
g2
Ntp921
Rp922
(dp923
g13
I01
sg14
F0.6694900075941653
sg15
g920
sbs(I-9
I1142
tp924
g0
(g9
g2
Ntp925
Rp926
(dp927
g13
I01
sg14
F0.9951955779773894
sg15
g924
sbs(I-12
I1140
tp928
g0
(g9
g2
Ntp929
Rp930
(dp931
g13
I01
sg14
F-0.43567532433699696
sg15
g928
sbs(I-5
I1139
tp932
g0
(g9
g2
Ntp933
Rp934
(dp935
g13
I01
sg14
F-0.12000338836618302
sg15
g932
sbs(I-8
I1135
tp936
g0
(g9
g2
Ntp937
Rp938
(dp939
g13
I01
sg14
F1.2643802744213535
sg15
g936
sbs(I1136
I2
tp940
g0
(g9
g2
Ntp941
Rp942
(dp943
g13
I01
sg14
F-0.22270419519158838
sg15
g940
sbs(I-10
I1139
tp944
g0
(g9
g2
Ntp945
Rp946
(dp947
g13
I01
sg14
F0.7919701595731065
sg15
g944
sbs(I1144
I1
tp948
g0
(g9
g2
Ntp949
Rp950
(dp951
g13
I01
sg14
F-0.3117178337979943
sg15
g948
sbs(I1134
I1
tp952
g0
(g9
g2
Ntp953
Rp954
(dp955
g13
I01
sg14
F0.3489949657111247
sg15
g952
sbs(I-17
I1133
tp956
g0
(g9
g2
Ntp957
Rp958
(dp959
g13
I01
sg14
F0.18210858267345117
sg15
g956
sbs(I1139
I3
tp960
g0
(g9
g2
Ntp961
Rp962
(dp963
g13
I01
sg14
F0.0035340057094789966
sg15
g960
sbs(I-15
I1133
tp964
g0
(g9
g2
Ntp965
Rp966
(dp967
g13
I01
sg14
F-0.7561851057863472
sg15
g964
sbs(I1135
I4
tp968
g0
(g9
g2
Ntp969
Rp970
(dp971
g13
I01
sg14
F0.3394462587262095
sg15
g968
sbs(I-6
I1133
tp972
g0
(g9
g2
Ntp973
Rp974
(dp975
g13
I01
sg14
F-0.6481427965447264
sg15
g972
sbs(I1140
I4
tp976
g0
(g9
g2
Ntp977
Rp978
(dp979
g13
I01
sg14
F0.357489856811182
sg15
g976
sbs(I-14
I1141
tp980
g0
(g9
g2
Ntp981
Rp982
(dp983
g13
I01
sg14
F-1.6600611395094222
sg15
g980
sbs(I-4
I1144
tp984
g0
(g9
g2
Ntp985
Rp986
(dp987
g13
I01
sg14
F-0.056983680716564115
sg15
g984
sbs(I-15
I1139
tp988
g0
(g9
g2
Ntp989
Rp990
(dp991
g13
I01
sg14
F0.6092171230251507
sg15
g988
sbs(I-13
I1138
tp992
g0
(g9
g2
Ntp993
Rp994
(dp995
g13
I01
sg14
F-0.28873176002422996
sg15
g992
sbs(I-1
I1135
tp996
g0
(g9
g2
Ntp997
Rp998
(dp999
g13
I01
sg14
F-0.45439731259701494
sg15
g996
sbs(I-18
I1136
tp1000
g0
(g9
g2
Ntp1001
Rp1002
(dp1003
g13
I01
sg14
F0.8590651161061814
sg15
g1000
sbs(I-16
I1142
tp1004
g0
(g9
g2
Ntp1005
Rp1006
(dp1007
g13
I01
sg14
F0.2872580511597993
sg15
g1004
sbs(I1137
I1
tp1008
g0
(g9
g2
Ntp1009
Rp1010
(dp1011
g13
I01
sg14
F0.5558193361178466
sg15
g1008
sbs(I-7
I1144
tp1012
g0
(g9
g2
Ntp1013
Rp1014
(dp1015
g13
I01
sg14
F-0.21743925535535913
sg15
g1012
sbs(I-17
I1141
tp1016
g0
(g9
g2
Ntp1017
Rp1018
(dp1019
g13
I01
sg14
F-1.3120031407038084
sg15
g1016
sbs(I-19
I1136
tp1020
g0
(g9
g2
Ntp1021
Rp1022
(dp1023
g13
I01
sg14
F-1.222282077017051
sg15
g1020
sbs(I-19
I1141
tp1024
g0
(g9
g2
Ntp1025
Rp1026
(dp1027
g13
I01
sg14
F-1.916992521111112
sg15
g1024
sbs(I-7
I1133
tp1028
g0
(g9
g2
Ntp1029
Rp1030
(dp1031
g13
I01
sg14
F0.10319764365597253
sg15
g1028
sbs(I-1
I1137
tp1032
g0
(g9
g2
Ntp1033
Rp1034
(dp1035
g13
I01
sg14
F-0.4709023231641159
sg15
g1032
sbs(I-9
I1141
tp1036
g0
(g9
g2
Ntp1037
Rp1038
(dp1039
g13
I01
sg14
F0.23418794017588185
sg15
g1036
sbs(I-20
I1137
tp1040
g0
(g9
g2
Ntp1041
Rp1042
(dp1043
g13
I01
sg14
F0.16544335081315992
sg15
g1040
sbs(I-16
I1140
tp1044
g0
(g9
g2
Ntp1045
Rp1046
(dp1047
g13
I01
sg14
F0.5368907350600631
sg15
g1044
sbs(I-17
I1137
tp1048
g0
(g9
g2
Ntp1049
Rp1050
(dp1051
g13
I01
sg14
F-1.1132151473166438
sg15
g1048
sbs(I-6
I1139
tp1052
g0
(g9
g2
Ntp1053
Rp1054
(dp1055
g13
I01
sg14
F0.21442265991365508
sg15
g1052
sbs(I-4
I1138
tp1056
g0
(g9
g2
Ntp1057
Rp1058
(dp1059
g13
I01
sg14
F0.936187565763461
sg15
g1056
sbs(I1142
I2
tp1060
g0
(g9
g2
Ntp1061
Rp1062
(dp1063
g13
I01
sg14
F-0.776575403697114
sg15
g1060
sbs(I-6
I1134
tp1064
g0
(g9
g2
Ntp1065
Rp1066
(dp1067
g13
I01
sg14
F2.0936270272254047
sg15
g1064
sbs(I1136
I4
tp1068
g0
(g9
g2
Ntp1069
Rp1070
(dp1071
g13
I01
sg14
F-1.4551847504793427
sg15
g1068
sbs(I-13
I1137
tp1072
g0
(g9
g2
Ntp1073
Rp1074
(dp1075
g13
I01
sg14
F-0.6829914763962186
sg15
g1072
sbs(I-18
I1133
tp1076
g0
(g9
g2
Ntp1077
Rp1078
(dp1079
g13
I01
sg14
F-1.5167087855650532
sg15
g1076
sbs(I-20
I1136
tp1080
g0
(g9
g2
Ntp1081
Rp1082
(dp1083
g13
I01
sg14
F-0.374548975777372
sg15
g1080
sbs(I-16
I1141
tp1084
g0
(g9
g2
Ntp1085
Rp1086
(dp1087
g13
I01
sg14
F1.4741515391557034
sg15
g1084
sbs(I-1
I1143
tp1088
g0
(g9
g2
Ntp1089
Rp1090
(dp1091
g13
I01
sg14
F0.14433786908885543
sg15
g1088
sbs(I-12
I1139
tp1092
g0
(g9
g2
Ntp1093
Rp1094
(dp1095
g13
I01
sg14
F-0.8322977547808779
sg15
g1092
sbs(I-19
I1139
tp1096
g0
(g9
g2
Ntp1097
Rp1098
(dp1099
g13
I01
sg14
F-0.2615755013352172
sg15
g1096
sbs(I-2
I1135
tp1100
g0
(g9
g2
Ntp1101
Rp1102
(dp1103
g13
I01
sg14
F1.3662960486671072
sg15
g1100
sbs(I-15
I1136
tp1104
g0
(g9
g2
Ntp1105
Rp1106
(dp1107
g13
I01
sg14
F0.3746486504486217
sg15
g1104
sbs(I-1
I1138
tp1108
g0
(g9
g2
Ntp1109
Rp1110
(dp1111
g13
I01
sg14
F0.5110136669671222
sg15
g1108
sbs(I-9
I1144
tp1112
g0
(g9
g2
Ntp1113
Rp1114
(dp1115
g13
I01
sg14
F1.494753049481242
sg15
g1112
sbs(I-12
I1134
tp1116
g0
(g9
g2
Ntp1117
Rp1118
(dp1119
g13
I01
sg14
F-0.556737171145755
sg15
g1116
sbs(I1133
I0
tp1120
g0
(g9
g2
Ntp1121
Rp1122
(dp1123
g13
I01
sg14
F-1.5545829361075991
sg15
g1120
sbs(I-16
I1137
tp1124
g0
(g9
g2
Ntp1125
Rp1126
(dp1127
g13
I01
sg14
F0.22253762508357833
sg15
g1124
sbs(I1136
I1
tp1128
g0
(g9
g2
Ntp1129
Rp1130
(dp1131
g13
I01
sg14
F0.37499046823101684
sg15
g1128
sbs(I1144
I0
tp1132
g0
(g9
g2
Ntp1133
Rp1134
(dp1135
g13
I01
sg14
F0.30535022400538453
sg15
g1132
sbs(I-3
I1138
tp1136
g0
(g9
g2
Ntp1137
Rp1138
(dp1139
g13
I01
sg14
F-2.093279840948702
sg15
g1136
sbs(I-6
I1140
tp1140
g0
(g9
g2
Ntp1141
Rp1142
(dp1143
g13
I01
sg14
F0.8866809633335722
sg15
g1140
sbs(I-5
I1134
tp1144
g0
(g9
g2
Ntp1145
Rp1146
(dp1147
g13
I01
sg14
F0.788316794119834
sg15
g1144
sbs(I1141
I1
tp1148
g0
(g9
g2
Ntp1149
Rp1150
(dp1151
g13
I01
sg14
F-0.15747632444557472
sg15
g1148
sbs(I-15
I1134
tp1152
g0
(g9
g2
Ntp1153
Rp1154
(dp1155
g13
I01
sg14
F2.054466124618066
sg15
g1152
sbs(I-4
I1143
tp1156
g0
(g9
g2
Ntp1157
Rp1158
(dp1159
g13
I01
sg14
F1.3532223861816084
sg15
g1156
sbs(I1141
I2
tp1160
g0
(g9
g2
Ntp1161
Rp1162
(dp1163
g13
I01
sg14
F-1.8134972831291387
sg15
g1160
sbs(I-1
I1144
tp1164
g0
(g9
g2
Ntp1165
Rp1166
(dp1167
g13
I01
sg14
F1.0704475003170486
sg15
g1164
sbs(I1143
I3
tp1168
g0
(g9
g2
Ntp1169
Rp1170
(dp1171
g13
I01
sg14
F-0.602746589906261
sg15
g1168
sbs(I-20
I1133
tp1172
g0
(g9
g2
Ntp1173
Rp1174
(dp1175
g13
I01
sg14
F-1.4814273829935292
sg15
g1172
sbs(I1138
I0
tp1176
g0
(g9
g2
Ntp1177
Rp1178
(dp1179
g13
I01
sg14
F-0.16622703422303783
sg15
g1176
sbs(I-19
I1134
tp1180
g0
(g9
g2
Ntp1181
Rp1182
(dp1183
g13
I01
sg14
F0.36930283736231706
sg15
g1180
sbs(I-18
I1134
tp1184
g0
(g9
g2
Ntp1185
Rp1186
(dp1187
g13
I01
sg14
F-0.6733453137549877
sg15
g1184
sbs(I-4
I1133
tp1188
g0
(g9
g2
Ntp1189
Rp1190
(dp1191
g13
I01
sg14
F1.7376271682001598
sg15
g1188
sbs(I-11
I1137
tp1192
g0
(g9
g2
Ntp1193
Rp1194
(dp1195
g13
I01
sg14
F-0.07085447156126948
sg15
g1192
sbs(I-7
I1142
tp1196
g0
(g9
g2
Ntp1197
Rp1198
(dp1199
g13
I01
sg14
F-0.562949612480573
sg15
g1196
sbs(I-2
I1144
tp1200
g0
(g9
g2
Ntp1201
Rp1202
(dp1203
g13
I01
sg14
F0.22117387234403116
sg15
g1200
sbs(I-9
I1138
tp1204
g0
(g9
g2
Ntp1205
Rp1206
(dp1207
g13
I01
sg14
F-0.9283134491746738
sg15
g1204
sbs(I-12
I1136
tp1208
g0
(g9
g2
Ntp1209
Rp1210
(dp1211
g13
I01
sg14
F-1.2228916272580668
sg15
g1208
sbssS'nodes'
p1212
(dp1213
I0
g0
(cneat.genes
DefaultNodeGene
p1214
g2
Ntp1215
Rp1216
(dp1217
S'activation'
p1218
S'tanh'
p1219
sS'bias'
p1220
F-0.8766594769012078
sS'response'
p1221
F1.0
sg15
I0
sS'aggregation'
p1222
S'sum'
p1223
sbsI1
g0
(g1214
g2
Ntp1224
Rp1225
(dp1226
g1218
g1219
sg1220
F-0.9380086640971153
sg1221
F1.0
sg15
I1
sg1222
g1223
sbsI2
g0
(g1214
g2
Ntp1227
Rp1228
(dp1229
g1218
g1219
sg1220
F1.1190423284182527
sg1221
F1.0
sg15
I2
sg1222
g1223
sbsI3
g0
(g1214
g2
Ntp1230
Rp1231
(dp1232
g1218
g1219
sg1220
F-0.10371241776555415
sg1221
F1.0
sg15
I3
sg1222
g1223
sbsI4
g0
(g1214
g2
Ntp1233
Rp1234
(dp1235
g1218
g1219
sg1220
F0.2983633899793996
sg1221
F1.0
sg15
I4
sg1222
g1223
sbsI1133
g0
(g1214
g2
Ntp1236
Rp1237
(dp1238
g1218
g1219
sg1220
F1.7314626021250172
sg1221
F1.0
sg15
I1133
sg1222
g1223
sbsI1134
g0
(g1214
g2
Ntp1239
Rp1240
(dp1241
g1218
g1219
sg1220
F0.10999591565355256
sg1221
F1.0
sg15
I1134
sg1222
g1223
sbsI1135
g0
(g1214
g2
Ntp1242
Rp1243
(dp1244
g1218
g1219
sg1220
F0.548984675305489
sg1221
F1.0
sg15
I1135
sg1222
g1223
sbsI1136
g0
(g1214
g2
Ntp1245
Rp1246
(dp1247
g1218
g1219
sg1220
F-0.8253891987994257
sg1221
F1.0
sg15
I1136
sg1222
g1223
sbsI1137
g0
(g1214
g2
Ntp1248
Rp1249
(dp1250
g1218
g1219
sg1220
F-0.6827865306968262
sg1221
F1.0
sg15
I1137
sg1222
g1223
sbsI1138
g0
(g1214
g2
Ntp1251
Rp1252
(dp1253
g1218
g1219
sg1220
F1.4228079625177912
sg1221
F1.0
sg15
I1138
sg1222
g1223
sbsI1139
g0
(g1214
g2
Ntp1254
Rp1255
(dp1256
g1218
g1219
sg1220
F-1.425791740176219
sg1221
F1.0
sg15
I1139
sg1222
g1223
sbsI1140
g0
(g1214
g2
Ntp1257
Rp1258
(dp1259
g1218
g1219
sg1220
F-1.6004115480882444
sg1221
F1.0
sg15
I1140
sg1222
g1223
sbsI1141
g0
(g1214
g2
Ntp1260
Rp1261
(dp1262
g1218
g1219
sg1220
F-2.119763629280872
sg1221
F1.0
sg15
I1141
sg1222
g1223
sbsI1142
g0
(g1214
g2
Ntp1263
Rp1264
(dp1265
g1218
g1219
sg1220
F1.2648263358102505
sg1221
F1.0
sg15
I1142
sg1222
g1223
sbsI1143
g0
(g1214
g2
Ntp1266
Rp1267
(dp1268
g1218
g1219
sg1220
F-1.1148793407640745
sg1221
F1.0
sg15
I1143
sg1222
g1223
sbsI1144
g0
(g1214
g2
Ntp1269
Rp1270
(dp1271
g1218
g1219
sg1220
F-0.3066706772445172
sg1221
F1.0
sg15
I1144
sg1222
g1223
sbssg15
I95
sS'fitness'
p1272
F76.0
sb.