ccopy_reg
_reconstructor
p0
(cneat.genome
DefaultGenome
p1
c__builtin__
object
p2
Ntp3
Rp4
(dp5
S'connections'
p6
(dp7
(I-6
I501
tp8
g0
(cneat.genes
DefaultConnectionGene
p9
g2
Ntp10
Rp11
(dp12
S'enabled'
p13
I01
sS'weight'
p14
F-0.38718408080315286
sS'key'
p15
g8
sbs(I-12
I505
tp16
g0
(g9
g2
Ntp17
Rp18
(dp19
g13
I01
sg14
F0.23265433323592094
sg15
g16
sbs(I-11
I501
tp20
g0
(g9
g2
Ntp21
Rp22
(dp23
g13
I01
sg14
F-0.04437967519344734
sg15
g20
sbs(I-16
I504
tp24
g0
(g9
g2
Ntp25
Rp26
(dp27
g13
I01
sg14
F-0.07402360724216835
sg15
g24
sbs(I-8
I508
tp28
g0
(g9
g2
Ntp29
Rp30
(dp31
g13
I01
sg14
F-0.5514299079459772
sg15
g28
sbs(I-7
I498
tp32
g0
(g9
g2
Ntp33
Rp34
(dp35
g13
I01
sg14
F-0.8943126123633691
sg15
g32
sbs(I-14
I504
tp36
g0
(g9
g2
Ntp37
Rp38
(dp39
g13
I01
sg14
F-1.6623820315056304
sg15
g36
sbs(I-13
I506
tp40
g0
(g9
g2
Ntp41
Rp42
(dp43
g13
I01
sg14
F1.1683776668900991
sg15
g40
sbs(I-12
I500
tp44
g0
(g9
g2
Ntp45
Rp46
(dp47
g13
I01
sg14
F-0.1413749484614322
sg15
g44
sbs(I-19
I506
tp48
g0
(g9
g2
Ntp49
Rp50
(dp51
g13
I01
sg14
F0.22663438822269089
sg15
g48
sbs(I-18
I504
tp52
g0
(g9
g2
Ntp53
Rp54
(dp55
g13
I01
sg14
F-0.330849312586829
sg15
g52
sbs(I-16
I503
tp56
g0
(g9
g2
Ntp57
Rp58
(dp59
g13
I01
sg14
F-1.7983994208026859
sg15
g56
sbs(I497
I2
tp60
g0
(g9
g2
Ntp61
Rp62
(dp63
g13
I01
sg14
F-0.7619023780609522
sg15
g60
sbs(I-16
I506
tp64
g0
(g9
g2
Ntp65
Rp66
(dp67
g13
I01
sg14
F0.4463624551571727
sg15
g64
sbs(I-17
I499
tp68
g0
(g9
g2
Ntp69
Rp70
(dp71
g13
I01
sg14
F-0.3716854486806316
sg15
g68
sbs(I504
I1
tp72
g0
(g9
g2
Ntp73
Rp74
(dp75
g13
I01
sg14
F-0.05372374981668515
sg15
g72
sbs(I-3
I505
tp76
g0
(g9
g2
Ntp77
Rp78
(dp79
g13
I01
sg14
F0.09600979285614253
sg15
g76
sbs(I-2
I505
tp80
g0
(g9
g2
Ntp81
Rp82
(dp83
g13
I01
sg14
F0.10726442250113852
sg15
g80
sbs(I500
I4
tp84
g0
(g9
g2
Ntp85
Rp86
(dp87
g13
I01
sg14
F0.2662922801255272
sg15
g84
sbs(I-5
I502
tp88
g0
(g9
g2
Ntp89
Rp90
(dp91
g13
I01
sg14
F0.30563354014070704
sg15
g88
sbs(I-4
I504
tp92
g0
(g9
g2
Ntp93
Rp94
(dp95
g13
I01
sg14
F-0.9895664690309894
sg15
g92
sbs(I502
I3
tp96
g0
(g9
g2
Ntp97
Rp98
(dp99
g13
I01
sg14
F1.1857921435717609
sg15
g96
sbs(I-10
I500
tp100
g0
(g9
g2
Ntp101
Rp102
(dp103
g13
I01
sg14
F-1.1239356581697288
sg15
g100
sbs(I-2
I498
tp104
g0
(g9
g2
Ntp105
Rp106
(dp107
g13
I01
sg14
F0.2802141234362686
sg15
g104
sbs(I-6
I507
tp108
g0
(g9
g2
Ntp109
Rp110
(dp111
g13
I01
sg14
F-0.5901298700673676
sg15
g108
sbs(I-5
I507
tp112
g0
(g9
g2
Ntp113
Rp114
(dp115
g13
I01
sg14
F-0.7638952200626274
sg15
g112
sbs(I-11
I507
tp116
g0
(g9
g2
Ntp117
Rp118
(dp119
g13
I01
sg14
F-1.509908116108368
sg15
g116
sbs(I-10
I507
tp120
g0
(g9
g2
Ntp121
Rp122
(dp123
g13
I01
sg14
F0.7965833153498181
sg15
g120
sbs(I-7
I504
tp124
g0
(g9
g2
Ntp125
Rp126
(dp127
g13
I01
sg14
F-0.1448959609014003
sg15
g124
sbs(I-6
I502
tp128
g0
(g9
g2
Ntp129
Rp130
(dp131
g13
I01
sg14
F-0.32169702077546103
sg15
g128
sbs(I499
I2
tp132
g0
(g9
g2
Ntp133
Rp134
(dp135
g13
I01
sg14
F-0.0486140203770885
sg15
g132
sbs(I-8
I505
tp136
g0
(g9
g2
Ntp137
Rp138
(dp139
g13
I01
sg14
F-0.20945229122280892
sg15
g136
sbs(I-15
I501
tp140
g0
(g9
g2
Ntp141
Rp142
(dp143
g13
I01
sg14
F0.4097686460553575
sg15
g140
sbs(I-13
I505
tp144
g0
(g9
g2
Ntp145
Rp146
(dp147
g13
I01
sg14
F-0.15610363181980802
sg15
g144
sbs(I-20
I497
tp148
g0
(g9
g2
Ntp149
Rp150
(dp151
g13
I01
sg14
F-1.3745434053487995
sg15
g148
sbs(I-18
I501
tp152
g0
(g9
g2
Ntp153
Rp154
(dp155
g13
I01
sg14
F1.6809088426217444
sg15
g152
sbs(I-2
I500
tp156
g0
(g9
g2
Ntp157
Rp158
(dp159
g13
I01
sg14
F0.4597181689663592
sg15
g156
sbs(I-15
I506
tp160
g0
(g9
g2
Ntp161
Rp162
(dp163
g13
I01
sg14
F-0.7633238292154657
sg15
g160
sbs(I-20
I508
tp164
g0
(g9
g2
Ntp165
Rp166
(dp167
g13
I01
sg14
F-0.4688665875656266
sg15
g164
sbs(I-4
I498
tp168
g0
(g9
g2
Ntp169
Rp170
(dp171
g13
I01
sg14
F-0.4616265484622188
sg15
g168
sbs(I-3
I508
tp172
g0
(g9
g2
Ntp173
Rp174
(dp175
g13
I01
sg14
F0.20840992133404304
sg15
g172
sbs(I-2
I506
tp176
g0
(g9
g2
Ntp177
Rp178
(dp179
g13
I01
sg14
F-0.013617295976690346
sg15
g176
sbs(I506
I1
tp180
g0
(g9
g2
Ntp181
Rp182
(dp183
g13
I01
sg14
F-0.09416221193009844
sg15
g180
sbs(I-5
I501
tp184
g0
(g9
g2
Ntp185
Rp186
(dp187
g13
I01
sg14
F-0.92241405209307
sg15
g184
sbs(I-10
I497
tp188
g0
(g9
g2
Ntp189
Rp190
(dp191
g13
I01
sg14
F-0.37983766127973967
sg15
g188
sbs(I-6
I508
tp192
g0
(g9
g2
Ntp193
Rp194
(dp195
g13
I01
sg14
F0.1956637807265126
sg15
g192
sbs(I501
I2
tp196
g0
(g9
g2
Ntp197
Rp198
(dp199
g13
I01
sg14
F1.526893768948223
sg15
g196
sbs(I-7
I507
tp200
g0
(g9
g2
Ntp201
Rp202
(dp203
g13
I01
sg14
F-0.09370003514693252
sg15
g200
sbs(I-14
I499
tp204
g0
(g9
g2
Ntp205
Rp206
(dp207
g13
I01
sg14
F-0.9453203524428635
sg15
g204
sbs(I-12
I499
tp208
g0
(g9
g2
Ntp209
Rp210
(dp211
g13
I01
sg14
F-1.4928704363247502
sg15
g208
sbs(I-19
I499
tp212
g0
(g9
g2
Ntp213
Rp214
(dp215
g13
I01
sg14
F-0.3815063825344666
sg15
g212
sbs(I-8
I502
tp216
g0
(g9
g2
Ntp217
Rp218
(dp219
g13
I01
sg14
F0.988537168394732
sg15
g216
sbs(I-13
I500
tp220
g0
(g9
g2
Ntp221
Rp222
(dp223
g13
I01
sg14
F1.3311718433674107
sg15
g220
sbs(I-20
I502
tp224
g0
(g9
g2
Ntp225
Rp226
(dp227
g13
I01
sg14
F-1.3436817074714307
sg15
g224
sbs(I-18
I502
tp228
g0
(g9
g2
Ntp229
Rp230
(dp231
g13
I01
sg14
F-1.3183411372026312
sg15
g228
sbs(I-16
I497
tp232
g0
(g9
g2
Ntp233
Rp234
(dp235
g13
I01
sg14
F-1.628611039538169
sg15
g232
sbs(I498
I0
tp236
g0
(g9
g2
Ntp237
Rp238
(dp239
g13
I01
sg14
F-0.07748986142070427
sg15
g236
sbs(I505
I3
tp240
g0
(g9
g2
Ntp241
Rp242
(dp243
g13
I01
sg14
F-0.17620655542597044
sg15
g240
sbs(I-3
I498
tp244
g0
(g9
g2
Ntp245
Rp246
(dp247
g13
I01
sg14
F0.8080067672376544
sg15
g244
sbs(I500
I3
tp248
g0
(g9
g2
Ntp249
Rp250
(dp251
g13
I01
sg14
F-0.6535959204503098
sg15
g248
sbs(I508
I2
tp252
g0
(g9
g2
Ntp253
Rp254
(dp255
g13
I01
sg14
F0.7500968005871195
sg15
g252
sbs(I-4
I503
tp256
g0
(g9
g2
Ntp257
Rp258
(dp259
g13
I01
sg14
F-0.6413624438585512
sg15
g256
sbs(I-2
I503
tp260
g0
(g9
g2
Ntp261
Rp262
(dp263
g13
I01
sg14
F-0.6524194038219538
sg15
g260
sbs(I-9
I503
tp264
g0
(g9
g2
Ntp265
Rp266
(dp267
g13
I01
sg14
F-1.278832639098255
sg15
g264
sbs(I506
I2
tp268
g0
(g9
g2
Ntp269
Rp270
(dp271
g13
I01
sg14
F-1.306340860839038
sg15
g268
sbs(I503
I3
tp272
g0
(g9
g2
Ntp273
Rp274
(dp275
g13
I01
sg14
F-1.7174365051747518
sg15
g272
sbs(I-10
I498
tp276
g0
(g9
g2
Ntp277
Rp278
(dp279
g13
I01
sg14
F-0.03266029074153644
sg15
g276
sbs(I508
I1
tp280
g0
(g9
g2
Ntp281
Rp282
(dp283
g13
I01
sg14
F-0.003536336922574957
sg15
g280
sbs(I-6
I497
tp284
g0
(g9
g2
Ntp285
Rp286
(dp287
g13
I01
sg14
F0.4100739541402341
sg15
g284
sbs(I-11
I497
tp288
g0
(g9
g2
Ntp289
Rp290
(dp291
g13
I01
sg14
F0.9054157404606529
sg15
g288
sbs(I-7
I502
tp292
g0
(g9
g2
Ntp293
Rp294
(dp295
g13
I01
sg14
F-0.17805217674135518
sg15
g292
sbs(I-14
I500
tp296
g0
(g9
g2
Ntp297
Rp298
(dp299
g13
I01
sg14
F0.18470284337010032
sg15
g296
sbs(I499
I3
tp300
g0
(g9
g2
Ntp301
Rp302
(dp303
g13
I01
sg14
F-0.7482867565276925
sg15
g300
sbs(I-19
I502
tp304
g0
(g9
g2
Ntp305
Rp306
(dp307
g13
I01
sg14
F-0.4745073825981993
sg15
g304
sbs(I-18
I508
tp308
g0
(g9
g2
Ntp309
Rp310
(dp311
g13
I01
sg14
F-0.47292849693375394
sg15
g308
sbs(I-8
I499
tp312
g0
(g9
g2
Ntp313
Rp314
(dp315
g13
I01
sg14
F0.14846138127656752
sg15
g312
sbs(I-15
I499
tp316
g0
(g9
g2
Ntp317
Rp318
(dp319
g13
I01
sg14
F1.6043982054575172
sg15
g316
sbs(I-13
I499
tp320
g0
(g9
g2
Ntp321
Rp322
(dp323
g13
I01
sg14
F0.1822440365922855
sg15
g320
sbs(I-20
I507
tp324
g0
(g9
g2
Ntp325
Rp326
(dp327
g13
I01
sg14
F2.9308905048630547
sg15
g324
sbs(I-18
I499
tp328
g0
(g9
g2
Ntp329
Rp330
(dp331
g13
I01
sg14
F0.49335334330651176
sg15
g328
sbs(I-1
I503
tp332
g0
(g9
g2
Ntp333
Rp334
(dp335
g13
I01
sg14
F-0.5144460791702445
sg15
g332
sbs(I-3
I501
tp336
g0
(g9
g2
Ntp337
Rp338
(dp339
g13
I01
sg14
F-0.289853440650937
sg15
g336
sbs(I500
I0
tp340
g0
(g9
g2
Ntp341
Rp342
(dp343
g13
I01
sg14
F0.093654169793709
sg15
g340
sbs(I505
I0
tp344
g0
(g9
g2
Ntp345
Rp346
(dp347
g13
I01
sg14
F-0.9144300949489355
sg15
g344
sbs(I-4
I500
tp348
g0
(g9
g2
Ntp349
Rp350
(dp351
g13
I01
sg14
F-1.6790245695721386
sg15
g348
sbs(I-9
I506
tp352
g0
(g9
g2
Ntp353
Rp354
(dp355
g13
I01
sg14
F-0.60286921570398
sg15
g352
sbs(I-1
I505
tp356
g0
(g9
g2
Ntp357
Rp358
(dp359
g13
I01
sg14
F-0.8907058013758365
sg15
g356
sbs(I-7
I508
tp360
g0
(g9
g2
Ntp361
Rp362
(dp363
g13
I01
sg14
F0.5663172778895996
sg15
g360
sbs(I-6
I498
tp364
g0
(g9
g2
Ntp365
Rp366
(dp367
g13
I01
sg14
F0.8609128866403661
sg15
g364
sbs(I-12
I506
tp368
g0
(g9
g2
Ntp369
Rp370
(dp371
g13
I01
sg14
F0.27940030818114847
sg15
g368
sbs(I-11
I500
tp372
g0
(g9
g2
Ntp373
Rp374
(dp375
g13
I01
sg14
F0.16139592693858282
sg15
g372
sbs(I-17
I504
tp376
g0
(g9
g2
Ntp377
Rp378
(dp379
g13
I01
sg14
F2.1060544511663895
sg15
g376
sbs(I-7
I497
tp380
g0
(g9
g2
Ntp381
Rp382
(dp383
g13
I01
sg14
F-0.33528358416158494
sg15
g380
sbs(I-14
I505
tp384
g0
(g9
g2
Ntp385
Rp386
(dp387
g13
I01
sg14
F-0.4167863559533074
sg15
g384
sbs(I-12
I501
tp388
g0
(g9
g2
Ntp389
Rp390
(dp391
g13
I01
sg14
F-0.6418887105116445
sg15
g388
sbs(I-19
I505
tp392
g0
(g9
g2
Ntp393
Rp394
(dp395
g13
I01
sg14
F-0.35516583171629973
sg15
g392
sbs(I-18
I505
tp396
g0
(g9
g2
Ntp397
Rp398
(dp399
g13
I01
sg14
F-0.888977579101416
sg15
g396
sbs(I-17
I501
tp400
g0
(g9
g2
Ntp401
Rp402
(dp403
g13
I01
sg14
F0.23162390685483336
sg15
g400
sbs(I497
I1
tp404
g0
(g9
g2
Ntp405
Rp406
(dp407
g13
I01
sg14
F0.9305288991671525
sg15
g404
sbs(I-20
I504
tp408
g0
(g9
g2
Ntp409
Rp410
(dp411
g13
I01
sg14
F1.1269138999738382
sg15
g408
sbs(I-16
I507
tp412
g0
(g9
g2
Ntp413
Rp414
(dp415
g13
I01
sg14
F1.7431399768455704
sg15
g412
sbs(I497
I3
tp416
g0
(g9
g2
Ntp417
Rp418
(dp419
g13
I01
sg14
F-1.1475129470282217
sg15
g416
sbs(I504
I2
tp420
g0
(g9
g2
Ntp421
Rp422
(dp423
g13
I01
sg14
F-1.4417681917031662
sg15
g420
sbs(I-3
I504
tp424
g0
(g9
g2
Ntp425
Rp426
(dp427
g13
I01
sg14
F0.2192685135659405
sg15
g424
sbs(I-17
I497
tp428
g0
(g9
g2
Ntp429
Rp430
(dp431
g13
I01
sg14
F-1.6421467308073299
sg15
g428
sbs(I-4
I505
tp432
g0
(g9
g2
Ntp433
Rp434
(dp435
g13
I01
sg14
F-0.7136565168008782
sg15
g432
sbs(I502
I0
tp436
g0
(g9
g2
Ntp437
Rp438
(dp439
g13
I01
sg14
F-0.18959177743152272
sg15
g436
sbs(I-10
I501
tp440
g0
(g9
g2
Ntp441
Rp442
(dp443
g13
I01
sg14
F-0.7448695984639625
sg15
g440
sbs(I-9
I505
tp444
g0
(g9
g2
Ntp445
Rp446
(dp447
g13
I01
sg14
F1.4425960071240924
sg15
g444
sbs(I507
I0
tp448
g0
(g9
g2
Ntp449
Rp450
(dp451
g13
I01
sg14
F1.437895099474575
sg15
g448
sbs(I-6
I504
tp452
g0
(g9
g2
Ntp453
Rp454
(dp455
g13
I01
sg14
F-0.5967501434123568
sg15
g452
sbs(I-5
I506
tp456
g0
(g9
g2
Ntp457
Rp458
(dp459
g13
I01
sg14
F0.8166084202702989
sg15
g456
sbs(I-11
I506
tp460
g0
(g9
g2
Ntp461
Rp462
(dp463
g13
I01
sg14
F0.3819635919717762
sg15
g460
sbs(I-10
I504
tp464
g0
(g9
g2
Ntp465
Rp466
(dp467
g13
I01
sg14
F-0.8271177969601121
sg15
g464
sbs(I-6
I503
tp468
g0
(g9
g2
Ntp469
Rp470
(dp471
g13
I01
sg14
F0.525869662461823
sg15
g468
sbs(I-11
I503
tp472
g0
(g9
g2
Ntp473
Rp474
(dp475
g13
I01
sg14
F1.1032413868331972
sg15
g472
sbs(I-8
I506
tp476
g0
(g9
g2
Ntp477
Rp478
(dp479
g13
I01
sg14
F-0.38991612875022713
sg15
g476
sbs(I-15
I500
tp480
g0
(g9
g2
Ntp481
Rp482
(dp483
g13
I01
sg14
F0.39924518312296414
sg15
g480
sbs(I-14
I506
tp484
g0
(g9
g2
Ntp485
Rp486
(dp487
g13
I01
sg14
F0.219649380715452
sg15
g484
sbs(I-13
I504
tp488
g0
(g9
g2
Ntp489
Rp490
(dp491
g13
I01
sg14
F0.08495500397953505
sg15
g488
sbs(I-20
I498
tp492
g0
(g9
g2
Ntp493
Rp494
(dp495
g13
I01
sg14
F0.36434937055703537
sg15
g492
sbs(I-19
I508
tp496
g0
(g9
g2
Ntp497
Rp498
(dp499
g13
I01
sg14
F-0.3583880888923955
sg15
g496
sbs(I-18
I506
tp500
g0
(g9
g2
Ntp501
Rp502
(dp503
g13
I01
sg14
F-1.4278547727545112
sg15
g500
sbs(I-16
I501
tp504
g0
(g9
g2
Ntp505
Rp506
(dp507
g13
I01
sg14
F0.7817217531753649
sg15
g504
sbs(I-15
I505
tp508
g0
(g9
g2
Ntp509
Rp510
(dp511
g13
I01
sg14
F0.09310656828373212
sg15
g508
sbs(I-8
I504
tp512
g0
(g9
g2
Ntp513
Rp514
(dp515
g13
I01
sg14
F-1.792111816018689
sg15
g512
sbs(I-1
I502
tp516
g0
(g9
g2
Ntp517
Rp518
(dp519
g13
I01
sg14
F-0.35012451673811845
sg15
g516
sbs(I501
I1
tp520
g0
(g9
g2
Ntp521
Rp522
(dp523
g13
I01
sg14
F0.5206369537943305
sg15
g520
sbs(I-4
I499
tp524
g0
(g9
g2
Ntp525
Rp526
(dp527
g13
I01
sg14
F1.522834022353171
sg15
g524
sbs(I-3
I507
tp528
g0
(g9
g2
Ntp529
Rp530
(dp531
g13
I01
sg14
F0.6027241600901885
sg15
g528
sbs(I-2
I507
tp532
g0
(g9
g2
Ntp533
Rp534
(dp535
g13
I01
sg14
F0.4806719708583154
sg15
g532
sbs(I-9
I499
tp536
g0
(g9
g2
Ntp537
Rp538
(dp539
g13
I01
sg14
F1.1082585367799418
sg15
g536
sbs(I-5
I500
tp540
g0
(g9
g2
Ntp541
Rp542
(dp543
g13
I01
sg14
F-1.4866578586152552
sg15
g540
sbs(I-10
I502
tp544
g0
(g9
g2
Ntp545
Rp546
(dp547
g13
I01
sg14
F-0.09206155946158645
sg15
g544
sbs(I-9
I508
tp548
g0
(g9
g2
Ntp549
Rp550
(dp551
g13
I01
sg14
F0.3375998506395023
sg15
g548
sbs(I-5
I505
tp552
g0
(g9
g2
Ntp553
Rp554
(dp555
g13
I01
sg14
F-0.5060928217766536
sg15
g552
sbs(I501
I0
tp556
g0
(g9
g2
Ntp557
Rp558
(dp559
g13
I01
sg14
F-0.3206860124918086
sg15
g556
sbs(I-2
I504
tp560
g0
(g9
g2
Ntp561
Rp562
(dp563
g13
I01
sg14
F-0.6855735616937952
sg15
g560
sbs(I-7
I506
tp564
g0
(g9
g2
Ntp565
Rp566
(dp567
g13
I01
sg14
F0.9171877307013132
sg15
g564
sbs(I-12
I508
tp568
g0
(g9
g2
Ntp569
Rp570
(dp571
g13
I01
sg14
F0.6394999823040024
sg15
g568
sbs(I-19
I498
tp572
g0
(g9
g2
Ntp573
Rp574
(dp575
g13
I01
sg14
F-0.323171716854428
sg15
g572
sbs(I499
I1
tp576
g0
(g9
g2
Ntp577
Rp578
(dp579
g13
I01
sg14
F-0.6963624132419312
sg15
g576
sbs(I-8
I503
tp580
g0
(g9
g2
Ntp581
Rp582
(dp583
g13
I01
sg14
F0.968014722743545
sg15
g580
sbs(I-15
I503
tp584
g0
(g9
g2
Ntp585
Rp586
(dp587
g13
I01
sg14
F-0.17954896500364217
sg15
g584
sbs(I-13
I503
tp588
g0
(g9
g2
Ntp589
Rp590
(dp591
g13
I01
sg14
F-0.4559409916269046
sg15
g588
sbs(I-20
I503
tp592
g0
(g9
g2
Ntp593
Rp594
(dp595
g13
I01
sg14
F0.5180075659907575
sg15
g592
sbs(I-18
I503
tp596
g0
(g9
g2
Ntp597
Rp598
(dp599
g13
I01
sg14
F-1.5530609909629969
sg15
g596
sbs(I-16
I498
tp600
g0
(g9
g2
Ntp601
Rp602
(dp603
g13
I01
sg14
F0.9431773772438787
sg15
g600
sbs(I498
I1
tp604
g0
(g9
g2
Ntp605
Rp606
(dp607
g13
I01
sg14
F-0.061428266933862656
sg15
g604
sbs(I-3
I497
tp608
g0
(g9
g2
Ntp609
Rp610
(dp611
g13
I01
sg14
F1.0053962877612448
sg15
g608
sbs(I505
I4
tp612
g0
(g9
g2
Ntp613
Rp614
(dp615
g13
I01
sg14
F-0.4780226864990804
sg15
g612
sbs(I-1
I500
tp616
g0
(g9
g2
Ntp617
Rp618
(dp619
g13
I01
sg14
F0.22482140100981246
sg15
g616
sbs(I-9
I502
tp620
g0
(g9
g2
Ntp621
Rp622
(dp623
g13
I01
sg14
F1.0771544383718528
sg15
g620
sbs(I506
I3
tp624
g0
(g9
g2
Ntp625
Rp626
(dp627
g13
I01
sg14
F-0.1145036492826623
sg15
g624
sbs(I-5
I499
tp628
g0
(g9
g2
Ntp629
Rp630
(dp631
g13
I01
sg14
F-0.5505137956287829
sg15
g628
sbs(I503
I2
tp632
g0
(g9
g2
Ntp633
Rp634
(dp635
g13
I01
sg14
F1.8817259386173772
sg15
g632
sbs(I-10
I499
tp636
g0
(g9
g2
Ntp637
Rp638
(dp639
g13
I01
sg14
F-0.40074951557585936
sg15
g636
sbs(I499
I0
tp640
g0
(g9
g2
Ntp641
Rp642
(dp643
g13
I01
sg14
F-1.4044562020023472
sg15
g640
sbs(I502
I2
tp644
g0
(g9
g2
Ntp645
Rp646
(dp647
g13
I01
sg14
F0.5136245487418846
sg15
g644
sbs(I-7
I501
tp648
g0
(g9
g2
Ntp649
Rp650
(dp651
g13
I01
sg14
F1.157468108675549
sg15
g648
sbs(I-14
I501
tp652
g0
(g9
g2
Ntp653
Rp654
(dp655
g13
I01
sg14
F1.7710048959969162
sg15
g652
sbs(I-12
I497
tp656
g0
(g9
g2
Ntp657
Rp658
(dp659
g13
I01
sg14
F-0.1159456396539036
sg15
g656
sbs(I-19
I501
tp660
g0
(g9
g2
Ntp661
Rp662
(dp663
g13
I01
sg14
F-0.4334507470862666
sg15
g660
sbs(I-17
I507
tp664
g0
(g9
g2
Ntp665
Rp666
(dp667
g13
I01
sg14
F0.4806102864480901
sg15
g664
sbs(I-8
I500
tp668
g0
(g9
g2
Ntp669
Rp670
(dp671
g13
I01
sg14
F0.20115290357144244
sg15
g668
sbs(I-15
I498
tp672
g0
(g9
g2
Ntp673
Rp674
(dp675
g13
I01
sg14
F0.7906340338565359
sg15
g672
sbs(I-17
I508
tp676
g0
(g9
g2
Ntp677
Rp678
(dp679
g13
I01
sg14
F1.055522448408258
sg15
g676
sbs(I-13
I498
tp680
g0
(g9
g2
Ntp681
Rp682
(dp683
g13
I01
sg14
F-0.3025464611824574
sg15
g680
sbs(I-16
I500
tp684
g0
(g9
g2
Ntp685
Rp686
(dp687
g13
I01
sg14
F0.3639101843268961
sg15
g684
sbs(I-17
I502
tp688
g0
(g9
g2
Ntp689
Rp690
(dp691
g13
I01
sg14
F-1.226806847689366
sg15
g688
sbs(I498
I2
tp692
g0
(g9
g2
Ntp693
Rp694
(dp695
g13
I01
sg14
F-0.984769910557584
sg15
g692
sbs(I-3
I500
tp696
g0
(g9
g2
Ntp697
Rp698
(dp699
g13
I01
sg14
F0.18846577731680067
sg15
g696
sbs(I500
I1
tp700
g0
(g9
g2
Ntp701
Rp702
(dp703
g13
I01
sg14
F-1.0238341408914515
sg15
g700
sbs(I-2
I497
tp704
g0
(g9
g2
Ntp705
Rp706
(dp707
g13
I01
sg14
F0.6895937744371445
sg15
g704
sbs(I-4
I501
tp708
g0
(g9
g2
Ntp709
Rp710
(dp711
g13
I01
sg14
F1.3088570113174773
sg15
g708
sbs(I502
I4
tp712
g0
(g9
g2
Ntp713
Rp714
(dp715
g13
I01
sg14
F0.7950408387843738
sg15
g712
sbs(I-1
I497
tp716
g0
(g9
g2
Ntp717
Rp718
(dp719
g13
I01
sg14
F1.1652341427016062
sg15
g716
sbs(I-9
I501
tp720
g0
(g9
g2
Ntp721
Rp722
(dp723
g13
I01
sg14
F1.0089452137743629
sg15
g720
sbs(I507
I4
tp724
g0
(g9
g2
Ntp725
Rp726
(dp727
g13
I01
sg14
F-1.1342316331625133
sg15
g724
sbs(I506
I4
tp728
g0
(g9
g2
Ntp729
Rp730
(dp731
g13
I01
sg14
F0.07909882757694858
sg15
g728
sbs(I503
I1
tp732
g0
(g9
g2
Ntp733
Rp734
(dp735
g13
I01
sg14
F-0.4546373232379103
sg15
g732
sbs(I-10
I508
tp736
g0
(g9
g2
Ntp737
Rp738
(dp739
g13
I01
sg14
F-1.3571512590742376
sg15
g736
sbs(I501
I4
tp740
g0
(g9
g2
Ntp741
Rp742
(dp743
g13
I01
sg14
F1.253170050845392
sg15
g740
sbs(I-6
I499
tp744
g0
(g9
g2
Ntp745
Rp746
(dp747
g13
I01
sg14
F1.391722775844114
sg15
g744
sbs(I-12
I507
tp748
g0
(g9
g2
Ntp749
Rp750
(dp751
g13
I01
sg14
F1.138696861135511
sg15
g748
sbs(I-11
I499
tp752
g0
(g9
g2
Ntp753
Rp754
(dp755
g13
I01
sg14
F0.7563288184451078
sg15
g752
sbs(I-1
I507
tp756
g0
(g9
g2
Ntp757
Rp758
(dp759
g13
I01
sg14
F-0.24285659965733458
sg15
g756
sbs(I-14
I502
tp760
g0
(g9
g2
Ntp761
Rp762
(dp763
g13
I01
sg14
F0.6399053737183688
sg15
g760
sbs(I-13
I508
tp764
g0
(g9
g2
Ntp765
Rp766
(dp767
g13
I01
sg14
F-0.08050431440636774
sg15
g764
sbs(I-12
I502
tp768
g0
(g9
g2
Ntp769
Rp770
(dp771
g13
I01
sg14
F-0.8113004651459745
sg15
g768
sbs(I-19
I504
tp772
g0
(g9
g2
Ntp773
Rp774
(dp775
g13
I01
sg14
F-1.0952453477977104
sg15
g772
sbs(I-8
I497
tp776
g0
(g9
g2
Ntp777
Rp778
(dp779
g13
I01
sg14
F0.6153660498949671
sg15
g776
sbs(I497
I0
tp780
g0
(g9
g2
Ntp781
Rp782
(dp783
g13
I01
sg14
F0.7409521556666763
sg15
g780
sbs(I-13
I497
tp784
g0
(g9
g2
Ntp785
Rp786
(dp787
g13
I01
sg14
F0.2277830819103936
sg15
g784
sbs(I-20
I505
tp788
g0
(g9
g2
Ntp789
Rp790
(dp791
g13
I01
sg14
F-1.8897549917890228
sg15
g788
sbs(I-16
I508
tp792
g0
(g9
g2
Ntp793
Rp794
(dp795
g13
I01
sg14
F-0.4192985190763497
sg15
g792
sbs(I504
I3
tp796
g0
(g9
g2
Ntp797
Rp798
(dp799
g13
I01
sg14
F-2.7196214650827963
sg15
g796
sbs(I-3
I503
tp800
g0
(g9
g2
Ntp801
Rp802
(dp803
g13
I01
sg14
F0.9859631357033802
sg15
g800
sbs(I505
I2
tp804
g0
(g9
g2
Ntp805
Rp806
(dp807
g13
I01
sg14
F-0.08016774225774914
sg15
g804
sbs(I-4
I506
tp808
g0
(g9
g2
Ntp809
Rp810
(dp811
g13
I01
sg14
F-0.3121232981155609
sg15
g808
sbs(I502
I1
tp812
g0
(g9
g2
Ntp813
Rp814
(dp815
g13
I01
sg14
F-1.6548920677947614
sg15
g812
sbs(I-1
I498
tp816
g0
(g9
g2
Ntp817
Rp818
(dp819
g13
I01
sg14
F-0.79875720307627
sg15
g816
sbs(I-9
I504
tp820
g0
(g9
g2
Ntp821
Rp822
(dp823
g13
I01
sg14
F0.7825034985002565
sg15
g820
sbs(I507
I3
tp824
g0
(g9
g2
Ntp825
Rp826
(dp827
g13
I01
sg14
F-0.16537081010227236
sg15
g824
sbs(I-6
I505
tp828
g0
(g9
g2
Ntp829
Rp830
(dp831
g13
I01
sg14
F1.1511181081424726
sg15
g828
sbs(I-17
I503
tp832
g0
(g9
g2
Ntp833
Rp834
(dp835
g13
I01
sg14
F0.6922958382641228
sg15
g832
sbs(I503
I4
tp836
g0
(g9
g2
Ntp837
Rp838
(dp839
g13
I01
sg14
F-1.141028265504933
sg15
g836
sbs(I-11
I505
tp840
g0
(g9
g2
Ntp841
Rp842
(dp843
g13
I01
sg14
F-0.04296011410462876
sg15
g840
sbs(I-10
I505
tp844
g0
(g9
g2
Ntp845
Rp846
(dp847
g13
I01
sg14
F0.27098101709529376
sg15
g844
sbs(I508
I4
tp848
g0
(g9
g2
Ntp849
Rp850
(dp851
g13
I01
sg14
F-1.2625544357076357
sg15
g848
sbs(I-6
I500
tp852
g0
(g9
g2
Ntp853
Rp854
(dp855
g13
I01
sg14
F1.6642456703629178
sg15
g852
sbs(I-12
I504
tp856
g0
(g9
g2
Ntp857
Rp858
(dp859
g13
I01
sg14
F0.5330069592917573
sg15
g856
sbs(I-11
I502
tp860
g0
(g9
g2
Ntp861
Rp862
(dp863
g13
I01
sg14
F2.3107599238715575
sg15
g860
sbs(I-8
I507
tp864
g0
(g9
g2
Ntp865
Rp866
(dp867
g13
I01
sg14
F-0.03439711961608017
sg15
g864
sbs(I-7
I499
tp868
g0
(g9
g2
Ntp869
Rp870
(dp871
g13
I01
sg14
F-0.48117177041727954
sg15
g868
sbs(I-14
I507
tp872
g0
(g9
g2
Ntp873
Rp874
(dp875
g13
I01
sg14
F-1.1310554094519214
sg15
g872
sbs(I-13
I507
tp876
g0
(g9
g2
Ntp877
Rp878
(dp879
g13
I01
sg14
F0.1121221321569993
sg15
g876
sbs(I-20
I499
tp880
g0
(g9
g2
Ntp881
Rp882
(dp883
g13
I01
sg14
F-1.1783511508489903
sg15
g880
sbs(I-19
I507
tp884
g0
(g9
g2
Ntp885
Rp886
(dp887
g13
I01
sg14
F-0.4371069642848998
sg15
g884
sbs(I-18
I507
tp888
g0
(g9
g2
Ntp889
Rp890
(dp891
g13
I01
sg14
F0.9959372349178388
sg15
g888
sbs(I-16
I502
tp892
g0
(g9
g2
Ntp893
Rp894
(dp895
g13
I01
sg14
F-0.206713474310671
sg15
g892
sbs(I-15
I504
tp896
g0
(g9
g2
Ntp897
Rp898
(dp899
g13
I01
sg14
F-0.17134106071666513
sg15
g896
sbs(I-1
I508
tp900
g0
(g9
g2
Ntp901
Rp902
(dp903
g13
I01
sg14
F0.1685387036974586
sg15
g900
sbs(I-16
I505
tp904
g0
(g9
g2
Ntp905
Rp906
(dp907
g13
I01
sg14
F-0.354737326562669
sg15
g904
sbs(I504
I0
tp908
g0
(g9
g2
Ntp909
Rp910
(dp911
g13
I01
sg14
F0.5472772856519916
sg15
g908
sbs(I-3
I506
tp912
g0
(g9
g2
Ntp913
Rp914
(dp915
g13
I01
sg14
F1.5385184750546719
sg15
g912
sbs(I-1
I504
tp916
g0
(g9
g2
Ntp917
Rp918
(dp919
g13
I01
sg14
F0.32889461462653263
sg15
g916
sbs(I-9
I498
tp920
g0
(g9
g2
Ntp921
Rp922
(dp923
g13
I01
sg14
F2.2245821515708926
sg15
g920
sbs(I-5
I503
tp924
g0
(g9
g2
Ntp925
Rp926
(dp927
g13
I01
sg14
F-0.28317922580259486
sg15
g924
sbs(I-18
I498
tp928
g0
(g9
g2
Ntp929
Rp930
(dp931
g13
I01
sg14
F0.08276091861198463
sg15
g928
sbs(I-10
I503
tp932
g0
(g9
g2
Ntp933
Rp934
(dp935
g13
I01
sg14
F-0.8080568193912799
sg15
g932
sbs(I-6
I506
tp936
g0
(g9
g2
Ntp937
Rp938
(dp939
g13
I01
sg14
F0.4227209308698063
sg15
g936
sbs(I-5
I504
tp940
g0
(g9
g2
Ntp941
Rp942
(dp943
g13
I01
sg14
F1.577745912269674
sg15
g940
sbs(I-11
I508
tp944
g0
(g9
g2
Ntp945
Rp946
(dp947
g13
I01
sg14
F0.001043155355415997
sg15
g944
sbs(I-10
I506
tp948
g0
(g9
g2
Ntp949
Rp950
(dp951
g13
I01
sg14
F0.409489244028917
sg15
g948
sbs(I-7
I505
tp952
g0
(g9
g2
Ntp953
Rp954
(dp955
g13
I01
sg14
F0.02796587163917503
sg15
g952
sbs(I-14
I497
tp956
g0
(g9
g2
Ntp957
Rp958
(dp959
g13
I01
sg14
F-0.4159353875117244
sg15
g956
sbs(I-19
I497
tp960
g0
(g9
g2
Ntp961
Rp962
(dp963
g13
I01
sg14
F-0.8204450831640401
sg15
g960
sbs(I-1
I506
tp964
g0
(g9
g2
Ntp965
Rp966
(dp967
g13
I01
sg14
F0.00734287882129393
sg15
g964
sbs(I-15
I502
tp968
g0
(g9
g2
Ntp969
Rp970
(dp971
g13
I01
sg14
F0.769052202797031
sg15
g968
sbs(I-14
I508
tp972
g0
(g9
g2
Ntp973
Rp974
(dp975
g13
I01
sg14
F1.4091113901009604
sg15
g972
sbs(I-13
I502
tp976
g0
(g9
g2
Ntp977
Rp978
(dp979
g13
I01
sg14
F-0.15181376872909652
sg15
g976
sbs(I-18
I500
tp980
g0
(g9
g2
Ntp981
Rp982
(dp983
g13
I01
sg14
F0.7378551339607249
sg15
g980
sbs(I-16
I499
tp984
g0
(g9
g2
Ntp985
Rp986
(dp987
g13
I01
sg14
F0.6892734259557317
sg15
g984
sbs(I-15
I507
tp988
g0
(g9
g2
Ntp989
Rp990
(dp991
g13
I01
sg14
F0.3845315594388427
sg15
g988
sbs(I-4
I497
tp992
g0
(g9
g2
Ntp993
Rp994
(dp995
g13
I01
sg14
F0.038400080699921006
sg15
g992
sbs(I-1
I501
tp996
g0
(g9
g2
Ntp997
Rp998
(dp999
g13
I01
sg14
F-0.583768046996429
sg15
g996
sbs(I-2
I501
tp1000
g0
(g9
g2
Ntp1001
Rp1002
(dp1003
g13
I01
sg14
F-2.437963897240393
sg15
g1000
sbs(I-20
I500
tp1004
g0
(g9
g2
Ntp1005
Rp1006
(dp1007
g13
I01
sg14
F2.0673908634067444
sg15
g1004
sbs(I-5
I498
tp1008
g0
(g9
g2
Ntp1009
Rp1010
(dp1011
g13
I01
sg14
F-0.08454545129095972
sg15
g1008
sbs(I-4
I508
tp1012
g0
(g9
g2
Ntp1013
Rp1014
(dp1015
g13
I01
sg14
F1.379972614328731
sg15
g1012
sbs(I508
I3
tp1016
g0
(g9
g2
Ntp1017
Rp1018
(dp1019
g13
I01
sg14
F0.09185524867698994
sg15
g1016
sbs(I-17
I500
tp1020
g0
(g9
g2
Ntp1021
Rp1022
(dp1023
g13
I01
sg14
F1.7919637468093106
sg15
g1020
sbs(I-17
I505
tp1024
g0
(g9
g2
Ntp1025
Rp1026
(dp1027
g13
I01
sg14
F0.18493898452972204
sg15
g1024
sbs(I-7
I500
tp1028
g0
(g9
g2
Ntp1029
Rp1030
(dp1031
g13
I01
sg14
F-0.010213910048814858
sg15
g1028
sbs(I-14
I498
tp1032
g0
(g9
g2
Ntp1033
Rp1034
(dp1035
g13
I01
sg14
F1.4690827252781216
sg15
g1032
sbs(I-12
I498
tp1036
g0
(g9
g2
Ntp1037
Rp1038
(dp1039
g13
I01
sg14
F-0.7682902360483471
sg15
g1036
sbs(I-19
I500
tp1040
g0
(g9
g2
Ntp1041
Rp1042
(dp1043
g13
I01
sg14
F-1.3550180564026388
sg15
g1040
sbs(I-8
I501
tp1044
g0
(g9
g2
Ntp1045
Rp1046
(dp1047
g13
I01
sg14
F-0.21025686933327903
sg15
g1044
sbs(I-15
I497
tp1048
g0
(g9
g2
Ntp1049
Rp1050
(dp1051
g13
I01
sg14
F1.8497578826479626
sg15
g1048
sbs(I497
I4
tp1052
g0
(g9
g2
Ntp1053
Rp1054
(dp1055
g13
I01
sg14
F-0.24721785848013228
sg15
g1052
sbs(I-13
I501
tp1056
g0
(g9
g2
Ntp1057
Rp1058
(dp1059
g13
I01
sg14
F1.3407997344017957
sg15
g1056
sbs(I-20
I501
tp1060
g0
(g9
g2
Ntp1061
Rp1062
(dp1063
g13
I01
sg14
F-0.5604915040732418
sg15
g1060
sbs(I-18
I497
tp1064
g0
(g9
g2
Ntp1065
Rp1066
(dp1067
g13
I01
sg14
F-0.1126108334165452
sg15
g1064
sbs(I498
I3
tp1068
g0
(g9
g2
Ntp1069
Rp1070
(dp1071
g13
I01
sg14
F1.4599785546009947
sg15
g1068
sbs(I-17
I498
tp1072
g0
(g9
g2
Ntp1073
Rp1074
(dp1075
g13
I01
sg14
F0.8589286281719843
sg15
g1072
sbs(I501
I3
tp1076
g0
(g9
g2
Ntp1077
Rp1078
(dp1079
g13
I01
sg14
F-0.8428533060368291
sg15
g1076
sbs(I-3
I499
tp1080
g0
(g9
g2
Ntp1081
Rp1082
(dp1083
g13
I01
sg14
F0.3994845866595445
sg15
g1080
sbs(I500
I2
tp1084
g0
(g9
g2
Ntp1085
Rp1086
(dp1087
g13
I01
sg14
F0.15273198135166427
sg15
g1084
sbs(I-4
I502
tp1088
g0
(g9
g2
Ntp1089
Rp1090
(dp1091
g13
I01
sg14
F-0.1290816153808157
sg15
g1088
sbs(I-2
I502
tp1092
g0
(g9
g2
Ntp1093
Rp1094
(dp1095
g13
I01
sg14
F0.02372699717023978
sg15
g1092
sbs(I-9
I500
tp1096
g0
(g9
g2
Ntp1097
Rp1098
(dp1099
g13
I01
sg14
F0.8020911419682738
sg15
g1096
sbs(I-2
I499
tp1100
g0
(g9
g2
Ntp1101
Rp1102
(dp1103
g13
I01
sg14
F0.9381715385438923
sg15
g1100
sbs(I-5
I497
tp1104
g0
(g9
g2
Ntp1105
Rp1106
(dp1107
g13
I01
sg14
F-1.4855106212491438
sg15
g1104
sbs(I503
I0
tp1108
g0
(g9
g2
Ntp1109
Rp1110
(dp1111
g13
I01
sg14
F1.4985341390267588
sg15
g1108
sbs(I508
I0
tp1112
g0
(g9
g2
Ntp1113
Rp1114
(dp1115
g13
I01
sg14
F-0.892993541232414
sg15
g1112
sbs(I-11
I498
tp1116
g0
(g9
g2
Ntp1117
Rp1118
(dp1119
g13
I01
sg14
F0.5607453804192516
sg15
g1116
sbs(I-17
I506
tp1120
g0
(g9
g2
Ntp1121
Rp1122
(dp1123
g13
I01
sg14
F0.8382784115735415
sg15
g1120
sbs(I-7
I503
tp1124
g0
(g9
g2
Ntp1125
Rp1126
(dp1127
g13
I01
sg14
F-0.08288087127228046
sg15
g1124
sbs(I-14
I503
tp1128
g0
(g9
g2
Ntp1129
Rp1130
(dp1131
g13
I01
sg14
F-0.25739137580594207
sg15
g1128
sbs(I-12
I503
tp1132
g0
(g9
g2
Ntp1133
Rp1134
(dp1135
g13
I01
sg14
F0.5570693882170225
sg15
g1132
sbs(I-19
I503
tp1136
g0
(g9
g2
Ntp1137
Rp1138
(dp1139
g13
I01
sg14
F-0.3524987361724527
sg15
g1136
sbs(I-8
I498
tp1140
g0
(g9
g2
Ntp1141
Rp1142
(dp1143
g13
I01
sg14
F0.4143628552819713
sg15
g1140
sbs(I-15
I508
tp1144
g0
(g9
g2
Ntp1145
Rp1146
(dp1147
g13
I01
sg14
F0.4388485746307047
sg15
g1144
sbs(I-20
I506
tp1148
g0
(g9
g2
Ntp1149
Rp1150
(dp1151
g13
I01
sg14
F1.31948102863659
sg15
g1148
sbs(I-9
I497
tp1152
g0
(g9
g2
Ntp1153
Rp1154
(dp1155
g13
I01
sg14
F-1.4477971010360713
sg15
g1152
sbs(I499
I4
tp1156
g0
(g9
g2
Ntp1157
Rp1158
(dp1159
g13
I01
sg14
F0.28449392824950986
sg15
g1156
sbs(I498
I4
tp1160
g0
(g9
g2
Ntp1161
Rp1162
(dp1163
g13
I01
sg14
F1.0228937278626338
sg15
g1160
sbs(I507
I1
tp1164
g0
(g9
g2
Ntp1165
Rp1166
(dp1167
g13
I01
sg14
F-0.5216935806203777
sg15
g1164
sbs(I504
I4
tp1168
g0
(g9
g2
Ntp1169
Rp1170
(dp1171
g13
I01
sg14
F-1.3022409916482462
sg15
g1168
sbs(I-3
I502
tp1172
g0
(g9
g2
Ntp1173
Rp1174
(dp1175
g13
I01
sg14
F0.39886424399025444
sg15
g1172
sbs(I-2
I508
tp1176
g0
(g9
g2
Ntp1177
Rp1178
(dp1179
g13
I01
sg14
F0.029676136380094476
sg15
g1176
sbs(I505
I1
tp1180
g0
(g9
g2
Ntp1181
Rp1182
(dp1183
g13
I01
sg14
F-0.10777910154079084
sg15
g1180
sbs(I-4
I507
tp1184
g0
(g9
g2
Ntp1185
Rp1186
(dp1187
g13
I01
sg14
F-0.8685065900973157
sg15
g1184
sbs(I506
I0
tp1188
g0
(g9
g2
Ntp1189
Rp1190
(dp1191
g13
I01
sg14
F0.1648756218865478
sg15
g1188
sbs(I-1
I499
tp1192
g0
(g9
g2
Ntp1193
Rp1194
(dp1195
g13
I01
sg14
F2.8463385268516594
sg15
g1192
sbs(I-9
I507
tp1196
g0
(g9
g2
Ntp1197
Rp1198
(dp1199
g13
I01
sg14
F1.2148738454023325
sg15
g1196
sbs(I507
I2
tp1200
g0
(g9
g2
Ntp1201
Rp1202
(dp1203
g13
I01
sg14
F-1.9031805847517296
sg15
g1200
sbs(I-5
I508
tp1204
g0
(g9
g2
Ntp1205
Rp1206
(dp1207
g13
I01
sg14
F0.5936767120543
sg15
g1204
sbs(I-11
I504
tp1208
g0
(g9
g2
Ntp1209
Rp1210
(dp1211
g13
I01
sg14
F-0.03699709649867975
sg15
g1208
sbssS'nodes'
p1212
(dp1213
I0
g0
(cneat.genes
DefaultNodeGene
p1214
g2
Ntp1215
Rp1216
(dp1217
S'activation'
p1218
S'tanh'
p1219
sS'bias'
p1220
F0.6398842944054934
sS'response'
p1221
F1.0
sg15
I0
sS'aggregation'
p1222
S'sum'
p1223
sbsI1
g0
(g1214
g2
Ntp1224
Rp1225
(dp1226
g1218
g1219
sg1220
F0.4871876901157175
sg1221
F1.0
sg15
I1
sg1222
g1223
sbsI2
g0
(g1214
g2
Ntp1227
Rp1228
(dp1229
g1218
g1219
sg1220
F-0.7454652134866797
sg1221
F1.0
sg15
I2
sg1222
g1223
sbsI3
g0
(g1214
g2
Ntp1230
Rp1231
(dp1232
g1218
g1219
sg1220
F-1.0103408997838226
sg1221
F1.0
sg15
I3
sg1222
g1223
sbsI4
g0
(g1214
g2
Ntp1233
Rp1234
(dp1235
g1218
g1219
sg1220
F1.0469143366169311
sg1221
F1.0
sg15
I4
sg1222
g1223
sbsI497
g0
(g1214
g2
Ntp1236
Rp1237
(dp1238
g1218
g1219
sg1220
F-1.0176014441458814
sg1221
F1.0
sg15
I497
sg1222
g1223
sbsI498
g0
(g1214
g2
Ntp1239
Rp1240
(dp1241
g1218
g1219
sg1220
F-0.27340924973731484
sg1221
F1.0
sg15
I498
sg1222
g1223
sbsI499
g0
(g1214
g2
Ntp1242
Rp1243
(dp1244
g1218
g1219
sg1220
F-2.124656613288385
sg1221
F1.0
sg15
I499
sg1222
g1223
sbsI500
g0
(g1214
g2
Ntp1245
Rp1246
(dp1247
g1218
g1219
sg1220
F0.030056643514599787
sg1221
F1.0
sg15
I500
sg1222
g1223
sbsI501
g0
(g1214
g2
Ntp1248
Rp1249
(dp1250
g1218
g1219
sg1220
F0.7427735339647176
sg1221
F1.0
sg15
I501
sg1222
g1223
sbsI502
g0
(g1214
g2
Ntp1251
Rp1252
(dp1253
g1218
g1219
sg1220
F-1.8719148376021428
sg1221
F1.0
sg15
I502
sg1222
g1223
sbsI503
g0
(g1214
g2
Ntp1254
Rp1255
(dp1256
g1218
g1219
sg1220
F0.43541354662150633
sg1221
F1.0
sg15
I503
sg1222
g1223
sbsI504
g0
(g1214
g2
Ntp1257
Rp1258
(dp1259
g1218
g1219
sg1220
F-0.7261574850031194
sg1221
F1.0
sg15
I504
sg1222
g1223
sbsI505
g0
(g1214
g2
Ntp1260
Rp1261
(dp1262
g1218
g1219
sg1220
F0.7132173088513232
sg1221
F1.0
sg15
I505
sg1222
g1223
sbsI506
g0
(g1214
g2
Ntp1263
Rp1264
(dp1265
g1218
g1219
sg1220
F1.2593441638320535
sg1221
F1.0
sg15
I506
sg1222
g1223
sbsI507
g0
(g1214
g2
Ntp1266
Rp1267
(dp1268
g1218
g1219
sg1220
F-1.7362506779544762
sg1221
F1.0
sg15
I507
sg1222
g1223
sbsI508
g0
(g1214
g2
Ntp1269
Rp1270
(dp1271
g1218
g1219
sg1220
F-0.2818747276453356
sg1221
F1.0
sg15
I508
sg1222
g1223
sbssg15
I42
sS'fitness'
p1272
F38.0
sb.