ccopy_reg
_reconstructor
p0
(cneat.genome
DefaultGenome
p1
c__builtin__
object
p2
Ntp3
Rp4
(dp5
S'connections'
p6
(dp7
(I-1
I0
tp8
g0
(cneat.genes
DefaultConnectionGene
p9
g2
Ntp10
Rp11
(dp12
S'enabled'
p13
I01
sS'weight'
p14
F0.13373018239368334
sS'key'
p15
g8
sbs(I-16
I3
tp16
g0
(g9
g2
Ntp17
Rp18
(dp19
g13
I01
sg14
F-1.9106160105525185
sg15
g16
sbs(I-15
I2
tp20
g0
(g9
g2
Ntp21
Rp22
(dp23
g13
I01
sg14
F0.15667958872620752
sg15
g20
sbs(I-18
I1
tp24
g0
(g9
g2
Ntp25
Rp26
(dp27
g13
I01
sg14
F0.8789784751974965
sg15
g24
sbs(I-13
I3
tp28
g0
(g9
g2
Ntp29
Rp30
(dp31
g13
I01
sg14
F-0.294527498750269
sg15
g28
sbs(I-8
I1
tp32
g0
(g9
g2
Ntp33
Rp34
(dp35
g13
I01
sg14
F1.5114056044727473
sg15
g32
sbs(I-12
I4
tp36
g0
(g9
g2
Ntp37
Rp38
(dp39
g13
I01
sg14
F-1.0735388963710364
sg15
g36
sbs(I-2
I0
tp40
g0
(g9
g2
Ntp41
Rp42
(dp43
g13
I01
sg14
F0.1489639773255135
sg15
g40
sbs(I-10
I3
tp44
g0
(g9
g2
Ntp45
Rp46
(dp47
g13
I01
sg14
F1.42224834573559
sg15
g44
sbs(I-5
I1
tp48
g0
(g9
g2
Ntp49
Rp50
(dp51
g13
I01
sg14
F0.01036919378476238
sg15
g48
sbs(I-16
I0
tp52
g0
(g9
g2
Ntp53
Rp54
(dp55
g13
I01
sg14
F-2.625346673664927
sg15
g52
sbs(I-18
I2
tp56
g0
(g9
g2
Ntp57
Rp58
(dp59
g13
I01
sg14
F-0.454506469011342
sg15
g56
sbs(I-6
I1
tp60
g0
(g9
g2
Ntp61
Rp62
(dp63
g13
I01
sg14
F2.0346359927149384
sg15
g60
sbs(I-3
I1
tp64
g0
(g9
g2
Ntp65
Rp66
(dp67
g13
I01
sg14
F-0.7349379225536251
sg15
g64
sbs(I-19
I0
tp68
g0
(g9
g2
Ntp69
Rp70
(dp71
g13
I01
sg14
F-1.0049529103372845
sg15
g68
sbs(I-14
I0
tp72
g0
(g9
g2
Ntp73
Rp74
(dp75
g13
I01
sg14
F-0.13488341762985787
sg15
g72
sbs(I-12
I3
tp76
g0
(g9
g2
Ntp77
Rp78
(dp79
g13
I01
sg14
F-1.04791262233198
sg15
g76
sbs(I-11
I2
tp80
g0
(g9
g2
Ntp81
Rp82
(dp83
g13
I01
sg14
F-0.9914673260007613
sg15
g80
sbs(I-6
I2
tp84
g0
(g9
g2
Ntp85
Rp86
(dp87
g13
I01
sg14
F0.2635862670995894
sg15
g84
sbs(I-9
I3
tp88
g0
(g9
g2
Ntp89
Rp90
(dp91
g13
I01
sg14
F0.2527627564887366
sg15
g88
sbs(I-4
I1
tp92
g0
(g9
g2
Ntp93
Rp94
(dp95
g13
I01
sg14
F0.8703116130974684
sg15
g92
sbs(I-1
I4
tp96
g0
(g9
g2
Ntp97
Rp98
(dp99
g13
I01
sg14
F0.06789874593183907
sg15
g96
sbs(I-3
I4
tp100
g0
(g9
g2
Ntp101
Rp102
(dp103
g13
I01
sg14
F-0.2680563637518903
sg15
g100
sbs(I-20
I2
tp104
g0
(g9
g2
Ntp105
Rp106
(dp107
g13
I01
sg14
F0.5671863537232111
sg15
g104
sbs(I-19
I3
tp108
g0
(g9
g2
Ntp109
Rp110
(dp111
g13
I01
sg14
F-0.8874150468991351
sg15
g108
sbs(I-17
I0
tp112
g0
(g9
g2
Ntp113
Rp114
(dp115
g13
I01
sg14
F0.3201538006236626
sg15
g112
sbs(I-12
I0
tp116
g0
(g9
g2
Ntp117
Rp118
(dp119
g13
I01
sg14
F1.1078611887031005
sg15
g116
sbs(I-17
I4
tp120
g0
(g9
g2
Ntp121
Rp122
(dp123
g13
I01
sg14
F0.6472006331837236
sg15
g120
sbs(I-7
I0
tp124
g0
(g9
g2
Ntp125
Rp126
(dp127
g13
I01
sg14
F-1.1053182918262405
sg15
g124
sbs(I-2
I3
tp128
g0
(g9
g2
Ntp129
Rp130
(dp131
g13
I01
sg14
F0.9268136027837689
sg15
g128
sbs(I-1
I1
tp132
g0
(g9
g2
Ntp133
Rp134
(dp135
g13
I01
sg14
F-0.18033980367024957
sg15
g132
sbs(I-16
I4
tp136
g0
(g9
g2
Ntp137
Rp138
(dp139
g13
I01
sg14
F0.9557134707416168
sg15
g136
sbs(I-15
I1
tp140
g0
(g9
g2
Ntp141
Rp142
(dp143
g13
I01
sg14
F-1.5795126713133674
sg15
g140
sbs(I-13
I2
tp144
g0
(g9
g2
Ntp145
Rp146
(dp147
g13
I01
sg14
F-1.1167776695126166
sg15
g144
sbs(I-8
I2
tp148
g0
(g9
g2
Ntp149
Rp150
(dp151
g13
I01
sg14
F0.4012149539383078
sg15
g148
sbs(I-7
I3
tp152
g0
(g9
g2
Ntp153
Rp154
(dp155
g13
I01
sg14
F-1.439936900916782
sg15
g152
sbs(I-10
I0
tp156
g0
(g9
g2
Ntp157
Rp158
(dp159
g13
I01
sg14
F2.2104900843470396
sg15
g156
sbs(I-5
I0
tp160
g0
(g9
g2
Ntp161
Rp162
(dp163
g13
I01
sg14
F-0.34451903774097403
sg15
g160
sbs(I-2
I2
tp164
g0
(g9
g2
Ntp165
Rp166
(dp167
g13
I01
sg14
F0.08658460761842636
sg15
g164
sbs(I-1
I2
tp168
g0
(g9
g2
Ntp169
Rp170
(dp171
g13
I01
sg14
F1.007159293854225
sg15
g168
sbs(I-16
I1
tp172
g0
(g9
g2
Ntp173
Rp174
(dp175
g13
I01
sg14
F-0.6387884219268612
sg15
g172
sbs(I-20
I4
tp176
g0
(g9
g2
Ntp177
Rp178
(dp179
g13
I01
sg14
F-0.28090163258573203
sg15
g176
sbs(I-2
I4
tp180
g0
(g9
g2
Ntp181
Rp182
(dp183
g13
I01
sg14
F0.9420793051951701
sg15
g180
sbs(I-18
I3
tp184
g0
(g9
g2
Ntp185
Rp186
(dp187
g13
I01
sg14
F-0.16943341348256344
sg15
g184
sbs(I-13
I1
tp188
g0
(g9
g2
Ntp189
Rp190
(dp191
g13
I01
sg14
F-0.19466068008841778
sg15
g188
sbs(I-3
I0
tp192
g0
(g9
g2
Ntp193
Rp194
(dp195
g13
I01
sg14
F-0.38209556984331317
sg15
g192
sbs(I-14
I1
tp196
g0
(g9
g2
Ntp197
Rp198
(dp199
g13
I01
sg14
F-0.3882966491913245
sg15
g196
sbs(I-7
I4
tp200
g0
(g9
g2
Ntp201
Rp202
(dp203
g13
I01
sg14
F-0.08113944144578954
sg15
g200
sbs(I-11
I1
tp204
g0
(g9
g2
Ntp205
Rp206
(dp207
g13
I01
sg14
F0.2778985320184494
sg15
g204
sbs(I-6
I3
tp208
g0
(g9
g2
Ntp209
Rp210
(dp211
g13
I01
sg14
F1.7407141578941983
sg15
g208
sbs(I-9
I2
tp212
g0
(g9
g2
Ntp213
Rp214
(dp215
g13
I01
sg14
F-0.02941007713452127
sg15
g212
sbs(I-4
I2
tp216
g0
(g9
g2
Ntp217
Rp218
(dp219
g13
I01
sg14
F-0.2842492193200395
sg15
g216
sbs(I-3
I3
tp220
g0
(g9
g2
Ntp221
Rp222
(dp223
g13
I01
sg14
F-0.07985542788049117
sg15
g220
sbs(I-20
I3
tp224
g0
(g9
g2
Ntp225
Rp226
(dp227
g13
I01
sg14
F-0.2641760483941621
sg15
g224
sbs(I-19
I2
tp228
g0
(g9
g2
Ntp229
Rp230
(dp231
g13
I01
sg14
F-0.6258228261986238
sg15
g228
sbs(I-14
I2
tp232
g0
(g9
g2
Ntp233
Rp234
(dp235
g13
I01
sg14
F0.30807274308557714
sg15
g232
sbs(I-17
I3
tp236
g0
(g9
g2
Ntp237
Rp238
(dp239
g13
I01
sg14
F-0.24743183379277178
sg15
g236
sbs(I-12
I1
tp240
g0
(g9
g2
Ntp241
Rp242
(dp243
g13
I01
sg14
F-0.3654847136888009
sg15
g240
sbs(I-10
I4
tp244
g0
(g9
g2
Ntp245
Rp246
(dp247
g13
I01
sg14
F0.8959811522194423
sg15
g244
sbs(I-11
I4
tp248
g0
(g9
g2
Ntp249
Rp250
(dp251
g13
I01
sg14
F-0.024039509961144685
sg15
g248
sbs(I-5
I4
tp252
g0
(g9
g2
Ntp253
Rp254
(dp255
g13
I01
sg14
F1.3386589116550425
sg15
g252
sbs(I-6
I4
tp256
g0
(g9
g2
Ntp257
Rp258
(dp259
g13
I01
sg14
F0.40025769736907385
sg15
g256
sbs(I-9
I1
tp260
g0
(g9
g2
Ntp261
Rp262
(dp263
g13
I01
sg14
F-0.5622557687915826
sg15
g260
sbs(I-20
I0
tp264
g0
(g9
g2
Ntp265
Rp266
(dp267
g13
I01
sg14
F-0.6707347652632047
sg15
g264
sbs(I-15
I0
tp268
g0
(g9
g2
Ntp269
Rp270
(dp271
g13
I01
sg14
F-0.8169230958790132
sg15
g268
sbs(I-8
I3
tp272
g0
(g9
g2
Ntp273
Rp274
(dp275
g13
I01
sg14
F0.10041039599859583
sg15
g272
sbs(I-7
I2
tp276
g0
(g9
g2
Ntp277
Rp278
(dp279
g13
I01
sg14
F1.436360576642053
sg15
g276
sbs(I-10
I1
tp280
g0
(g9
g2
Ntp281
Rp282
(dp283
g13
I01
sg14
F-1.2317678664435583
sg15
g280
sbs(I-5
I3
tp284
g0
(g9
g2
Ntp285
Rp286
(dp287
g13
I01
sg14
F-0.1252051208388345
sg15
g284
sbs(I-9
I4
tp288
g0
(g9
g2
Ntp289
Rp290
(dp291
g13
I01
sg14
F-0.0005265954354924962
sg15
g288
sbs(I-4
I4
tp292
g0
(g9
g2
Ntp293
Rp294
(dp295
g13
I01
sg14
F-0.19799271011005148
sg15
g292
sbs(I-1
I3
tp296
g0
(g9
g2
Ntp297
Rp298
(dp299
g13
I01
sg14
F0.5270354695364018
sg15
g296
sbs(I-16
I2
tp300
g0
(g9
g2
Ntp301
Rp302
(dp303
g13
I01
sg14
F-0.08278639821843527
sg15
g300
sbs(I-15
I3
tp304
g0
(g9
g2
Ntp305
Rp306
(dp307
g13
I01
sg14
F2.288952295264068
sg15
g304
sbs(I-18
I0
tp308
g0
(g9
g2
Ntp309
Rp310
(dp311
g13
I01
sg14
F0.7533807883143538
sg15
g308
sbs(I-13
I0
tp312
g0
(g9
g2
Ntp313
Rp314
(dp315
g13
I01
sg14
F1.0446911524447193
sg15
g312
sbs(I-8
I0
tp316
g0
(g9
g2
Ntp317
Rp318
(dp319
g13
I01
sg14
F-0.9564033789165141
sg15
g316
sbs(I-10
I2
tp320
g0
(g9
g2
Ntp321
Rp322
(dp323
g13
I01
sg14
F-1.0203784559534719
sg15
g320
sbs(I-17
I1
tp324
g0
(g9
g2
Ntp325
Rp326
(dp327
g13
I01
sg14
F0.2943655958668677
sg15
g324
sbs(I-11
I0
tp328
g0
(g9
g2
Ntp329
Rp330
(dp331
g13
I01
sg14
F-1.5910868929575253
sg15
g328
sbs(I-6
I0
tp332
g0
(g9
g2
Ntp333
Rp334
(dp335
g13
I01
sg14
F-0.5880880811080067
sg15
g332
sbs(I-4
I3
tp336
g0
(g9
g2
Ntp337
Rp338
(dp339
g13
I01
sg14
F0.41022487149972303
sg15
g336
sbs(I-3
I2
tp340
g0
(g9
g2
Ntp341
Rp342
(dp343
g13
I01
sg14
F-1.5611398661894558
sg15
g340
sbs(I-15
I4
tp344
g0
(g9
g2
Ntp345
Rp346
(dp347
g13
I01
sg14
F0.13756764275687416
sg15
g344
sbs(I-19
I1
tp348
g0
(g9
g2
Ntp349
Rp350
(dp351
g13
I01
sg14
F-0.5111853946179219
sg15
g348
sbs(I-14
I3
tp352
g0
(g9
g2
Ntp353
Rp354
(dp355
g13
I01
sg14
F-0.4843727500713316
sg15
g352
sbs(I-17
I2
tp356
g0
(g9
g2
Ntp357
Rp358
(dp359
g13
I01
sg14
F-1.1913270107647742
sg15
g356
sbs(I-12
I2
tp360
g0
(g9
g2
Ntp361
Rp362
(dp363
g13
I01
sg14
F0.5610523354186856
sg15
g360
sbs(I-2
I1
tp364
g0
(g9
g2
Ntp365
Rp366
(dp367
g13
I01
sg14
F-0.6217138733361939
sg15
g364
sbs(I-11
I3
tp368
g0
(g9
g2
Ntp369
Rp370
(dp371
g13
I01
sg14
F0.9803472305001143
sg15
g368
sbs(I-9
I0
tp372
g0
(g9
g2
Ntp373
Rp374
(dp375
g13
I01
sg14
F0.099057145827564
sg15
g372
sbs(I-4
I0
tp376
g0
(g9
g2
Ntp377
Rp378
(dp379
g13
I01
sg14
F0.41441003281729405
sg15
g376
sbs(I-20
I1
tp380
g0
(g9
g2
Ntp381
Rp382
(dp383
g13
I01
sg14
F0.24893694480016962
sg15
g380
sbs(I-18
I4
tp384
g0
(g9
g2
Ntp385
Rp386
(dp387
g13
I01
sg14
F0.6264927327493852
sg15
g384
sbs(I-19
I4
tp388
g0
(g9
g2
Ntp389
Rp390
(dp391
g13
I01
sg14
F0.5904044114557835
sg15
g388
sbs(I-13
I4
tp392
g0
(g9
g2
Ntp393
Rp394
(dp395
g13
I01
sg14
F-1.329580928241764
sg15
g392
sbs(I-14
I4
tp396
g0
(g9
g2
Ntp397
Rp398
(dp399
g13
I01
sg14
F-0.952337360374567
sg15
g396
sbs(I-8
I4
tp400
g0
(g9
g2
Ntp401
Rp402
(dp403
g13
I01
sg14
F0.774722798459677
sg15
g400
sbs(I-7
I1
tp404
g0
(g9
g2
Ntp405
Rp406
(dp407
g13
I01
sg14
F0.15930218865901064
sg15
g404
sbs(I-5
I2
tp408
g0
(g9
g2
Ntp409
Rp410
(dp411
g13
I01
sg14
F-1.6818155960609635
sg15
g408
sbssS'nodes'
p412
(dp413
I0
g0
(cneat.genes
DefaultNodeGene
p414
g2
Ntp415
Rp416
(dp417
S'activation'
p418
S'tanh'
p419
sS'bias'
p420
F-0.9922940371777906
sS'response'
p421
F1.0
sg15
I0
sS'aggregation'
p422
S'sum'
p423
sbsI1
g0
(g414
g2
Ntp424
Rp425
(dp426
g418
g419
sg420
F1.0775425270041388
sg421
F1.0
sg15
I1
sg422
g423
sbsI2
g0
(g414
g2
Ntp427
Rp428
(dp429
g418
g419
sg420
F-0.07571149803222602
sg421
F1.0
sg15
I2
sg422
g423
sbsI3
g0
(g414
g2
Ntp430
Rp431
(dp432
g418
g419
sg420
F0.9427487709564758
sg421
F1.0
sg15
I3
sg422
g423
sbsI4
g0
(g414
g2
Ntp433
Rp434
(dp435
g418
g419
sg420
F-1.538951547273451
sg421
F1.0
sg15
I4
sg422
g423
sbssg15
I54
sS'fitness'
p436
F54.0
sb.