ccopy_reg
_reconstructor
p0
(cneat.genome
DefaultGenome
p1
c__builtin__
object
p2
Ntp3
Rp4
(dp5
S'connections'
p6
(dp7
(I-18
I459
tp8
g0
(cneat.genes
DefaultConnectionGene
p9
g2
Ntp10
Rp11
(dp12
S'enabled'
p13
I01
sS'weight'
p14
F0.558938351650638
sS'key'
p15
g8
sbs(I-13
I457
tp16
g0
(g9
g2
Ntp17
Rp18
(dp19
g13
I01
sg14
F1.2377356641669386
sg15
g16
sbs(I-3
I458
tp20
g0
(g9
g2
Ntp21
Rp22
(dp23
g13
I01
sg14
F0.9283797622753607
sg15
g20
sbs(I449
I4
tp24
g0
(g9
g2
Ntp25
Rp26
(dp27
g13
I01
sg14
F0.11609357721249743
sg15
g24
sbs(I-1
I456
tp28
g0
(g9
g2
Ntp29
Rp30
(dp31
g13
I01
sg14
F1.118957571461296
sg15
g28
sbs(I-14
I455
tp32
g0
(g9
g2
Ntp33
Rp34
(dp35
g13
I01
sg14
F1.3118741272772343
sg15
g32
sbs(I-5
I455
tp36
g0
(g9
g2
Ntp37
Rp38
(dp39
g13
I01
sg14
F0.6909905304962871
sg15
g36
sbs(I450
I3
tp40
g0
(g9
g2
Ntp41
Rp42
(dp43
g13
I01
sg14
F-2.5200485245169455
sg15
g40
sbs(I-15
I460
tp44
g0
(g9
g2
Ntp45
Rp46
(dp47
g13
I01
sg14
F-0.2539628164256644
sg15
g44
sbs(I-6
I458
tp48
g0
(g9
g2
Ntp49
Rp50
(dp51
g13
I01
sg14
F-0.6249947066696018
sg15
g48
sbs(I-5
I456
tp52
g0
(g9
g2
Ntp53
Rp54
(dp55
g13
I01
sg14
F1.4946972628547797
sg15
g52
sbs(I-19
I457
tp56
g0
(g9
g2
Ntp57
Rp58
(dp59
g13
I01
sg14
F-0.4156007850367256
sg15
g56
sbs(I-10
I449
tp60
g0
(g9
g2
Ntp61
Rp62
(dp63
g13
I01
sg14
F1.1737349369144345
sg15
g60
sbs(I-17
I449
tp64
g0
(g9
g2
Ntp65
Rp66
(dp67
g13
I01
sg14
F-2.2200404267368024
sg15
g64
sbs(I-7
I457
tp68
g0
(g9
g2
Ntp69
Rp70
(dp71
g13
I01
sg14
F1.2751593790022344
sg15
g68
sbs(I-15
I457
tp72
g0
(g9
g2
Ntp73
Rp74
(dp75
g13
I01
sg14
F-0.9203988548356736
sg15
g72
sbs(I453
I1
tp76
g0
(g9
g2
Ntp77
Rp78
(dp79
g13
I01
sg14
F2.0057294985039515
sg15
g76
sbs(I-1
I460
tp80
g0
(g9
g2
Ntp81
Rp82
(dp83
g13
I01
sg14
F0.5121239894785489
sg15
g80
sbs(I-8
I456
tp84
g0
(g9
g2
Ntp85
Rp86
(dp87
g13
I01
sg14
F-1.1564914777510527
sg15
g84
sbs(I455
I0
tp88
g0
(g9
g2
Ntp89
Rp90
(dp91
g13
I01
sg14
F-1.335096949996196
sg15
g88
sbs(I-12
I451
tp92
g0
(g9
g2
Ntp93
Rp94
(dp95
g13
I01
sg14
F0.7503474811519325
sg15
g92
sbs(I460
I0
tp96
g0
(g9
g2
Ntp97
Rp98
(dp99
g13
I01
sg14
F-2.051550940370326
sg15
g96
sbs(I-1
I451
tp100
g0
(g9
g2
Ntp101
Rp102
(dp103
g13
I01
sg14
F-0.88556158207147
sg15
g100
sbs(I-18
I452
tp104
g0
(g9
g2
Ntp105
Rp106
(dp107
g13
I01
sg14
F1.3514834107223017
sg15
g104
sbs(I-13
I452
tp108
g0
(g9
g2
Ntp109
Rp110
(dp111
g13
I01
sg14
F-0.21394611256508247
sg15
g108
sbs(I452
I2
tp112
g0
(g9
g2
Ntp113
Rp114
(dp115
g13
I01
sg14
F-1.228173754621652
sg15
g112
sbs(I-15
I451
tp116
g0
(g9
g2
Ntp117
Rp118
(dp119
g13
I01
sg14
F0.3481552386567211
sg15
g116
sbs(I-4
I449
tp120
g0
(g9
g2
Ntp121
Rp122
(dp123
g13
I01
sg14
F1.0272764852921843
sg15
g120
sbs(I-14
I456
tp124
g0
(g9
g2
Ntp125
Rp126
(dp127
g13
I01
sg14
F-0.28434521743302243
sg15
g124
sbs(I-5
I450
tp128
g0
(g9
g2
Ntp129
Rp130
(dp131
g13
I01
sg14
F-0.12676267356934798
sg15
g128
sbs(I-4
I460
tp132
g0
(g9
g2
Ntp133
Rp134
(dp135
g13
I01
sg14
F0.09374154470057938
sg15
g132
sbs(I451
I4
tp136
g0
(g9
g2
Ntp137
Rp138
(dp139
g13
I01
sg14
F-1.8086120816479812
sg15
g136
sbs(I-9
I455
tp140
g0
(g9
g2
Ntp141
Rp142
(dp143
g13
I01
sg14
F-1.5350909766876566
sg15
g140
sbs(I-16
I455
tp144
g0
(g9
g2
Ntp145
Rp146
(dp147
g13
I01
sg14
F1.3668060668823578
sg15
g144
sbs(I456
I4
tp148
g0
(g9
g2
Ntp149
Rp150
(dp151
g13
I01
sg14
F0.8517188024654272
sg15
g148
sbs(I-20
I450
tp152
g0
(g9
g2
Ntp153
Rp154
(dp155
g13
I01
sg14
F0.2267305331651054
sg15
g152
sbs(I-19
I460
tp156
g0
(g9
g2
Ntp157
Rp158
(dp159
g13
I01
sg14
F1.5863883507292913
sg15
g156
sbs(I-10
I450
tp160
g0
(g9
g2
Ntp161
Rp162
(dp163
g13
I01
sg14
F0.13906866542475388
sg15
g160
sbs(I-16
I458
tp164
g0
(g9
g2
Ntp165
Rp166
(dp167
g13
I01
sg14
F0.3644529121389908
sg15
g164
sbs(I-7
I452
tp168
g0
(g9
g2
Ntp169
Rp170
(dp171
g13
I01
sg14
F0.448383208811987
sg15
g168
sbs(I-15
I453
tp172
g0
(g9
g2
Ntp173
Rp174
(dp175
g13
I01
sg14
F-1.8038998804617103
sg15
g172
sbs(I-11
I449
tp176
g0
(g9
g2
Ntp177
Rp178
(dp179
g13
I01
sg14
F0.2896832849707953
sg15
g176
sbs(I-2
I457
tp180
g0
(g9
g2
Ntp181
Rp182
(dp183
g13
I01
sg14
F-0.24211710389840824
sg15
g180
sbs(I-8
I453
tp184
g0
(g9
g2
Ntp185
Rp186
(dp187
g13
I01
sg14
F0.9430674679677532
sg15
g184
sbs(I-2
I449
tp188
g0
(g9
g2
Ntp189
Rp190
(dp191
g13
I01
sg14
F0.5187421734223621
sg15
g188
sbs(I-18
I449
tp192
g0
(g9
g2
Ntp193
Rp194
(dp195
g13
I01
sg14
F-0.3418847337883175
sg15
g192
sbs(I456
I3
tp196
g0
(g9
g2
Ntp197
Rp198
(dp199
g13
I01
sg14
F-0.4415927244665163
sg15
g196
sbs(I456
I2
tp200
g0
(g9
g2
Ntp201
Rp202
(dp203
g13
I01
sg14
F0.769260760101436
sg15
g200
sbs(I-13
I451
tp204
g0
(g9
g2
Ntp205
Rp206
(dp207
g13
I01
sg14
F0.31219714180274083
sg15
g204
sbs(I-3
I451
tp208
g0
(g9
g2
Ntp209
Rp210
(dp211
g13
I01
sg14
F-0.35266498462852414
sg15
g208
sbs(I-4
I454
tp212
g0
(g9
g2
Ntp213
Rp214
(dp215
g13
I01
sg14
F-1.2755092778453803
sg15
g212
sbs(I449
I2
tp216
g0
(g9
g2
Ntp217
Rp218
(dp219
g13
I01
sg14
F-1.4218185897182076
sg15
g216
sbs(I-2
I459
tp220
g0
(g9
g2
Ntp221
Rp222
(dp223
g13
I01
sg14
F-0.8676998526541864
sg15
g220
sbs(I-5
I449
tp224
g0
(g9
g2
Ntp225
Rp226
(dp227
g13
I01
sg14
F-0.04984634955882276
sg15
g224
sbs(I-19
I450
tp228
g0
(g9
g2
Ntp229
Rp230
(dp231
g13
I01
sg14
F0.6322225062557874
sg15
g228
sbs(I451
I3
tp232
g0
(g9
g2
Ntp233
Rp234
(dp235
g13
I01
sg14
F0.7361481360947926
sg15
g232
sbs(I-9
I458
tp236
g0
(g9
g2
Ntp237
Rp238
(dp239
g13
I01
sg14
F0.6277590897140305
sg15
g236
sbs(I-16
I452
tp240
g0
(g9
g2
Ntp241
Rp242
(dp243
g13
I01
sg14
F-0.18784599274923222
sg15
g240
sbs(I-15
I458
tp244
g0
(g9
g2
Ntp245
Rp246
(dp247
g13
I01
sg14
F1.9295892682050924
sg15
g244
sbs(I453
I2
tp248
g0
(g9
g2
Ntp249
Rp250
(dp251
g13
I01
sg14
F0.09216091267191248
sg15
g248
sbs(I-20
I455
tp252
g0
(g9
g2
Ntp253
Rp254
(dp255
g13
I01
sg14
F0.20873158217578497
sg15
g252
sbs(I452
I4
tp256
g0
(g9
g2
Ntp257
Rp258
(dp259
g13
I01
sg14
F1.8569867457047775
sg15
g256
sbs(I-17
I454
tp260
g0
(g9
g2
Ntp261
Rp262
(dp263
g13
I01
sg14
F0.08574294427208659
sg15
g260
sbs(I-15
I459
tp264
g0
(g9
g2
Ntp265
Rp266
(dp267
g13
I01
sg14
F-0.6589099562509055
sg15
g264
sbs(I-7
I455
tp268
g0
(g9
g2
Ntp269
Rp270
(dp271
g13
I01
sg14
F1.359345602413912
sg15
g268
sbs(I454
I3
tp272
g0
(g9
g2
Ntp273
Rp274
(dp275
g13
I01
sg14
F0.9786994601088858
sg15
g272
sbs(I-12
I458
tp276
g0
(g9
g2
Ntp277
Rp278
(dp279
g13
I01
sg14
F-0.29381901414188316
sg15
g276
sbs(I-11
I452
tp280
g0
(g9
g2
Ntp281
Rp282
(dp283
g13
I01
sg14
F-0.6990950361828303
sg15
g280
sbs(I-1
I458
tp284
g0
(g9
g2
Ntp285
Rp286
(dp287
g13
I01
sg14
F0.019217771597505665
sg15
g284
sbs(I-8
I450
tp288
g0
(g9
g2
Ntp289
Rp290
(dp291
g13
I01
sg14
F-0.005901591742056092
sg15
g288
sbs(I-12
I453
tp292
g0
(g9
g2
Ntp293
Rp294
(dp295
g13
I01
sg14
F-0.6219250212841253
sg15
g292
sbs(I-18
I450
tp296
g0
(g9
g2
Ntp297
Rp298
(dp299
g13
I01
sg14
F1.074180190575499
sg15
g296
sbs(I458
I2
tp300
g0
(g9
g2
Ntp301
Rp302
(dp303
g13
I01
sg14
F-1.4884573252468107
sg15
g300
sbs(I-3
I454
tp304
g0
(g9
g2
Ntp305
Rp306
(dp307
g13
I01
sg14
F0.19119431492099062
sg15
g304
sbs(I-17
I460
tp308
g0
(g9
g2
Ntp309
Rp310
(dp311
g13
I01
sg14
F-0.19599182194012385
sg15
g308
sbs(I-14
I451
tp312
g0
(g9
g2
Ntp313
Rp314
(dp315
g13
I01
sg14
F1.9548672675364807
sg15
g312
sbs(I450
I0
tp316
g0
(g9
g2
Ntp317
Rp318
(dp319
g13
I01
sg14
F-0.977026951774319
sg15
g316
sbs(I-4
I459
tp320
g0
(g9
g2
Ntp321
Rp322
(dp323
g13
I01
sg14
F0.25796299507941617
sg15
g320
sbs(I450
I1
tp324
g0
(g9
g2
Ntp325
Rp326
(dp327
g13
I01
sg14
F0.7250041080667777
sg15
g324
sbs(I-5
I460
tp328
g0
(g9
g2
Ntp329
Rp330
(dp331
g13
I01
sg14
F0.7973108236854389
sg15
g328
sbs(I-19
I453
tp332
g0
(g9
g2
Ntp333
Rp334
(dp335
g13
I01
sg14
F0.6575720783748709
sg15
g332
sbs(I-10
I453
tp336
g0
(g9
g2
Ntp337
Rp338
(dp339
g13
I01
sg14
F-0.1596144842151373
sg15
g336
sbs(I-9
I457
tp340
g0
(g9
g2
Ntp341
Rp342
(dp343
g13
I01
sg14
F-0.5574799785710888
sg15
g340
sbs(I-16
I449
tp344
g0
(g9
g2
Ntp345
Rp346
(dp347
g13
I01
sg14
F1.0049352906360336
sg15
g344
sbs(I-6
I453
tp348
g0
(g9
g2
Ntp349
Rp350
(dp351
g13
I01
sg14
F-0.5566074273319083
sg15
g348
sbs(I-20
I452
tp352
g0
(g9
g2
Ntp353
Rp354
(dp355
g13
I01
sg14
F2.649891990724172
sg15
g352
sbs(I-11
I458
tp356
g0
(g9
g2
Ntp357
Rp358
(dp359
g13
I01
sg14
F-0.22674847491255024
sg15
g356
sbs(I-10
I456
tp360
g0
(g9
g2
Ntp361
Rp362
(dp363
g13
I01
sg14
F0.40225020596888794
sg15
g360
sbs(I458
I1
tp364
g0
(g9
g2
Ntp365
Rp366
(dp367
g13
I01
sg14
F0.8434318410743866
sg15
g364
sbs(I-8
I460
tp368
g0
(g9
g2
Ntp369
Rp370
(dp371
g13
I01
sg14
F-0.4002464915016887
sg15
g368
sbs(I-7
I450
tp372
g0
(g9
g2
Ntp373
Rp374
(dp375
g13
I01
sg14
F0.08153378690437188
sg15
g372
sbs(I-11
I455
tp376
g0
(g9
g2
Ntp377
Rp378
(dp379
g13
I01
sg14
F0.8924767825200246
sg15
g376
sbs(I-2
I455
tp380
g0
(g9
g2
Ntp381
Rp382
(dp383
g13
I01
sg14
F-0.6406445035674944
sg15
g380
sbs(I-18
I456
tp384
g0
(g9
g2
Ntp385
Rp386
(dp387
g13
I01
sg14
F-1.1047589273864604
sg15
g384
sbs(I-13
I456
tp388
g0
(g9
g2
Ntp389
Rp390
(dp391
g13
I01
sg14
F-1.2921419862928163
sg15
g388
sbs(I456
I1
tp392
g0
(g9
g2
Ntp393
Rp394
(dp395
g13
I01
sg14
F2.4690523624285188
sg15
g392
sbs(I-3
I457
tp396
g0
(g9
g2
Ntp397
Rp398
(dp399
g13
I01
sg14
F-0.27714048973022426
sg15
g396
sbs(I-14
I452
tp400
g0
(g9
g2
Ntp401
Rp402
(dp403
g13
I01
sg14
F0.3719346745254845
sg15
g400
sbs(I-5
I454
tp404
g0
(g9
g2
Ntp405
Rp406
(dp407
g13
I01
sg14
F0.7826881688712434
sg15
g404
sbs(I-4
I456
tp408
g0
(g9
g2
Ntp409
Rp410
(dp411
g13
I01
sg14
F0.4974362346182403
sg15
g408
sbs(I-9
I451
tp412
g0
(g9
g2
Ntp413
Rp414
(dp415
g13
I01
sg14
F-0.9273290045277787
sg15
g412
sbs(I451
I0
tp416
g0
(g9
g2
Ntp417
Rp418
(dp419
g13
I01
sg14
F1.553802469700961
sg15
g416
sbs(I-2
I458
tp420
g0
(g9
g2
Ntp421
Rp422
(dp423
g13
I01
sg14
F1.4532629117967668
sg15
g420
sbs(I-6
I459
tp424
g0
(g9
g2
Ntp425
Rp426
(dp427
g13
I01
sg14
F-1.8241008256696656
sg15
g424
sbs(I-5
I459
tp428
g0
(g9
g2
Ntp429
Rp430
(dp431
g13
I01
sg14
F1.2654937037334733
sg15
g428
sbs(I-19
I456
tp432
g0
(g9
g2
Ntp433
Rp434
(dp435
g13
I01
sg14
F1.3345023111206165
sg15
g432
sbs(I-10
I454
tp436
g0
(g9
g2
Ntp437
Rp438
(dp439
g13
I01
sg14
F0.7707985927873195
sg15
g436
sbs(I-9
I460
tp440
g0
(g9
g2
Ntp441
Rp442
(dp443
g13
I01
sg14
F-0.8203927568465522
sg15
g440
sbs(I-7
I456
tp444
g0
(g9
g2
Ntp445
Rp446
(dp447
g13
I01
sg14
F0.9195546177553477
sg15
g444
sbs(I-6
I454
tp448
g0
(g9
g2
Ntp449
Rp450
(dp451
g13
I01
sg14
F-1.5869854475262013
sg15
g448
sbs(I-20
I457
tp452
g0
(g9
g2
Ntp453
Rp454
(dp455
g13
I01
sg14
F-0.5586335908866268
sg15
g452
sbs(I450
I4
tp456
g0
(g9
g2
Ntp457
Rp458
(dp459
g13
I01
sg14
F-0.496560870935035
sg15
g456
sbs(I-17
I455
tp460
g0
(g9
g2
Ntp461
Rp462
(dp463
g13
I01
sg14
F-1.5710723572332017
sg15
g460
sbs(I-8
I457
tp464
g0
(g9
g2
Ntp465
Rp466
(dp467
g13
I01
sg14
F0.6559221509944002
sg15
g464
sbs(I455
I3
tp468
g0
(g9
g2
Ntp469
Rp470
(dp471
g13
I01
sg14
F0.036915371165637825
sg15
g468
sbs(I-12
I460
tp472
g0
(g9
g2
Ntp473
Rp474
(dp475
g13
I01
sg14
F1.9838599714142509
sg15
g472
sbs(I460
I1
tp476
g0
(g9
g2
Ntp477
Rp478
(dp479
g13
I01
sg14
F0.778786864681612
sg15
g476
sbs(I-18
I453
tp480
g0
(g9
g2
Ntp481
Rp482
(dp483
g13
I01
sg14
F1.9970108822571233
sg15
g480
sbs(I-2
I460
tp484
g0
(g9
g2
Ntp485
Rp486
(dp487
g13
I01
sg14
F0.7620996046699375
sg15
g484
sbs(I-13
I455
tp488
g0
(g9
g2
Ntp489
Rp490
(dp491
g13
I01
sg14
F1.3342253860091928
sg15
g488
sbs(I450
I2
tp492
g0
(g9
g2
Ntp493
Rp494
(dp495
g13
I01
sg14
F0.16645889821988832
sg15
g492
sbs(I-17
I451
tp496
g0
(g9
g2
Ntp497
Rp498
(dp499
g13
I01
sg14
F-0.4550124746764519
sg15
g496
sbs(I-4
I450
tp500
g0
(g9
g2
Ntp501
Rp502
(dp503
g13
I01
sg14
F-0.7208410241032864
sg15
g500
sbs(I-3
I460
tp504
g0
(g9
g2
Ntp505
Rp506
(dp507
g13
I01
sg14
F-0.4066592441412711
sg15
g504
sbs(I459
I2
tp508
g0
(g9
g2
Ntp509
Rp510
(dp511
g13
I01
sg14
F0.32259795357299165
sg15
g508
sbs(I-14
I457
tp512
g0
(g9
g2
Ntp513
Rp514
(dp515
g13
I01
sg14
F0.3370379830301324
sg15
g512
sbs(I-5
I453
tp516
g0
(g9
g2
Ntp517
Rp518
(dp519
g13
I01
sg14
F-0.025062304324688367
sg15
g516
sbs(I452
I0
tp520
g0
(g9
g2
Ntp521
Rp522
(dp523
g13
I01
sg14
F0.40843076814891466
sg15
g520
sbs(I-9
I454
tp524
g0
(g9
g2
Ntp525
Rp526
(dp527
g13
I01
sg14
F-0.4921198474562393
sg15
g524
sbs(I-6
I460
tp528
g0
(g9
g2
Ntp529
Rp530
(dp531
g13
I01
sg14
F0.6188007383716376
sg15
g528
sbs(I-20
I451
tp532
g0
(g9
g2
Ntp533
Rp534
(dp535
g13
I01
sg14
F0.37933828428983896
sg15
g532
sbs(I-19
I459
tp536
g0
(g9
g2
Ntp537
Rp538
(dp539
g13
I01
sg14
F0.017362715334464113
sg15
g536
sbs(I-10
I451
tp540
g0
(g9
g2
Ntp541
Rp542
(dp543
g13
I01
sg14
F0.7798100204934927
sg15
g540
sbs(I-16
I459
tp544
g0
(g9
g2
Ntp545
Rp546
(dp547
g13
I01
sg14
F0.7980254000392428
sg15
g544
sbs(I-7
I459
tp548
g0
(g9
g2
Ntp549
Rp550
(dp551
g13
I01
sg14
F2.369964787048017
sg15
g548
sbs(I-8
I454
tp552
g0
(g9
g2
Ntp553
Rp554
(dp555
g13
I01
sg14
F0.05433539741336922
sg15
g552
sbs(I-12
I449
tp556
g0
(g9
g2
Ntp557
Rp558
(dp559
g13
I01
sg14
F-0.05679260785219072
sg15
g556
sbs(I-18
I460
tp560
g0
(g9
g2
Ntp561
Rp562
(dp563
g13
I01
sg14
F0.35381015591011683
sg15
g560
sbs(I-18
I454
tp564
g0
(g9
g2
Ntp565
Rp566
(dp567
g13
I01
sg14
F0.37897516217339894
sg15
g564
sbs(I-17
I458
tp568
g0
(g9
g2
Ntp569
Rp570
(dp571
g13
I01
sg14
F-0.7732245602376715
sg15
g568
sbs(I-2
I451
tp572
g0
(g9
g2
Ntp573
Rp574
(dp575
g13
I01
sg14
F-0.1640848112437524
sg15
g572
sbs(I-13
I450
tp576
g0
(g9
g2
Ntp577
Rp578
(dp579
g13
I01
sg14
F0.17237664793434812
sg15
g576
sbs(I-3
I450
tp580
g0
(g9
g2
Ntp581
Rp582
(dp583
g13
I01
sg14
F1.2080116029136554
sg15
g580
sbs(I452
I3
tp584
g0
(g9
g2
Ntp585
Rp586
(dp587
g13
I01
sg14
F0.3397519135783916
sg15
g584
sbs(I-4
I455
tp588
g0
(g9
g2
Ntp589
Rp590
(dp591
g13
I01
sg14
F0.2409905902179464
sg15
g588
sbs(I449
I1
tp592
g0
(g9
g2
Ntp593
Rp594
(dp595
g13
I01
sg14
F-1.4727130365918917
sg15
g592
sbs(I-15
I452
tp596
g0
(g9
g2
Ntp597
Rp598
(dp599
g13
I01
sg14
F-0.7887504011088888
sg15
g596
sbs(I-14
I458
tp600
g0
(g9
g2
Ntp601
Rp602
(dp603
g13
I01
sg14
F0.10717595816144385
sg15
g600
sbs(I-19
I449
tp604
g0
(g9
g2
Ntp605
Rp606
(dp607
g13
I01
sg14
F1.9083859733668083
sg15
g604
sbs(I451
I2
tp608
g0
(g9
g2
Ntp609
Rp610
(dp611
g13
I01
sg14
F-0.5963198530634696
sg15
g608
sbs(I-9
I453
tp612
g0
(g9
g2
Ntp613
Rp614
(dp615
g13
I01
sg14
F-0.3926170299475871
sg15
g612
sbs(I-16
I453
tp616
g0
(g9
g2
Ntp617
Rp618
(dp619
g13
I01
sg14
F-2.165612242599115
sg15
g616
sbs(I-2
I453
tp620
g0
(g9
g2
Ntp621
Rp622
(dp623
g13
I01
sg14
F1.3274085938638025
sg15
g620
sbs(I-6
I449
tp624
g0
(g9
g2
Ntp625
Rp626
(dp627
g13
I01
sg14
F0.014469212814739925
sg15
g624
sbs(I-10
I460
tp628
g0
(g9
g2
Ntp629
Rp630
(dp631
g13
I01
sg14
F-0.005376064655164145
sg15
g628
sbs(I-16
I456
tp632
g0
(g9
g2
Ntp633
Rp634
(dp635
g13
I01
sg14
F-0.8037893206808582
sg15
g632
sbs(I-7
I454
tp636
g0
(g9
g2
Ntp637
Rp638
(dp639
g13
I01
sg14
F-0.175536610360796
sg15
g636
sbs(I454
I0
tp640
g0
(g9
g2
Ntp641
Rp642
(dp643
g13
I01
sg14
F2.446742219854568
sg15
g640
sbs(I-12
I459
tp644
g0
(g9
g2
Ntp645
Rp646
(dp647
g13
I01
sg14
F-0.14158190571240556
sg15
g644
sbs(I-11
I451
tp648
g0
(g9
g2
Ntp649
Rp650
(dp651
g13
I01
sg14
F0.4463139829332785
sg15
g648
sbs(I-1
I459
tp652
g0
(g9
g2
Ntp653
Rp654
(dp655
g13
I01
sg14
F-0.5737248679703573
sg15
g652
sbs(I-17
I452
tp656
g0
(g9
g2
Ntp657
Rp658
(dp659
g13
I01
sg14
F-0.21021569836891474
sg15
g656
sbs(I-8
I451
tp660
g0
(g9
g2
Ntp661
Rp662
(dp663
g13
I01
sg14
F1.117561274508953
sg15
g660
sbs(I-13
I460
tp664
g0
(g9
g2
Ntp665
Rp666
(dp667
g13
I01
sg14
F0.5269168423918359
sg15
g664
sbs(I-12
I454
tp668
g0
(g9
g2
Ntp669
Rp670
(dp671
g13
I01
sg14
F-0.40622065165752536
sg15
g668
sbs(I-18
I451
tp672
g0
(g9
g2
Ntp673
Rp674
(dp675
g13
I01
sg14
F1.2430163021041598
sg15
g672
sbs(I-13
I449
tp676
g0
(g9
g2
Ntp677
Rp678
(dp679
g13
I01
sg14
F-0.47276656603464784
sg15
g676
sbs(I-3
I453
tp680
g0
(g9
g2
Ntp681
Rp682
(dp683
g13
I01
sg14
F0.21474153192314419
sg15
g680
sbs(I-4
I452
tp684
g0
(g9
g2
Ntp685
Rp686
(dp687
g13
I01
sg14
F-1.0058411366271272
sg15
g684
sbs(I-17
I450
tp688
g0
(g9
g2
Ntp689
Rp690
(dp691
g13
I01
sg14
F0.12715140496911748
sg15
g688
sbs(I-15
I455
tp692
g0
(g9
g2
Ntp693
Rp694
(dp695
g13
I01
sg14
F-0.07041611664069503
sg15
g692
sbs(I-19
I452
tp696
g0
(g9
g2
Ntp697
Rp698
(dp699
g13
I01
sg14
F-1.2423676145791847
sg15
g696
sbs(I451
I1
tp700
g0
(g9
g2
Ntp701
Rp702
(dp703
g13
I01
sg14
F-1.2310995023502767
sg15
g700
sbs(I-9
I456
tp704
g0
(g9
g2
Ntp705
Rp706
(dp707
g13
I01
sg14
F-1.4716068709151533
sg15
g704
sbs(I-16
I450
tp708
g0
(g9
g2
Ntp709
Rp710
(dp711
g13
I01
sg14
F-0.8399090874222371
sg15
g708
sbs(I-7
I460
tp712
g0
(g9
g2
Ntp713
Rp714
(dp715
g13
I01
sg14
F-0.0912058587011275
sg15
g712
sbs(I-6
I450
tp716
g0
(g9
g2
Ntp717
Rp718
(dp719
g13
I01
sg14
F1.1935048321025046
sg15
g716
sbs(I-20
I453
tp720
g0
(g9
g2
Ntp721
Rp722
(dp723
g13
I01
sg14
F-0.5881675008002034
sg15
g720
sbs(I-11
I457
tp724
g0
(g9
g2
Ntp725
Rp726
(dp727
g13
I01
sg14
F0.6342985080209315
sg15
g724
sbs(I-10
I457
tp728
g0
(g9
g2
Ntp729
Rp730
(dp731
g13
I01
sg14
F-0.02101503796074158
sg15
g728
sbs(I459
I1
tp732
g0
(g9
g2
Ntp733
Rp734
(dp735
g13
I01
sg14
F-0.26505711943874066
sg15
g732
sbs(I-17
I456
tp736
g0
(g9
g2
Ntp737
Rp738
(dp739
g13
I01
sg14
F-0.7899408918090719
sg15
g736
sbs(I-7
I449
tp740
g0
(g9
g2
Ntp741
Rp742
(dp743
g13
I01
sg14
F0.14208704858302207
sg15
g740
sbs(I-12
I456
tp744
g0
(g9
g2
Ntp745
Rp746
(dp747
g13
I01
sg14
F1.429692260457705
sg15
g744
sbs(I-11
I454
tp748
g0
(g9
g2
Ntp749
Rp750
(dp751
g13
I01
sg14
F0.29649312366744685
sg15
g748
sbs(I-1
I452
tp752
g0
(g9
g2
Ntp753
Rp754
(dp755
g13
I01
sg14
F-0.3290304858127316
sg15
g752
sbs(I-18
I457
tp756
g0
(g9
g2
Ntp757
Rp758
(dp759
g13
I01
sg14
F2.5773632875519854
sg15
g756
sbs(I-17
I453
tp760
g0
(g9
g2
Ntp761
Rp762
(dp763
g13
I01
sg14
F-0.7492453790883256
sg15
g760
sbs(I459
I0
tp764
g0
(g9
g2
Ntp765
Rp766
(dp767
g13
I01
sg14
F0.1313816966285748
sg15
g764
sbs(I-13
I459
tp768
g0
(g9
g2
Ntp769
Rp770
(dp771
g13
I01
sg14
F1.255227290915808
sg15
g768
sbs(I456
I0
tp772
g0
(g9
g2
Ntp773
Rp774
(dp775
g13
I01
sg14
F-0.9915515471648348
sg15
g772
sbs(I-2
I450
tp776
g0
(g9
g2
Ntp777
Rp778
(dp779
g13
I01
sg14
F-0.07438906437540328
sg15
g776
sbs(I-3
I456
tp780
g0
(g9
g2
Ntp781
Rp782
(dp783
g13
I01
sg14
F-1.0044606696329967
sg15
g780
sbs(I452
I1
tp784
g0
(g9
g2
Ntp785
Rp786
(dp787
g13
I01
sg14
F-2.069688387024643
sg15
g784
sbs(I-14
I453
tp788
g0
(g9
g2
Ntp789
Rp790
(dp791
g13
I01
sg14
F-0.3759441669847636
sg15
g788
sbs(I-4
I457
tp792
g0
(g9
g2
Ntp793
Rp794
(dp795
g13
I01
sg14
F0.05069010432579196
sg15
g792
sbs(I457
I0
tp796
g0
(g9
g2
Ntp797
Rp798
(dp799
g13
I01
sg14
F1.1523794367721334
sg15
g796
sbs(I-9
I450
tp800
g0
(g9
g2
Ntp801
Rp802
(dp803
g13
I01
sg14
F0.25614813366502004
sg15
g800
sbs(I-2
I454
tp804
g0
(g9
g2
Ntp805
Rp806
(dp807
g13
I01
sg14
F0.5963354316217927
sg15
g804
sbs(I-15
I450
tp808
g0
(g9
g2
Ntp809
Rp810
(dp811
g13
I01
sg14
F-0.038120047646571016
sg15
g808
sbs(I-6
I456
tp812
g0
(g9
g2
Ntp813
Rp814
(dp815
g13
I01
sg14
F-0.29136705051162454
sg15
g812
sbs(I-5
I458
tp816
g0
(g9
g2
Ntp817
Rp818
(dp819
g13
I01
sg14
F0.2686937373947583
sg15
g816
sbs(I-19
I455
tp820
g0
(g9
g2
Ntp821
Rp822
(dp823
g13
I01
sg14
F0.2150419648373212
sg15
g820
sbs(I-10
I455
tp824
g0
(g9
g2
Ntp825
Rp826
(dp827
g13
I01
sg14
F-0.587912467950076
sg15
g824
sbs(I457
I4
tp828
g0
(g9
g2
Ntp829
Rp830
(dp831
g13
I01
sg14
F-0.09693776154542462
sg15
g828
sbs(I-2
I452
tp832
g0
(g9
g2
Ntp833
Rp834
(dp835
g13
I01
sg14
F0.6611660384097697
sg15
g832
sbs(I-6
I455
tp836
g0
(g9
g2
Ntp837
Rp838
(dp839
g13
I01
sg14
F0.5751075554525492
sg15
g836
sbs(I-20
I458
tp840
g0
(g9
g2
Ntp841
Rp842
(dp843
g13
I01
sg14
F-1.5775547241663892
sg15
g840
sbs(I-11
I460
tp844
g0
(g9
g2
Ntp845
Rp846
(dp847
g13
I01
sg14
F0.6157002134576394
sg15
g844
sbs(I-10
I458
tp848
g0
(g9
g2
Ntp849
Rp850
(dp851
g13
I01
sg14
F0.30034107306715213
sg15
g848
sbs(I458
I3
tp852
g0
(g9
g2
Ntp853
Rp854
(dp855
g13
I01
sg14
F-0.2975981142596908
sg15
g852
sbs(I-8
I458
tp856
g0
(g9
g2
Ntp857
Rp858
(dp859
g13
I01
sg14
F-0.982518137775735
sg15
g856
sbs(I455
I2
tp860
g0
(g9
g2
Ntp861
Rp862
(dp863
g13
I01
sg14
F0.16613668276656088
sg15
g860
sbs(I460
I2
tp864
g0
(g9
g2
Ntp865
Rp866
(dp867
g13
I01
sg14
F1.265648663214612
sg15
g864
sbs(I-1
I449
tp868
g0
(g9
g2
Ntp869
Rp870
(dp871
g13
I01
sg14
F-1.5195951896402011
sg15
g868
sbs(I-18
I458
tp872
g0
(g9
g2
Ntp873
Rp874
(dp875
g13
I01
sg14
F-2.086100447575972
sg15
g872
sbs(I-13
I454
tp876
g0
(g9
g2
Ntp877
Rp878
(dp879
g13
I01
sg14
F-0.11995592942069382
sg15
g876
sbs(I453
I0
tp880
g0
(g9
g2
Ntp881
Rp882
(dp883
g13
I01
sg14
F-0.2009846369527658
sg15
g880
sbs(I-4
I451
tp884
g0
(g9
g2
Ntp885
Rp886
(dp887
g13
I01
sg14
F-0.10579365529572998
sg15
g884
sbs(I-3
I459
tp888
g0
(g9
g2
Ntp889
Rp890
(dp891
g13
I01
sg14
F1.1568947236566243
sg15
g888
sbs(I-14
I454
tp892
g0
(g9
g2
Ntp893
Rp894
(dp895
g13
I01
sg14
F-1.386338135893247
sg15
g892
sbs(I-5
I452
tp896
g0
(g9
g2
Ntp897
Rp898
(dp899
g13
I01
sg14
F0.036615239451099374
sg15
g896
sbs(I-9
I449
tp900
g0
(g9
g2
Ntp901
Rp902
(dp903
g13
I01
sg14
F0.162887078813989
sg15
g900
sbs(I-5
I457
tp904
g0
(g9
g2
Ntp905
Rp906
(dp907
g13
I01
sg14
F0.8877753808339816
sg15
g904
sbs(I-19
I458
tp908
g0
(g9
g2
Ntp909
Rp910
(dp911
g13
I01
sg14
F1.327802240902479
sg15
g908
sbs(I-16
I460
tp912
g0
(g9
g2
Ntp913
Rp914
(dp915
g13
I01
sg14
F1.0896954011583784
sg15
g912
sbs(I-7
I458
tp916
g0
(g9
g2
Ntp917
Rp918
(dp919
g13
I01
sg14
F-0.5043713968589579
sg15
g916
sbs(I454
I4
tp920
g0
(g9
g2
Ntp921
Rp922
(dp923
g13
I01
sg14
F-0.7867711533150726
sg15
g920
sbs(I453
I4
tp924
g0
(g9
g2
Ntp925
Rp926
(dp927
g13
I01
sg14
F0.2340596420074994
sg15
g924
sbs(I459
I4
tp928
g0
(g9
g2
Ntp929
Rp930
(dp931
g13
I01
sg14
F-0.9150039486500829
sg15
g928
sbs(I458
I4
tp932
g0
(g9
g2
Ntp933
Rp934
(dp935
g13
I01
sg14
F-0.4752314798750784
sg15
g932
sbs(I-8
I455
tp936
g0
(g9
g2
Ntp937
Rp938
(dp939
g13
I01
sg14
F-0.06145472410756879
sg15
g936
sbs(I455
I1
tp940
g0
(g9
g2
Ntp941
Rp942
(dp943
g13
I01
sg14
F0.18589180160957852
sg15
g940
sbs(I-20
I456
tp944
g0
(g9
g2
Ntp945
Rp946
(dp947
g13
I01
sg14
F0.24700498140325122
sg15
g944
sbs(I-12
I450
tp948
g0
(g9
g2
Ntp949
Rp950
(dp951
g13
I01
sg14
F-0.7492099542191754
sg15
g948
sbs(I-1
I450
tp952
g0
(g9
g2
Ntp953
Rp954
(dp955
g13
I01
sg14
F-0.17375025636212624
sg15
g952
sbs(I-18
I455
tp956
g0
(g9
g2
Ntp957
Rp958
(dp959
g13
I01
sg14
F-0.7891125401128765
sg15
g956
sbs(I-13
I453
tp960
g0
(g9
g2
Ntp961
Rp962
(dp963
g13
I01
sg14
F0.6513114991100097
sg15
g960
sbs(I-3
I449
tp964
g0
(g9
g2
Ntp965
Rp966
(dp967
g13
I01
sg14
F-0.025132139902794646
sg15
g964
sbs(I449
I0
tp968
g0
(g9
g2
Ntp969
Rp970
(dp971
g13
I01
sg14
F-1.47717562760733
sg15
g968
sbs(I-14
I459
tp972
g0
(g9
g2
Ntp973
Rp974
(dp975
g13
I01
sg14
F-0.6259490096311421
sg15
g972
sbs(I-5
I451
tp976
g0
(g9
g2
Ntp977
Rp978
(dp979
g13
I01
sg14
F0.0916785796680614
sg15
g976
sbs(I457
I1
tp980
g0
(g9
g2
Ntp981
Rp982
(dp983
g13
I01
sg14
F-0.16827768407327506
sg15
g980
sbs(I-9
I452
tp984
g0
(g9
g2
Ntp985
Rp986
(dp987
g13
I01
sg14
F-0.6277685034321269
sg15
g984
sbs(I-16
I454
tp988
g0
(g9
g2
Ntp989
Rp990
(dp991
g13
I01
sg14
F-1.0221572198452114
sg15
g988
sbs(I-15
I456
tp992
g0
(g9
g2
Ntp993
Rp994
(dp995
g13
I01
sg14
F-1.7291284749470492
sg15
g992
sbs(I-20
I449
tp996
g0
(g9
g2
Ntp997
Rp998
(dp999
g13
I01
sg14
F-0.6790364473070091
sg15
g996
sbs(I-16
I457
tp1000
g0
(g9
g2
Ntp1001
Rp1002
(dp1003
g13
I01
sg14
F-0.25538840490986825
sg15
g1000
sbs(I-1
I455
tp1004
g0
(g9
g2
Ntp1005
Rp1006
(dp1007
g13
I01
sg14
F-0.5449655182076679
sg15
g1004
sbs(I454
I1
tp1008
g0
(g9
g2
Ntp1009
Rp1010
(dp1011
g13
I01
sg14
F-1.0476182013978046
sg15
g1008
sbs(I-20
I460
tp1012
g0
(g9
g2
Ntp1013
Rp1014
(dp1015
g13
I01
sg14
F-1.0086434544477973
sg15
g1012
sbs(I-11
I450
tp1016
g0
(g9
g2
Ntp1017
Rp1018
(dp1019
g13
I01
sg14
F1.00775388378215
sg15
g1016
sbs(I-2
I456
tp1020
g0
(g9
g2
Ntp1021
Rp1022
(dp1023
g13
I01
sg14
F-1.207439391300259
sg15
g1020
sbs(I-8
I452
tp1024
g0
(g9
g2
Ntp1025
Rp1026
(dp1027
g13
I01
sg14
F0.5958829310451187
sg15
g1024
sbs(I455
I4
tp1028
g0
(g9
g2
Ntp1029
Rp1030
(dp1031
g13
I01
sg14
F-0.16198212731149847
sg15
g1028
sbs(I-12
I455
tp1032
g0
(g9
g2
Ntp1033
Rp1034
(dp1035
g13
I01
sg14
F0.9324533334679674
sg15
g1032
sbs(I460
I4
tp1036
g0
(g9
g2
Ntp1037
Rp1038
(dp1039
g13
I01
sg14
F-0.12394513838146526
sg15
g1036
sbs(I-3
I452
tp1040
g0
(g9
g2
Ntp1041
Rp1042
(dp1043
g13
I01
sg14
F-1.0720305182083503
sg15
g1040
sbs(I457
I3
tp1044
g0
(g9
g2
Ntp1045
Rp1046
(dp1047
g13
I01
sg14
F0.7018433607701309
sg15
g1044
sbs(I-1
I457
tp1048
g0
(g9
g2
Ntp1049
Rp1050
(dp1051
g13
I01
sg14
F-2.581830256610026
sg15
g1048
sbs(I-14
I449
tp1052
g0
(g9
g2
Ntp1053
Rp1054
(dp1055
g13
I01
sg14
F1.6486293988009009
sg15
g1052
sbs(I-4
I453
tp1056
g0
(g9
g2
Ntp1057
Rp1058
(dp1059
g13
I01
sg14
F-0.8177268149452517
sg15
g1056
sbs(I449
I3
tp1060
g0
(g9
g2
Ntp1061
Rp1062
(dp1063
g13
I01
sg14
F-0.5618155129834312
sg15
g1060
sbs(I-15
I454
tp1064
g0
(g9
g2
Ntp1065
Rp1066
(dp1067
g13
I01
sg14
F-0.14036102934869146
sg15
g1064
sbs(I-14
I460
tp1068
g0
(g9
g2
Ntp1069
Rp1070
(dp1071
g13
I01
sg14
F0.8462464351661771
sg15
g1068
sbs(I-19
I451
tp1072
g0
(g9
g2
Ntp1073
Rp1074
(dp1075
g13
I01
sg14
F-0.8339148590669928
sg15
g1072
sbs(I453
I3
tp1076
g0
(g9
g2
Ntp1077
Rp1078
(dp1079
g13
I01
sg14
F-1.756207408654751
sg15
g1076
sbs(I-9
I459
tp1080
g0
(g9
g2
Ntp1081
Rp1082
(dp1083
g13
I01
sg14
F-0.4736534333572326
sg15
g1080
sbs(I-16
I451
tp1084
g0
(g9
g2
Ntp1085
Rp1086
(dp1087
g13
I01
sg14
F-0.9139443167775508
sg15
g1084
sbs(I-11
I459
tp1088
g0
(g9
g2
Ntp1089
Rp1090
(dp1091
g13
I01
sg14
F-0.4715675801026052
sg15
g1088
sbs(I-6
I451
tp1092
g0
(g9
g2
Ntp1093
Rp1094
(dp1095
g13
I01
sg14
F0.2832887084483191
sg15
g1092
sbs(I-20
I454
tp1096
g0
(g9
g2
Ntp1097
Rp1098
(dp1099
g13
I01
sg14
F-1.4820485617108254
sg15
g1096
sbs(I-11
I456
tp1100
g0
(g9
g2
Ntp1101
Rp1102
(dp1103
g13
I01
sg14
F-0.03169344811913033
sg15
g1100
sbs(I-17
I459
tp1104
g0
(g9
g2
Ntp1105
Rp1106
(dp1107
g13
I01
sg14
F1.361142609165948
sg15
g1104
sbs(I454
I2
tp1108
g0
(g9
g2
Ntp1109
Rp1110
(dp1111
g13
I01
sg14
F-1.0617783011361268
sg15
g1108
sbs(I-12
I457
tp1112
g0
(g9
g2
Ntp1113
Rp1114
(dp1115
g13
I01
sg14
F1.1376924174819871
sg15
g1112
sbs(I-11
I453
tp1116
g0
(g9
g2
Ntp1117
Rp1118
(dp1119
g13
I01
sg14
F0.18126364553437838
sg15
g1116
sbs(I-1
I453
tp1120
g0
(g9
g2
Ntp1121
Rp1122
(dp1123
g13
I01
sg14
F-1.7990337021506035
sg15
g1120
sbs(I-8
I449
tp1124
g0
(g9
g2
Ntp1125
Rp1126
(dp1127
g13
I01
sg14
F-0.8471613776312839
sg15
g1124
sbs(I-13
I458
tp1128
g0
(g9
g2
Ntp1129
Rp1130
(dp1131
g13
I01
sg14
F-2.537534434052423
sg15
g1128
sbs(I-12
I452
tp1132
g0
(g9
g2
Ntp1133
Rp1134
(dp1135
g13
I01
sg14
F0.9776136234845209
sg15
g1132
sbs(I459
I3
tp1136
g0
(g9
g2
Ntp1137
Rp1138
(dp1139
g13
I01
sg14
F-0.8422537833421997
sg15
g1136
sbs(I-3
I455
tp1140
g0
(g9
g2
Ntp1141
Rp1142
(dp1143
g13
I01
sg14
F0.21524285858487693
sg15
g1140
sbs(I-14
I450
tp1144
g0
(g9
g2
Ntp1145
Rp1146
(dp1147
g13
I01
sg14
F0.15180428340227203
sg15
g1144
sbs(I-4
I458
tp1148
g0
(g9
g2
Ntp1149
Rp1150
(dp1151
g13
I01
sg14
F1.9833878101531623
sg15
g1148
sbs(I457
I2
tp1152
g0
(g9
g2
Ntp1153
Rp1154
(dp1155
g13
I01
sg14
F0.3893696904956519
sg15
g1152
sbs(I-15
I449
tp1156
g0
(g9
g2
Ntp1157
Rp1158
(dp1159
g13
I01
sg14
F-0.2746064772545564
sg15
g1156
sbs(I-6
I457
tp1160
g0
(g9
g2
Ntp1161
Rp1162
(dp1163
g13
I01
sg14
F-0.7369248711170342
sg15
g1160
sbs(I-19
I454
tp1164
g0
(g9
g2
Ntp1165
Rp1166
(dp1167
g13
I01
sg14
F1.3042435024131924
sg15
g1164
sbs(I-10
I452
tp1168
g0
(g9
g2
Ntp1169
Rp1170
(dp1171
g13
I01
sg14
F-0.36094835710104023
sg15
g1168
sbs(I-6
I452
tp1172
g0
(g9
g2
Ntp1173
Rp1174
(dp1175
g13
I01
sg14
F-0.5099971563480464
sg15
g1172
sbs(I-20
I459
tp1176
g0
(g9
g2
Ntp1177
Rp1178
(dp1179
g13
I01
sg14
F0.14949213786206617
sg15
g1176
sbs(I-7
I453
tp1180
g0
(g9
g2
Ntp1181
Rp1182
(dp1183
g13
I01
sg14
F-0.8515589872572725
sg15
g1180
sbs(I-10
I459
tp1184
g0
(g9
g2
Ntp1185
Rp1186
(dp1187
g13
I01
sg14
F-0.42103569635801213
sg15
g1184
sbs(I458
I0
tp1188
g0
(g9
g2
Ntp1189
Rp1190
(dp1191
g13
I01
sg14
F-0.333510747292703
sg15
g1188
sbs(I-8
I459
tp1192
g0
(g9
g2
Ntp1193
Rp1194
(dp1195
g13
I01
sg14
F-0.44427011129340543
sg15
g1192
sbs(I-7
I451
tp1196
g0
(g9
g2
Ntp1197
Rp1198
(dp1199
g13
I01
sg14
F-0.290331481361269
sg15
g1196
sbs(I-17
I457
tp1200
g0
(g9
g2
Ntp1201
Rp1202
(dp1203
g13
I01
sg14
F-1.0137294438090192
sg15
g1200
sbs(I460
I3
tp1204
g0
(g9
g2
Ntp1205
Rp1206
(dp1207
g13
I01
sg14
F2.0216123124045633
sg15
g1204
sbs(I-1
I454
tp1208
g0
(g9
g2
Ntp1209
Rp1210
(dp1211
g13
I01
sg14
F2.532126928460467
sg15
g1208
sbssS'nodes'
p1212
(dp1213
I0
g0
(cneat.genes
DefaultNodeGene
p1214
g2
Ntp1215
Rp1216
(dp1217
S'activation'
p1218
S'tanh'
p1219
sS'bias'
p1220
F-1.2971843533851604
sS'response'
p1221
F1.0
sg15
I0
sS'aggregation'
p1222
S'sum'
p1223
sbsI1
g0
(g1214
g2
Ntp1224
Rp1225
(dp1226
g1218
g1219
sg1220
F0.39972106807326907
sg1221
F1.0
sg15
I1
sg1222
g1223
sbsI2
g0
(g1214
g2
Ntp1227
Rp1228
(dp1229
g1218
g1219
sg1220
F0.13963595364642828
sg1221
F1.0
sg15
I2
sg1222
g1223
sbsI3
g0
(g1214
g2
Ntp1230
Rp1231
(dp1232
g1218
g1219
sg1220
F0.27064929774415203
sg1221
F1.0
sg15
I3
sg1222
g1223
sbsI4
g0
(g1214
g2
Ntp1233
Rp1234
(dp1235
g1218
g1219
sg1220
F1.9418859002520685
sg1221
F1.0
sg15
I4
sg1222
g1223
sbsI453
g0
(g1214
g2
Ntp1236
Rp1237
(dp1238
g1218
g1219
sg1220
F0.49349210842854685
sg1221
F1.0
sg15
I453
sg1222
g1223
sbsI454
g0
(g1214
g2
Ntp1239
Rp1240
(dp1241
g1218
g1219
sg1220
F-0.8605575971254995
sg1221
F1.0
sg15
I454
sg1222
g1223
sbsI449
g0
(g1214
g2
Ntp1242
Rp1243
(dp1244
g1218
g1219
sg1220
F0.020935384834792774
sg1221
F1.0
sg15
I449
sg1222
g1223
sbsI456
g0
(g1214
g2
Ntp1245
Rp1246
(dp1247
g1218
g1219
sg1220
F0.7563186431488784
sg1221
F1.0
sg15
I456
sg1222
g1223
sbsI457
g0
(g1214
g2
Ntp1248
Rp1249
(dp1250
g1218
g1219
sg1220
F0.07809320193293583
sg1221
F1.0
sg15
I457
sg1222
g1223
sbsI458
g0
(g1214
g2
Ntp1251
Rp1252
(dp1253
g1218
g1219
sg1220
F-1.400587339825865
sg1221
F1.0
sg15
I458
sg1222
g1223
sbsI455
g0
(g1214
g2
Ntp1254
Rp1255
(dp1256
g1218
g1219
sg1220
F-0.7376645097803314
sg1221
F1.0
sg15
I455
sg1222
g1223
sbsI460
g0
(g1214
g2
Ntp1257
Rp1258
(dp1259
g1218
g1219
sg1220
F1.2682977582247634
sg1221
F1.0
sg15
I460
sg1222
g1223
sbsI450
g0
(g1214
g2
Ntp1260
Rp1261
(dp1262
g1218
g1219
sg1220
F-0.4958796502071011
sg1221
F1.0
sg15
I450
sg1222
g1223
sbsI451
g0
(g1214
g2
Ntp1263
Rp1264
(dp1265
g1218
g1219
sg1220
F2.8427402179650283
sg1221
F1.0
sg15
I451
sg1222
g1223
sbsI452
g0
(g1214
g2
Ntp1266
Rp1267
(dp1268
g1218
g1219
sg1220
F1.3784255249528026
sg1221
F1.0
sg15
I452
sg1222
g1223
sbsI459
g0
(g1214
g2
Ntp1269
Rp1270
(dp1271
g1218
g1219
sg1220
F-1.4410590211361947
sg1221
F1.0
sg15
I459
sg1222
g1223
sbssg15
I38
sS'fitness'
p1272
F76.0
sb.