ccopy_reg
_reconstructor
p0
(cneat.genome
DefaultGenome
p1
c__builtin__
object
p2
Ntp3
Rp4
(dp5
S'connections'
p6
(dp7
(I-1
I0
tp8
g0
(cneat.genes
DefaultConnectionGene
p9
g2
Ntp10
Rp11
(dp12
S'enabled'
p13
I01
sS'weight'
p14
F-0.16706678497410632
sS'key'
p15
g8
sbs(I-16
I3
tp16
g0
(g9
g2
Ntp17
Rp18
(dp19
g13
I01
sg14
F-1.4649488951544964
sg15
g16
sbs(I-15
I2
tp20
g0
(g9
g2
Ntp21
Rp22
(dp23
g13
I01
sg14
F0.32920119007128545
sg15
g20
sbs(I-18
I1
tp24
g0
(g9
g2
Ntp25
Rp26
(dp27
g13
I01
sg14
F-0.00213801478615243
sg15
g24
sbs(I-13
I3
tp28
g0
(g9
g2
Ntp29
Rp30
(dp31
g13
I01
sg14
F-1.022639985380359
sg15
g28
sbs(I-8
I1
tp32
g0
(g9
g2
Ntp33
Rp34
(dp35
g13
I01
sg14
F0.38402153639104525
sg15
g32
sbs(I-12
I4
tp36
g0
(g9
g2
Ntp37
Rp38
(dp39
g13
I01
sg14
F1.4238063285265272
sg15
g36
sbs(I-2
I0
tp40
g0
(g9
g2
Ntp41
Rp42
(dp43
g13
I01
sg14
F-0.47065348340543167
sg15
g40
sbs(I-10
I3
tp44
g0
(g9
g2
Ntp45
Rp46
(dp47
g13
I01
sg14
F0.006208547562435036
sg15
g44
sbs(I-5
I1
tp48
g0
(g9
g2
Ntp49
Rp50
(dp51
g13
I01
sg14
F-0.03865910708112171
sg15
g48
sbs(I-16
I0
tp52
g0
(g9
g2
Ntp53
Rp54
(dp55
g13
I01
sg14
F-0.4989963673931701
sg15
g52
sbs(I-18
I2
tp56
g0
(g9
g2
Ntp57
Rp58
(dp59
g13
I01
sg14
F1.3753010710006046
sg15
g56
sbs(I-6
I1
tp60
g0
(g9
g2
Ntp61
Rp62
(dp63
g13
I01
sg14
F2.085612947048779
sg15
g60
sbs(I-3
I1
tp64
g0
(g9
g2
Ntp65
Rp66
(dp67
g13
I01
sg14
F1.5765369002161556
sg15
g64
sbs(I-19
I0
tp68
g0
(g9
g2
Ntp69
Rp70
(dp71
g13
I01
sg14
F-2.224317055993976
sg15
g68
sbs(I-14
I0
tp72
g0
(g9
g2
Ntp73
Rp74
(dp75
g13
I01
sg14
F0.25234179671152246
sg15
g72
sbs(I-12
I3
tp76
g0
(g9
g2
Ntp77
Rp78
(dp79
g13
I01
sg14
F-0.819939410443874
sg15
g76
sbs(I-11
I2
tp80
g0
(g9
g2
Ntp81
Rp82
(dp83
g13
I01
sg14
F0.9544473216731063
sg15
g80
sbs(I-6
I2
tp84
g0
(g9
g2
Ntp85
Rp86
(dp87
g13
I01
sg14
F-0.13557448603353042
sg15
g84
sbs(I-9
I3
tp88
g0
(g9
g2
Ntp89
Rp90
(dp91
g13
I01
sg14
F1.8657575801125552
sg15
g88
sbs(I-4
I1
tp92
g0
(g9
g2
Ntp93
Rp94
(dp95
g13
I01
sg14
F0.5032146774697422
sg15
g92
sbs(I-1
I4
tp96
g0
(g9
g2
Ntp97
Rp98
(dp99
g13
I01
sg14
F1.1170255299999572
sg15
g96
sbs(I-3
I4
tp100
g0
(g9
g2
Ntp101
Rp102
(dp103
g13
I01
sg14
F-1.5873066864331653
sg15
g100
sbs(I-20
I2
tp104
g0
(g9
g2
Ntp105
Rp106
(dp107
g13
I01
sg14
F-0.20319861748616333
sg15
g104
sbs(I-19
I3
tp108
g0
(g9
g2
Ntp109
Rp110
(dp111
g13
I01
sg14
F-0.052088988914592016
sg15
g108
sbs(I-17
I0
tp112
g0
(g9
g2
Ntp113
Rp114
(dp115
g13
I01
sg14
F0.4377792401577607
sg15
g112
sbs(I-12
I0
tp116
g0
(g9
g2
Ntp117
Rp118
(dp119
g13
I01
sg14
F0.7459901161724218
sg15
g116
sbs(I-17
I4
tp120
g0
(g9
g2
Ntp121
Rp122
(dp123
g13
I01
sg14
F0.6978595634487744
sg15
g120
sbs(I-7
I0
tp124
g0
(g9
g2
Ntp125
Rp126
(dp127
g13
I01
sg14
F-0.9520958304892142
sg15
g124
sbs(I-2
I3
tp128
g0
(g9
g2
Ntp129
Rp130
(dp131
g13
I01
sg14
F-0.3903631093778362
sg15
g128
sbs(I-1
I1
tp132
g0
(g9
g2
Ntp133
Rp134
(dp135
g13
I01
sg14
F0.1803000415031689
sg15
g132
sbs(I-16
I4
tp136
g0
(g9
g2
Ntp137
Rp138
(dp139
g13
I01
sg14
F0.20780534498225817
sg15
g136
sbs(I-15
I1
tp140
g0
(g9
g2
Ntp141
Rp142
(dp143
g13
I01
sg14
F0.3303300574501565
sg15
g140
sbs(I-13
I2
tp144
g0
(g9
g2
Ntp145
Rp146
(dp147
g13
I01
sg14
F-1.692250508419208
sg15
g144
sbs(I-8
I2
tp148
g0
(g9
g2
Ntp149
Rp150
(dp151
g13
I01
sg14
F0.3468963918843255
sg15
g148
sbs(I-7
I3
tp152
g0
(g9
g2
Ntp153
Rp154
(dp155
g13
I01
sg14
F1.6028654414416226
sg15
g152
sbs(I-10
I0
tp156
g0
(g9
g2
Ntp157
Rp158
(dp159
g13
I01
sg14
F-0.030116479829404935
sg15
g156
sbs(I-5
I0
tp160
g0
(g9
g2
Ntp161
Rp162
(dp163
g13
I01
sg14
F0.6678934104939818
sg15
g160
sbs(I-2
I2
tp164
g0
(g9
g2
Ntp165
Rp166
(dp167
g13
I01
sg14
F-1.1348395896018568
sg15
g164
sbs(I-1
I2
tp168
g0
(g9
g2
Ntp169
Rp170
(dp171
g13
I01
sg14
F-0.3841056919403223
sg15
g168
sbs(I-16
I1
tp172
g0
(g9
g2
Ntp173
Rp174
(dp175
g13
I01
sg14
F-1.1038631098741136
sg15
g172
sbs(I-20
I4
tp176
g0
(g9
g2
Ntp177
Rp178
(dp179
g13
I01
sg14
F0.9288314476633809
sg15
g176
sbs(I-2
I4
tp180
g0
(g9
g2
Ntp181
Rp182
(dp183
g13
I01
sg14
F-0.26700363842068897
sg15
g180
sbs(I-18
I3
tp184
g0
(g9
g2
Ntp185
Rp186
(dp187
g13
I01
sg14
F-0.8258032197478111
sg15
g184
sbs(I-13
I1
tp188
g0
(g9
g2
Ntp189
Rp190
(dp191
g13
I01
sg14
F0.21357214658750454
sg15
g188
sbs(I-3
I0
tp192
g0
(g9
g2
Ntp193
Rp194
(dp195
g13
I01
sg14
F-0.761959664745444
sg15
g192
sbs(I-14
I1
tp196
g0
(g9
g2
Ntp197
Rp198
(dp199
g13
I01
sg14
F0.5533790795581598
sg15
g196
sbs(I-7
I4
tp200
g0
(g9
g2
Ntp201
Rp202
(dp203
g13
I01
sg14
F2.2774910469706535
sg15
g200
sbs(I-11
I1
tp204
g0
(g9
g2
Ntp205
Rp206
(dp207
g13
I01
sg14
F0.3596103640029902
sg15
g204
sbs(I-6
I3
tp208
g0
(g9
g2
Ntp209
Rp210
(dp211
g13
I01
sg14
F-1.4270125822926092
sg15
g208
sbs(I-9
I2
tp212
g0
(g9
g2
Ntp213
Rp214
(dp215
g13
I01
sg14
F1.3170716117979622
sg15
g212
sbs(I-4
I2
tp216
g0
(g9
g2
Ntp217
Rp218
(dp219
g13
I01
sg14
F-0.5709224337566831
sg15
g216
sbs(I-3
I3
tp220
g0
(g9
g2
Ntp221
Rp222
(dp223
g13
I01
sg14
F0.8993846016468379
sg15
g220
sbs(I-20
I3
tp224
g0
(g9
g2
Ntp225
Rp226
(dp227
g13
I01
sg14
F-0.6333313926393623
sg15
g224
sbs(I-19
I2
tp228
g0
(g9
g2
Ntp229
Rp230
(dp231
g13
I01
sg14
F-0.18896146973282
sg15
g228
sbs(I-14
I2
tp232
g0
(g9
g2
Ntp233
Rp234
(dp235
g13
I01
sg14
F0.3445609591543111
sg15
g232
sbs(I-17
I3
tp236
g0
(g9
g2
Ntp237
Rp238
(dp239
g13
I01
sg14
F2.405063685230203
sg15
g236
sbs(I-12
I1
tp240
g0
(g9
g2
Ntp241
Rp242
(dp243
g13
I01
sg14
F-2.3677499657301344
sg15
g240
sbs(I-10
I4
tp244
g0
(g9
g2
Ntp245
Rp246
(dp247
g13
I01
sg14
F-0.26773971581612277
sg15
g244
sbs(I-11
I4
tp248
g0
(g9
g2
Ntp249
Rp250
(dp251
g13
I01
sg14
F0.8375558237839247
sg15
g248
sbs(I-5
I4
tp252
g0
(g9
g2
Ntp253
Rp254
(dp255
g13
I01
sg14
F1.1222935257559765
sg15
g252
sbs(I-6
I4
tp256
g0
(g9
g2
Ntp257
Rp258
(dp259
g13
I01
sg14
F-0.864382733632532
sg15
g256
sbs(I-9
I1
tp260
g0
(g9
g2
Ntp261
Rp262
(dp263
g13
I01
sg14
F-1.7580324409528105
sg15
g260
sbs(I-20
I0
tp264
g0
(g9
g2
Ntp265
Rp266
(dp267
g13
I01
sg14
F-1.2305566290611796
sg15
g264
sbs(I-15
I0
tp268
g0
(g9
g2
Ntp269
Rp270
(dp271
g13
I01
sg14
F0.6468988283652704
sg15
g268
sbs(I-8
I3
tp272
g0
(g9
g2
Ntp273
Rp274
(dp275
g13
I01
sg14
F2.2170956053034314
sg15
g272
sbs(I-7
I2
tp276
g0
(g9
g2
Ntp277
Rp278
(dp279
g13
I01
sg14
F0.283537629021557
sg15
g276
sbs(I-10
I1
tp280
g0
(g9
g2
Ntp281
Rp282
(dp283
g13
I01
sg14
F-0.16737804574003395
sg15
g280
sbs(I-5
I3
tp284
g0
(g9
g2
Ntp285
Rp286
(dp287
g13
I01
sg14
F0.03306900333368856
sg15
g284
sbs(I-9
I4
tp288
g0
(g9
g2
Ntp289
Rp290
(dp291
g13
I01
sg14
F0.7969610786395567
sg15
g288
sbs(I-4
I4
tp292
g0
(g9
g2
Ntp293
Rp294
(dp295
g13
I01
sg14
F0.0693843995916721
sg15
g292
sbs(I-1
I3
tp296
g0
(g9
g2
Ntp297
Rp298
(dp299
g13
I01
sg14
F1.3373336900327388
sg15
g296
sbs(I-16
I2
tp300
g0
(g9
g2
Ntp301
Rp302
(dp303
g13
I01
sg14
F-0.13831555294057413
sg15
g300
sbs(I-15
I3
tp304
g0
(g9
g2
Ntp305
Rp306
(dp307
g13
I01
sg14
F-1.907423380751624
sg15
g304
sbs(I-18
I0
tp308
g0
(g9
g2
Ntp309
Rp310
(dp311
g13
I01
sg14
F-0.412862797362589
sg15
g308
sbs(I-13
I0
tp312
g0
(g9
g2
Ntp313
Rp314
(dp315
g13
I01
sg14
F-0.2527327954075462
sg15
g312
sbs(I-8
I0
tp316
g0
(g9
g2
Ntp317
Rp318
(dp319
g13
I01
sg14
F0.6654479451589778
sg15
g316
sbs(I-10
I2
tp320
g0
(g9
g2
Ntp321
Rp322
(dp323
g13
I01
sg14
F-0.10979033552351952
sg15
g320
sbs(I-17
I1
tp324
g0
(g9
g2
Ntp325
Rp326
(dp327
g13
I01
sg14
F-0.29218411695379815
sg15
g324
sbs(I-11
I0
tp328
g0
(g9
g2
Ntp329
Rp330
(dp331
g13
I01
sg14
F-1.0720618167892897
sg15
g328
sbs(I-6
I0
tp332
g0
(g9
g2
Ntp333
Rp334
(dp335
g13
I01
sg14
F0.44292428035675957
sg15
g332
sbs(I-4
I3
tp336
g0
(g9
g2
Ntp337
Rp338
(dp339
g13
I01
sg14
F-0.5122995273158258
sg15
g336
sbs(I-3
I2
tp340
g0
(g9
g2
Ntp341
Rp342
(dp343
g13
I01
sg14
F-0.4413324127675398
sg15
g340
sbs(I-15
I4
tp344
g0
(g9
g2
Ntp345
Rp346
(dp347
g13
I01
sg14
F-1.073115911418713
sg15
g344
sbs(I-19
I1
tp348
g0
(g9
g2
Ntp349
Rp350
(dp351
g13
I01
sg14
F0.39208386460495626
sg15
g348
sbs(I-14
I3
tp352
g0
(g9
g2
Ntp353
Rp354
(dp355
g13
I01
sg14
F1.0731553469985042
sg15
g352
sbs(I-17
I2
tp356
g0
(g9
g2
Ntp357
Rp358
(dp359
g13
I01
sg14
F-0.8572362824547392
sg15
g356
sbs(I-12
I2
tp360
g0
(g9
g2
Ntp361
Rp362
(dp363
g13
I01
sg14
F-0.35263432822763174
sg15
g360
sbs(I-2
I1
tp364
g0
(g9
g2
Ntp365
Rp366
(dp367
g13
I01
sg14
F-1.8383772549120236
sg15
g364
sbs(I-11
I3
tp368
g0
(g9
g2
Ntp369
Rp370
(dp371
g13
I01
sg14
F1.0840665553751199
sg15
g368
sbs(I-9
I0
tp372
g0
(g9
g2
Ntp373
Rp374
(dp375
g13
I01
sg14
F-0.02717614799142661
sg15
g372
sbs(I-4
I0
tp376
g0
(g9
g2
Ntp377
Rp378
(dp379
g13
I01
sg14
F0.8458212107214539
sg15
g376
sbs(I-20
I1
tp380
g0
(g9
g2
Ntp381
Rp382
(dp383
g13
I01
sg14
F0.9285196149125218
sg15
g380
sbs(I-18
I4
tp384
g0
(g9
g2
Ntp385
Rp386
(dp387
g13
I01
sg14
F-0.43654168345265815
sg15
g384
sbs(I-19
I4
tp388
g0
(g9
g2
Ntp389
Rp390
(dp391
g13
I01
sg14
F0.16119842688921723
sg15
g388
sbs(I-13
I4
tp392
g0
(g9
g2
Ntp393
Rp394
(dp395
g13
I01
sg14
F-1.0870107761154335
sg15
g392
sbs(I-14
I4
tp396
g0
(g9
g2
Ntp397
Rp398
(dp399
g13
I01
sg14
F-0.9129942902684864
sg15
g396
sbs(I-8
I4
tp400
g0
(g9
g2
Ntp401
Rp402
(dp403
g13
I01
sg14
F-0.09247021427854725
sg15
g400
sbs(I-7
I1
tp404
g0
(g9
g2
Ntp405
Rp406
(dp407
g13
I01
sg14
F0.7682011429354131
sg15
g404
sbs(I-5
I2
tp408
g0
(g9
g2
Ntp409
Rp410
(dp411
g13
I01
sg14
F-0.9448170207557701
sg15
g408
sbssS'nodes'
p412
(dp413
I0
g0
(cneat.genes
DefaultNodeGene
p414
g2
Ntp415
Rp416
(dp417
S'activation'
p418
S'tanh'
p419
sS'bias'
p420
F1.2065861846524382
sS'response'
p421
F1.0
sg15
I0
sS'aggregation'
p422
S'sum'
p423
sbsI1
g0
(g414
g2
Ntp424
Rp425
(dp426
g418
g419
sg420
F1.3103452277456116
sg421
F1.0
sg15
I1
sg422
g423
sbsI2
g0
(g414
g2
Ntp427
Rp428
(dp429
g418
g419
sg420
F0.7300318017344625
sg421
F1.0
sg15
I2
sg422
g423
sbsI3
g0
(g414
g2
Ntp430
Rp431
(dp432
g418
g419
sg420
F-0.18088954020266432
sg421
F1.0
sg15
I3
sg422
g423
sbsI4
g0
(g414
g2
Ntp433
Rp434
(dp435
g418
g419
sg420
F-1.0337836446238826
sg421
F1.0
sg15
I4
sg422
g423
sbssg15
I31
sS'fitness'
p436
F44.0
sb.