ccopy_reg
_reconstructor
p0
(cneat.genome
DefaultGenome
p1
c__builtin__
object
p2
Ntp3
Rp4
(dp5
S'connections'
p6
(dp7
(I-13
I232
tp8
g0
(cneat.genes
DefaultConnectionGene
p9
g2
Ntp10
Rp11
(dp12
S'enabled'
p13
I01
sS'weight'
p14
F-0.7476506525486912
sS'key'
p15
g8
sbs(I-1
I225
tp16
g0
(g9
g2
Ntp17
Rp18
(dp19
g13
I01
sg14
F-0.4768591837646946
sg15
g16
sbs(I-18
I234
tp20
g0
(g9
g2
Ntp21
Rp22
(dp23
g13
I01
sg14
F0.695265922951513
sg15
g20
sbs(I-17
I227
tp24
g0
(g9
g2
Ntp25
Rp26
(dp27
g13
I01
sg14
F0.43232450729807825
sg15
g24
sbs(I-2
I225
tp28
g0
(g9
g2
Ntp29
Rp30
(dp31
g13
I01
sg14
F-0.6826048880248348
sg15
g28
sbs(I-4
I227
tp32
g0
(g9
g2
Ntp33
Rp34
(dp35
g13
I01
sg14
F0.897494597894558
sg15
g32
sbs(I230
I1
tp36
g0
(g9
g2
Ntp37
Rp38
(dp39
g13
I01
sg14
F-0.656886498293651
sg15
g36
sbs(I-9
I227
tp40
g0
(g9
g2
Ntp41
Rp42
(dp43
g13
I01
sg14
F0.01923533366712047
sg15
g40
sbs(I-5
I225
tp44
g0
(g9
g2
Ntp45
Rp46
(dp47
g13
I01
sg14
F-1.0
sg15
g44
sbs(I-5
I228
tp48
g0
(g9
g2
Ntp49
Rp50
(dp51
g13
I01
sg14
F0.08774897108488013
sg15
g48
sbs(I-14
I230
tp52
g0
(g9
g2
Ntp53
Rp54
(dp55
g13
I01
sg14
F1.0
sg15
g52
sbs(I-10
I230
tp56
g0
(g9
g2
Ntp57
Rp58
(dp59
g13
I01
sg14
F0.7878301928058997
sg15
g56
sbs(I234
I0
tp60
g0
(g9
g2
Ntp61
Rp62
(dp63
g13
I01
sg14
F1.0
sg15
g60
sbs(I-17
I225
tp64
g0
(g9
g2
Ntp65
Rp66
(dp67
g13
I01
sg14
F-0.2561425084129689
sg15
g64
sbs(I-5
I233
tp68
g0
(g9
g2
Ntp69
Rp70
(dp71
g13
I01
sg14
F0.32034158421334963
sg15
g68
sbs(I-20
I233
tp72
g0
(g9
g2
Ntp73
Rp74
(dp75
g13
I01
sg14
F-0.10526442788013049
sg15
g72
sbs(I-7
I234
tp76
g0
(g9
g2
Ntp77
Rp78
(dp79
g13
I01
sg14
F1.0
sg15
g76
sbs(I-8
I231
tp80
g0
(g9
g2
Ntp81
Rp82
(dp83
g13
I01
sg14
F-0.4465830663360291
sg15
g80
sbs(I-5
I231
tp84
g0
(g9
g2
Ntp85
Rp86
(dp87
g13
I01
sg14
F1.0
sg15
g84
sbs(I-13
I231
tp88
g0
(g9
g2
Ntp89
Rp90
(dp91
g13
I01
sg14
F0.14668160817082018
sg15
g88
sbs(I-1
I226
tp92
g0
(g9
g2
Ntp93
Rp94
(dp95
g13
I01
sg14
F-1.0
sg15
g92
sbs(I-18
I231
tp96
g0
(g9
g2
Ntp97
Rp98
(dp99
g13
I01
sg14
F-0.3914348715718887
sg15
g96
sbs(I-17
I230
tp100
g0
(g9
g2
Ntp101
Rp102
(dp103
g13
I01
sg14
F-1.0
sg15
g100
sbs(I225
I4
tp104
g0
(g9
g2
Ntp105
Rp106
(dp107
g13
I01
sg14
F-0.22133822664348163
sg15
g104
sbs(I-3
I225
tp108
g0
(g9
g2
Ntp109
Rp110
(dp111
g13
I01
sg14
F-1.0
sg15
g108
sbs(I226
I3
tp112
g0
(g9
g2
Ntp113
Rp114
(dp115
g13
I01
sg14
F-0.7863618606043138
sg15
g112
sbs(I228
I2
tp116
g0
(g9
g2
Ntp117
Rp118
(dp119
g13
I01
sg14
F-0.424734614240339
sg15
g116
sbs(I-9
I230
tp120
g0
(g9
g2
Ntp121
Rp122
(dp123
g13
I01
sg14
F-0.9394721729700731
sg15
g120
sbs(I-5
I227
tp124
g0
(g9
g2
Ntp125
Rp126
(dp127
g13
I01
sg14
F-1.0
sg15
g124
sbs(I-20
I227
tp128
g0
(g9
g2
Ntp129
Rp130
(dp131
g13
I01
sg14
F0.2665278335194941
sg15
g128
sbs(I229
I3
tp132
g0
(g9
g2
Ntp133
Rp134
(dp135
g13
I01
sg14
F-0.08651223241914976
sg15
g132
sbs(I-10
I227
tp136
g0
(g9
g2
Ntp137
Rp138
(dp139
g13
I01
sg14
F0.6252572330372189
sg15
g136
sbs(I-16
I230
tp140
g0
(g9
g2
Ntp141
Rp142
(dp143
g13
I01
sg14
F-1.0
sg15
g140
sbs(I-15
I232
tp144
g0
(g9
g2
Ntp145
Rp146
(dp147
g13
I01
sg14
F-1.0
sg15
g144
sbs(I231
I0
tp148
g0
(g9
g2
Ntp149
Rp150
(dp151
g13
I01
sg14
F-0.523672271502003
sg15
g148
sbs(I-16
I233
tp152
g0
(g9
g2
Ntp153
Rp154
(dp155
g13
I01
sg14
F1.0
sg15
g152
sbs(I-7
I229
tp156
g0
(g9
g2
Ntp157
Rp158
(dp159
g13
I01
sg14
F-0.3276987010970795
sg15
g156
sbs(I-12
I225
tp160
g0
(g9
g2
Ntp161
Rp162
(dp163
g13
I01
sg14
F-0.4449559678797509
sg15
g160
sbs(I-1
I232
tp164
g0
(g9
g2
Ntp165
Rp166
(dp167
g13
I01
sg14
F1.0
sg15
g164
sbs(I-8
I228
tp168
g0
(g9
g2
Ntp169
Rp170
(dp171
g13
I01
sg14
F-1.0
sg15
g168
sbs(I-13
I226
tp172
g0
(g9
g2
Ntp173
Rp174
(dp175
g13
I01
sg14
F1.0
sg15
g172
sbs(I-17
I234
tp176
g0
(g9
g2
Ntp177
Rp178
(dp179
g13
I01
sg14
F1.0
sg15
g176
sbs(I233
I4
tp180
g0
(g9
g2
Ntp181
Rp182
(dp183
g13
I01
sg14
F-0.16654405166692998
sg15
g180
sbs(I-3
I228
tp184
g0
(g9
g2
Ntp185
Rp186
(dp187
g13
I01
sg14
F0.14819258099741098
sg15
g184
sbs(I227
I4
tp188
g0
(g9
g2
Ntp189
Rp190
(dp191
g13
I01
sg14
F-0.8342505757942563
sg15
g188
sbs(I226
I4
tp192
g0
(g9
g2
Ntp193
Rp194
(dp195
g13
I01
sg14
F-0.5935877944498581
sg15
g192
sbs(I-14
I225
tp196
g0
(g9
g2
Ntp197
Rp198
(dp199
g13
I01
sg14
F0.476131500168995
sg15
g196
sbs(I232
I4
tp200
g0
(g9
g2
Ntp201
Rp202
(dp203
g13
I01
sg14
F1.0
sg15
g200
sbs(I-4
I229
tp204
g0
(g9
g2
Ntp205
Rp206
(dp207
g13
I01
sg14
F1.0
sg15
g204
sbs(I-19
I225
tp208
g0
(g9
g2
Ntp209
Rp210
(dp211
g13
I01
sg14
F-0.6388477137316447
sg15
g208
sbs(I-9
I229
tp212
g0
(g9
g2
Ntp213
Rp214
(dp215
g13
I01
sg14
F0.3855480040898468
sg15
g212
sbs(I-15
I230
tp216
g0
(g9
g2
Ntp217
Rp218
(dp219
g13
I01
sg14
F1.0
sg15
g216
sbs(I233
I1
tp220
g0
(g9
g2
Ntp221
Rp222
(dp223
g13
I01
sg14
F0.8933228196822066
sg15
g220
sbs(I-16
I227
tp224
g0
(g9
g2
Ntp225
Rp226
(dp227
g13
I01
sg14
F-0.07541621983595648
sg15
g224
sbs(I-6
I227
tp228
g0
(g9
g2
Ntp229
Rp230
(dp231
g13
I01
sg14
F-0.16803046754612289
sg15
g228
sbs(I-11
I227
tp232
g0
(g9
g2
Ntp233
Rp234
(dp235
g13
I01
sg14
F-1.0
sg15
g232
sbs(I-2
I234
tp236
g0
(g9
g2
Ntp237
Rp238
(dp239
g13
I01
sg14
F0.20805776028521608
sg15
g236
sbs(I-12
I230
tp240
g0
(g9
g2
Ntp241
Rp242
(dp243
g13
I01
sg14
F0.4851885800142257
sg15
g240
sbs(I-1
I229
tp244
g0
(g9
g2
Ntp245
Rp246
(dp247
g13
I01
sg14
F0.8397948685790874
sg15
g244
sbs(I-8
I225
tp248
g0
(g9
g2
Ntp249
Rp250
(dp251
g13
I01
sg14
F-0.9944197896659791
sg15
g248
sbs(I-13
I225
tp252
g0
(g9
g2
Ntp253
Rp254
(dp255
g13
I01
sg14
F-0.628329482849418
sg15
g252
sbs(I-17
I231
tp256
g0
(g9
g2
Ntp257
Rp258
(dp259
g13
I01
sg14
F0.2661944058289095
sg15
g256
sbs(I225
I2
tp260
g0
(g9
g2
Ntp261
Rp262
(dp263
g13
I01
sg14
F0.2902034491529702
sg15
g260
sbs(I-3
I231
tp264
g0
(g9
g2
Ntp265
Rp266
(dp267
g13
I01
sg14
F1.0
sg15
g264
sbs(I-19
I232
tp268
g0
(g9
g2
Ntp269
Rp270
(dp271
g13
I01
sg14
F1.0
sg15
g268
sbs(I-14
I226
tp272
g0
(g9
g2
Ntp273
Rp274
(dp275
g13
I01
sg14
F-0.2998982171144631
sg15
g272
sbs(I232
I1
tp276
g0
(g9
g2
Ntp277
Rp278
(dp279
g13
I01
sg14
F1.0
sg15
g276
sbs(I-4
I234
tp280
g0
(g9
g2
Ntp281
Rp282
(dp283
g13
I01
sg14
F-0.38265392367003886
sg15
g280
sbs(I-19
I228
tp284
g0
(g9
g2
Ntp285
Rp286
(dp287
g13
I01
sg14
F-0.9083375524410754
sg15
g284
sbs(I228
I4
tp288
g0
(g9
g2
Ntp289
Rp290
(dp291
g13
I01
sg14
F0.35014904118828216
sg15
g288
sbs(I-9
I232
tp292
g0
(g9
g2
Ntp293
Rp294
(dp295
g13
I01
sg14
F-0.8853904827008017
sg15
g292
sbs(I-15
I225
tp296
g0
(g9
g2
Ntp297
Rp298
(dp299
g13
I01
sg14
F0.01009698847372289
sg15
g296
sbs(I-6
I233
tp300
g0
(g9
g2
Ntp301
Rp302
(dp303
g13
I01
sg14
F0.7296832272594533
sg15
g300
sbs(I-20
I229
tp304
g0
(g9
g2
Ntp305
Rp306
(dp307
g13
I01
sg14
F-0.8500312726288587
sg15
g304
sbs(I-11
I233
tp308
g0
(g9
g2
Ntp309
Rp310
(dp311
g13
I01
sg14
F1.0
sg15
g308
sbs(I-10
I233
tp312
g0
(g9
g2
Ntp313
Rp314
(dp315
g13
I01
sg14
F1.0
sg15
g312
sbs(I-6
I228
tp316
g0
(g9
g2
Ntp317
Rp318
(dp319
g13
I01
sg14
F-1.0
sg15
g316
sbs(I-12
I232
tp320
g0
(g9
g2
Ntp321
Rp322
(dp323
g13
I01
sg14
F-1.0
sg15
g320
sbs(I-11
I230
tp324
g0
(g9
g2
Ntp325
Rp326
(dp327
g13
I01
sg14
F-0.218427422988777
sg15
g324
sbs(I-7
I227
tp328
g0
(g9
g2
Ntp329
Rp330
(dp331
g13
I01
sg14
F-0.942158663040992
sg15
g328
sbs(I-2
I230
tp332
g0
(g9
g2
Ntp333
Rp334
(dp335
g13
I01
sg14
F-0.596042174516255
sg15
g332
sbs(I-3
I234
tp336
g0
(g9
g2
Ntp337
Rp338
(dp339
g13
I01
sg14
F0.12328761321936223
sg15
g336
sbs(I-9
I226
tp340
g0
(g9
g2
Ntp341
Rp342
(dp343
g13
I01
sg14
F0.8468112012951654
sg15
g340
sbs(I-14
I231
tp344
g0
(g9
g2
Ntp345
Rp346
(dp347
g13
I01
sg14
F1.0
sg15
g344
sbs(I-1
I227
tp348
g0
(g9
g2
Ntp349
Rp350
(dp351
g13
I01
sg14
F-0.02900805161473749
sg15
g348
sbs(I-19
I231
tp352
g0
(g9
g2
Ntp353
Rp354
(dp355
g13
I01
sg14
F1.0
sg15
g352
sbs(I-10
I231
tp356
g0
(g9
g2
Ntp357
Rp358
(dp359
g13
I01
sg14
F0.7394255313867307
sg15
g356
sbs(I234
I1
tp360
g0
(g9
g2
Ntp361
Rp362
(dp363
g13
I01
sg14
F-0.43884736429524934
sg15
g360
sbs(I-6
I234
tp364
g0
(g9
g2
Ntp365
Rp366
(dp367
g13
I01
sg14
F0.39022870214976924
sg15
g364
sbs(I-5
I232
tp368
g0
(g9
g2
Ntp369
Rp370
(dp371
g13
I01
sg14
F-0.74445458633163
sg15
g368
sbs(I-20
I234
tp372
g0
(g9
g2
Ntp373
Rp374
(dp375
g13
I01
sg14
F-1.0
sg15
g372
sbs(I-10
I234
tp376
g0
(g9
g2
Ntp377
Rp378
(dp379
g13
I01
sg14
F1.0
sg15
g376
sbs(I-7
I233
tp380
g0
(g9
g2
Ntp381
Rp382
(dp383
g13
I01
sg14
F-0.17224429005228645
sg15
g380
sbs(I-8
I232
tp384
g0
(g9
g2
Ntp385
Rp386
(dp387
g13
I01
sg14
F-0.8976165127327463
sg15
g384
sbs(I-2
I229
tp388
g0
(g9
g2
Ntp389
Rp390
(dp391
g13
I01
sg14
F1.0
sg15
g388
sbs(I-13
I230
tp392
g0
(g9
g2
Ntp393
Rp394
(dp395
g13
I01
sg14
F0.49759125569421214
sg15
g392
sbs(I-2
I227
tp396
g0
(g9
g2
Ntp397
Rp398
(dp399
g13
I01
sg14
F0.6829769819257506
sg15
g396
sbs(I-18
I228
tp400
g0
(g9
g2
Ntp401
Rp402
(dp403
g13
I01
sg14
F-0.512481773240321
sg15
g400
sbs(I229
I1
tp404
g0
(g9
g2
Ntp405
Rp406
(dp407
g13
I01
sg14
F0.6574391882714269
sg15
g404
sbs(I-17
I228
tp408
g0
(g9
g2
Ntp409
Rp410
(dp411
g13
I01
sg14
F1.0
sg15
g408
sbs(I-4
I225
tp412
g0
(g9
g2
Ntp413
Rp414
(dp415
g13
I01
sg14
F-0.984589302412502
sg15
g412
sbs(I228
I3
tp416
g0
(g9
g2
Ntp417
Rp418
(dp419
g13
I01
sg14
F1.0
sg15
g416
sbs(I-9
I225
tp420
g0
(g9
g2
Ntp421
Rp422
(dp423
g13
I01
sg14
F1.0
sg15
g420
sbs(I-14
I232
tp424
g0
(g9
g2
Ntp425
Rp426
(dp427
g13
I01
sg14
F1.0
sg15
g424
sbs(I-5
I226
tp428
g0
(g9
g2
Ntp429
Rp430
(dp431
g13
I01
sg14
F0.8497265784075967
sg15
g428
sbs(I-19
I234
tp432
g0
(g9
g2
Ntp433
Rp434
(dp435
g13
I01
sg14
F-0.7559077115068845
sg15
g432
sbs(I-16
I231
tp436
g0
(g9
g2
Ntp437
Rp438
(dp439
g13
I01
sg14
F0.3101613067466195
sg15
g436
sbs(I234
I2
tp440
g0
(g9
g2
Ntp441
Rp442
(dp443
g13
I01
sg14
F-1.0
sg15
g440
sbs(I231
I3
tp444
g0
(g9
g2
Ntp445
Rp446
(dp447
g13
I01
sg14
F-1.0
sg15
g444
sbs(I229
I0
tp448
g0
(g9
g2
Ntp449
Rp450
(dp451
g13
I01
sg14
F1.0
sg15
g448
sbs(I-16
I234
tp452
g0
(g9
g2
Ntp453
Rp454
(dp455
g13
I01
sg14
F-0.026739122718045193
sg15
g452
sbs(I-7
I228
tp456
g0
(g9
g2
Ntp457
Rp458
(dp459
g13
I01
sg14
F-0.3775046504149448
sg15
g456
sbs(I226
I0
tp460
g0
(g9
g2
Ntp461
Rp462
(dp463
g13
I01
sg14
F0.7877122693447924
sg15
g460
sbs(I-12
I226
tp464
g0
(g9
g2
Ntp465
Rp466
(dp467
g13
I01
sg14
F-0.26338109863879094
sg15
g464
sbs(I-1
I233
tp468
g0
(g9
g2
Ntp469
Rp470
(dp471
g13
I01
sg14
F0.21766266383813182
sg15
g468
sbs(I-8
I229
tp472
g0
(g9
g2
Ntp473
Rp474
(dp475
g13
I01
sg14
F0.4830514591044689
sg15
g472
sbs(I-13
I229
tp476
g0
(g9
g2
Ntp477
Rp478
(dp479
g13
I01
sg14
F-0.8088969528562221
sg15
g476
sbs(I-18
I225
tp480
g0
(g9
g2
Ntp481
Rp482
(dp483
g13
I01
sg14
F1.0
sg15
g480
sbs(I-3
I227
tp484
g0
(g9
g2
Ntp485
Rp486
(dp487
g13
I01
sg14
F-0.5466934961788634
sg15
g484
sbs(I-4
I230
tp488
g0
(g9
g2
Ntp489
Rp490
(dp491
g13
I01
sg14
F-0.07502449356119341
sg15
g488
sbs(I228
I0
tp492
g0
(g9
g2
Ntp493
Rp494
(dp495
g13
I01
sg14
F0.4655080786355022
sg15
g492
sbs(I-9
I228
tp496
g0
(g9
g2
Ntp497
Rp498
(dp499
g13
I01
sg14
F0.1964549468451289
sg15
g496
sbs(I-15
I229
tp500
g0
(g9
g2
Ntp501
Rp502
(dp503
g13
I01
sg14
F0.08031704207334446
sg15
g500
sbs(I233
I0
tp504
g0
(g9
g2
Ntp505
Rp506
(dp507
g13
I01
sg14
F-1.0
sg15
g504
sbs(I-2
I226
tp508
g0
(g9
g2
Ntp509
Rp510
(dp511
g13
I01
sg14
F-0.37722427247227364
sg15
g508
sbs(I-20
I225
tp512
g0
(g9
g2
Ntp513
Rp514
(dp515
g13
I01
sg14
F0.1151366290721169
sg15
g512
sbs(I-16
I228
tp516
g0
(g9
g2
Ntp517
Rp518
(dp519
g13
I01
sg14
F0.7842835962343901
sg15
g516
sbs(I-15
I234
tp520
g0
(g9
g2
Ntp521
Rp522
(dp523
g13
I01
sg14
F-1.0
sg15
g520
sbs(I-11
I226
tp524
g0
(g9
g2
Ntp525
Rp526
(dp527
g13
I01
sg14
F-1.0
sg15
g524
sbs(I-2
I232
tp528
g0
(g9
g2
Ntp529
Rp530
(dp531
g13
I01
sg14
F0.4227427363301688
sg15
g528
sbs(I-7
I231
tp532
g0
(g9
g2
Ntp533
Rp534
(dp535
g13
I01
sg14
F-0.3758510111379146
sg15
g532
sbs(I-12
I231
tp536
g0
(g9
g2
Ntp537
Rp538
(dp539
g13
I01
sg14
F-0.8430368861656786
sg15
g536
sbs(I-1
I234
tp540
g0
(g9
g2
Ntp541
Rp542
(dp543
g13
I01
sg14
F-1.0
sg15
g540
sbs(I-8
I226
tp544
g0
(g9
g2
Ntp545
Rp546
(dp547
g13
I01
sg14
F-1.0
sg15
g544
sbs(I-2
I228
tp548
g0
(g9
g2
Ntp549
Rp550
(dp551
g13
I01
sg14
F1.0
sg15
g548
sbs(I-18
I226
tp552
g0
(g9
g2
Ntp553
Rp554
(dp555
g13
I01
sg14
F0.42842065539968144
sg15
g552
sbs(I225
I1
tp556
g0
(g9
g2
Ntp557
Rp558
(dp559
g13
I01
sg14
F0.9366166798834419
sg15
g556
sbs(I227
I3
tp560
g0
(g9
g2
Ntp561
Rp562
(dp563
g13
I01
sg14
F0.9983303015501361
sg15
g560
sbs(I-3
I230
tp564
g0
(g9
g2
Ntp565
Rp566
(dp567
g13
I01
sg14
F-0.5688117639915757
sg15
g564
sbs(I227
I2
tp568
g0
(g9
g2
Ntp569
Rp570
(dp571
g13
I01
sg14
F-0.022679915036742493
sg15
g568
sbs(I-14
I227
tp572
g0
(g9
g2
Ntp573
Rp574
(dp575
g13
I01
sg14
F-1.0
sg15
g572
sbs(I232
I2
tp576
g0
(g9
g2
Ntp577
Rp578
(dp579
g13
I01
sg14
F1.0
sg15
g576
sbs(I-19
I227
tp580
g0
(g9
g2
Ntp581
Rp582
(dp583
g13
I01
sg14
F0.051586539201423406
sg15
g580
sbs(I229
I2
tp584
g0
(g9
g2
Ntp585
Rp586
(dp587
g13
I01
sg14
F1.0
sg15
g584
sbs(I233
I3
tp588
g0
(g9
g2
Ntp589
Rp590
(dp591
g13
I01
sg14
F1.0
sg15
g588
sbs(I-20
I230
tp592
g0
(g9
g2
Ntp593
Rp594
(dp595
g13
I01
sg14
F-0.17667440574790427
sg15
g592
sbs(I-11
I232
tp596
g0
(g9
g2
Ntp597
Rp598
(dp599
g13
I01
sg14
F-0.9122860647905489
sg15
g596
sbs(I-16
I225
tp600
g0
(g9
g2
Ntp601
Rp602
(dp603
g13
I01
sg14
F-0.9174170779801343
sg15
g600
sbs(I-6
I229
tp604
g0
(g9
g2
Ntp605
Rp606
(dp607
g13
I01
sg14
F-1.0
sg15
g604
sbs(I-12
I233
tp608
g0
(g9
g2
Ntp609
Rp610
(dp611
g13
I01
sg14
F-1.0
sg15
g608
sbs(I-11
I229
tp612
g0
(g9
g2
Ntp613
Rp614
(dp615
g13
I01
sg14
F-1.0
sg15
g612
sbs(I-17
I233
tp616
g0
(g9
g2
Ntp617
Rp618
(dp619
g13
I01
sg14
F-0.28092582387805815
sg15
g616
sbs(I-7
I226
tp620
g0
(g9
g2
Ntp621
Rp622
(dp623
g13
I01
sg14
F1.0
sg15
g620
sbs(I-13
I234
tp624
g0
(g9
g2
Ntp625
Rp626
(dp627
g13
I01
sg14
F-1.0
sg15
g624
sbs(I-12
I228
tp628
g0
(g9
g2
Ntp629
Rp630
(dp631
g13
I01
sg14
F-0.5711228632599732
sg15
g628
sbs(I-2
I231
tp632
g0
(g9
g2
Ntp633
Rp634
(dp635
g13
I01
sg14
F0.736854032367164
sg15
g632
sbs(I-18
I232
tp636
g0
(g9
g2
Ntp637
Rp638
(dp639
g13
I01
sg14
F1.0
sg15
g636
sbs(I-3
I233
tp640
g0
(g9
g2
Ntp641
Rp642
(dp643
g13
I01
sg14
F0.41305119823450176
sg15
g640
sbs(I227
I1
tp644
g0
(g9
g2
Ntp645
Rp646
(dp647
g13
I01
sg14
F0.13766935477594736
sg15
g644
sbs(I-14
I228
tp648
g0
(g9
g2
Ntp649
Rp650
(dp651
g13
I01
sg14
F-1.0
sg15
g648
sbs(I-5
I230
tp652
g0
(g9
g2
Ntp653
Rp654
(dp655
g13
I01
sg14
F1.0
sg15
g652
sbs(I-4
I232
tp656
g0
(g9
g2
Ntp657
Rp658
(dp659
g13
I01
sg14
F-0.3714632285559102
sg15
g656
sbs(I-19
I230
tp660
g0
(g9
g2
Ntp661
Rp662
(dp663
g13
I01
sg14
F-0.060414029532852076
sg15
g660
sbs(I-10
I228
tp664
g0
(g9
g2
Ntp665
Rp666
(dp667
g13
I01
sg14
F0.11368636607276512
sg15
g664
sbs(I-15
I227
tp668
g0
(g9
g2
Ntp669
Rp670
(dp671
g13
I01
sg14
F0.08221606814404706
sg15
g668
sbs(I-7
I232
tp672
g0
(g9
g2
Ntp673
Rp674
(dp675
g13
I01
sg14
F1.0
sg15
g672
sbs(I-6
I230
tp676
g0
(g9
g2
Ntp677
Rp678
(dp679
g13
I01
sg14
F0.8817380825757936
sg15
g676
sbs(I-8
I233
tp680
g0
(g9
g2
Ntp681
Rp682
(dp683
g13
I01
sg14
F-0.3369337094842863
sg15
g680
sbs(I230
I3
tp684
g0
(g9
g2
Ntp685
Rp686
(dp687
g13
I01
sg14
F0.14669180646461552
sg15
g684
sbs(I-17
I226
tp688
g0
(g9
g2
Ntp689
Rp690
(dp691
g13
I01
sg14
F-0.3064682954073819
sg15
g688
sbs(I-13
I233
tp692
g0
(g9
g2
Ntp693
Rp694
(dp695
g13
I01
sg14
F1.0
sg15
g692
sbs(I-18
I229
tp696
g0
(g9
g2
Ntp697
Rp698
(dp699
g13
I01
sg14
F-1.0
sg15
g696
sbs(I-1
I231
tp700
g0
(g9
g2
Ntp701
Rp702
(dp703
g13
I01
sg14
F-0.24027711095234994
sg15
g700
sbs(I226
I1
tp704
g0
(g9
g2
Ntp705
Rp706
(dp707
g13
I01
sg14
F0.48947197435681444
sg15
g704
sbs(I-4
I226
tp708
g0
(g9
g2
Ntp709
Rp710
(dp711
g13
I01
sg14
F0.14431420523585003
sg15
g708
sbs(I-14
I233
tp712
g0
(g9
g2
Ntp713
Rp714
(dp715
g13
I01
sg14
F1.0
sg15
g712
sbs(I-5
I229
tp716
g0
(g9
g2
Ntp717
Rp718
(dp719
g13
I01
sg14
F-0.39071627303018885
sg15
g716
sbs(I-19
I233
tp720
g0
(g9
g2
Ntp721
Rp722
(dp723
g13
I01
sg14
F-1.0
sg15
g720
sbs(I-10
I225
tp724
g0
(g9
g2
Ntp725
Rp726
(dp727
g13
I01
sg14
F1.0
sg15
g724
sbs(I234
I3
tp728
g0
(g9
g2
Ntp729
Rp730
(dp731
g13
I01
sg14
F-0.5473171844255775
sg15
g728
sbs(I-2
I233
tp732
g0
(g9
g2
Ntp733
Rp734
(dp735
g13
I01
sg14
F1.0
sg15
g732
sbs(I231
I2
tp736
g0
(g9
g2
Ntp737
Rp738
(dp739
g13
I01
sg14
F-1.0
sg15
g736
sbs(I-20
I232
tp740
g0
(g9
g2
Ntp741
Rp742
(dp743
g13
I01
sg14
F-1.0
sg15
g740
sbs(I230
I0
tp744
g0
(g9
g2
Ntp745
Rp746
(dp747
g13
I01
sg14
F-1.0
sg15
g744
sbs(I-12
I227
tp748
g0
(g9
g2
Ntp749
Rp750
(dp751
g13
I01
sg14
F1.0
sg15
g748
sbs(I-8
I230
tp752
g0
(g9
g2
Ntp753
Rp754
(dp755
g13
I01
sg14
F-0.16146998500024803
sg15
g752
sbs(I-13
I228
tp756
g0
(g9
g2
Ntp757
Rp758
(dp759
g13
I01
sg14
F0.3086655901516238
sg15
g756
sbs(I-18
I230
tp760
g0
(g9
g2
Ntp761
Rp762
(dp763
g13
I01
sg14
F-0.7094427649364093
sg15
g760
sbs(I-3
I226
tp764
g0
(g9
g2
Ntp765
Rp766
(dp767
g13
I01
sg14
F-1.0
sg15
g764
sbs(I226
I2
tp768
g0
(g9
g2
Ntp769
Rp770
(dp771
g13
I01
sg14
F-0.5000099354884108
sg15
g768
sbs(I-4
I231
tp772
g0
(g9
g2
Ntp773
Rp774
(dp775
g13
I01
sg14
F-0.6033278491701288
sg15
g772
sbs(I228
I1
tp776
g0
(g9
g2
Ntp777
Rp778
(dp779
g13
I01
sg14
F1.0
sg15
g776
sbs(I-9
I231
tp780
g0
(g9
g2
Ntp781
Rp782
(dp783
g13
I01
sg14
F0.18894632171898534
sg15
g780
sbs(I-15
I228
tp784
g0
(g9
g2
Ntp785
Rp786
(dp787
g13
I01
sg14
F-0.4266844144925504
sg15
g784
sbs(I-14
I234
tp788
g0
(g9
g2
Ntp789
Rp790
(dp791
g13
I01
sg14
F-0.5694348752489926
sg15
g788
sbs(I-20
I226
tp792
g0
(g9
g2
Ntp793
Rp794
(dp795
g13
I01
sg14
F0.39174070799207034
sg15
g792
sbs(I229
I4
tp796
g0
(g9
g2
Ntp797
Rp798
(dp799
g13
I01
sg14
F0.8586277235795573
sg15
g796
sbs(I-10
I226
tp800
g0
(g9
g2
Ntp801
Rp802
(dp803
g13
I01
sg14
F1.0
sg15
g800
sbs(I-16
I229
tp804
g0
(g9
g2
Ntp805
Rp806
(dp807
g13
I01
sg14
F-1.0
sg15
g804
sbs(I-15
I233
tp808
g0
(g9
g2
Ntp809
Rp810
(dp811
g13
I01
sg14
F-0.4872643566217242
sg15
g808
sbs(I-6
I225
tp812
g0
(g9
g2
Ntp813
Rp814
(dp815
g13
I01
sg14
F0.7708498123841276
sg15
g812
sbs(I231
I1
tp816
g0
(g9
g2
Ntp817
Rp818
(dp819
g13
I01
sg14
F-1.0
sg15
g816
sbs(I-11
I225
tp820
g0
(g9
g2
Ntp821
Rp822
(dp823
g13
I01
sg14
F0.9493112360113247
sg15
g820
sbs(I-16
I232
tp824
g0
(g9
g2
Ntp825
Rp826
(dp827
g13
I01
sg14
F-0.25604540884897503
sg15
g824
sbs(I-7
I230
tp828
g0
(g9
g2
Ntp829
Rp830
(dp831
g13
I01
sg14
F-0.2361848812088696
sg15
g828
sbs(I230
I4
tp832
g0
(g9
g2
Ntp833
Rp834
(dp835
g13
I01
sg14
F-0.9111189081087162
sg15
g832
sbs(I-8
I227
tp836
g0
(g9
g2
Ntp837
Rp838
(dp839
g13
I01
sg14
F-0.24101200940064324
sg15
g836
sbs(I230
I2
tp840
g0
(g9
g2
Ntp841
Rp842
(dp843
g13
I01
sg14
F-0.5758364365517833
sg15
g840
sbs(I-13
I227
tp844
g0
(g9
g2
Ntp845
Rp846
(dp847
g13
I01
sg14
F0.4284081777511785
sg15
g844
sbs(I-18
I227
tp848
g0
(g9
g2
Ntp849
Rp850
(dp851
g13
I01
sg14
F0.9047403071334837
sg15
g848
sbs(I225
I0
tp852
g0
(g9
g2
Ntp853
Rp854
(dp855
g13
I01
sg14
F0.1615892607449539
sg15
g852
sbs(I-1
I230
tp856
g0
(g9
g2
Ntp857
Rp858
(dp859
g13
I01
sg14
F-0.04842827485410003
sg15
g856
sbs(I-3
I229
tp860
g0
(g9
g2
Ntp861
Rp862
(dp863
g13
I01
sg14
F-0.5319477342277785
sg15
g860
sbs(I232
I3
tp864
g0
(g9
g2
Ntp865
Rp866
(dp867
g13
I01
sg14
F0.579138612714597
sg15
g864
sbs(I-4
I228
tp868
g0
(g9
g2
Ntp869
Rp870
(dp871
g13
I01
sg14
F-0.6304730580175867
sg15
g868
sbs(I-19
I226
tp872
g0
(g9
g2
Ntp873
Rp874
(dp875
g13
I01
sg14
F0.09650970779039852
sg15
g872
sbs(I-9
I234
tp876
g0
(g9
g2
Ntp877
Rp878
(dp879
g13
I01
sg14
F0.23549126116017083
sg15
g876
sbs(I-15
I231
tp880
g0
(g9
g2
Ntp881
Rp882
(dp883
g13
I01
sg14
F0.15639264266747147
sg15
g880
sbs(I233
I2
tp884
g0
(g9
g2
Ntp885
Rp886
(dp887
g13
I01
sg14
F-1.0
sg15
g884
sbs(I-20
I231
tp888
g0
(g9
g2
Ntp889
Rp890
(dp891
g13
I01
sg14
F1.0
sg15
g888
sbs(I-16
I226
tp892
g0
(g9
g2
Ntp893
Rp894
(dp895
g13
I01
sg14
F0.6298935864075753
sg15
g892
sbs(I-6
I226
tp896
g0
(g9
g2
Ntp897
Rp898
(dp899
g13
I01
sg14
F0.2587582670422373
sg15
g896
sbs(I231
I4
tp900
g0
(g9
g2
Ntp901
Rp902
(dp903
g13
I01
sg14
F-1.0
sg15
g900
sbs(I-12
I234
tp904
g0
(g9
g2
Ntp905
Rp906
(dp907
g13
I01
sg14
F-1.0
sg15
g904
sbs(I-11
I228
tp908
g0
(g9
g2
Ntp909
Rp910
(dp911
g13
I01
sg14
F0.34182383847705233
sg15
g908
sbs(I-17
I232
tp912
g0
(g9
g2
Ntp913
Rp914
(dp915
g13
I01
sg14
F0.48949658963300463
sg15
g912
sbs(I-7
I225
tp916
g0
(g9
g2
Ntp917
Rp918
(dp919
g13
I01
sg14
F1.0
sg15
g916
sbs(I-12
I229
tp920
g0
(g9
g2
Ntp921
Rp922
(dp923
g13
I01
sg14
F0.5310478233694365
sg15
g920
sbs(I-1
I228
tp924
g0
(g9
g2
Ntp925
Rp926
(dp927
g13
I01
sg14
F1.0
sg15
g924
sbs(I-18
I233
tp928
g0
(g9
g2
Ntp929
Rp930
(dp931
g13
I01
sg14
F-0.26461170794243355
sg15
g928
sbs(I-17
I229
tp932
g0
(g9
g2
Ntp933
Rp934
(dp935
g13
I01
sg14
F-0.26086528614646826
sg15
g932
sbs(I234
I4
tp936
g0
(g9
g2
Ntp937
Rp938
(dp939
g13
I01
sg14
F-0.485803514771163
sg15
g936
sbs(I225
I3
tp940
g0
(g9
g2
Ntp941
Rp942
(dp943
g13
I01
sg14
F0.44695350075354545
sg15
g940
sbs(I-3
I232
tp944
g0
(g9
g2
Ntp945
Rp946
(dp947
g13
I01
sg14
F-1.0
sg15
g944
sbs(I227
I0
tp948
g0
(g9
g2
Ntp949
Rp950
(dp951
g13
I01
sg14
F-0.3505808506485602
sg15
g948
sbs(I-14
I229
tp952
g0
(g9
g2
Ntp953
Rp954
(dp955
g13
I01
sg14
F0.7457664121436841
sg15
g952
sbs(I232
I0
tp956
g0
(g9
g2
Ntp957
Rp958
(dp959
g13
I01
sg14
F1.0
sg15
g956
sbs(I-4
I233
tp960
g0
(g9
g2
Ntp961
Rp962
(dp963
g13
I01
sg14
F-0.1698189722256138
sg15
g960
sbs(I-19
I229
tp964
g0
(g9
g2
Ntp965
Rp966
(dp967
g13
I01
sg14
F-1.0
sg15
g964
sbs(I-10
I229
tp968
g0
(g9
g2
Ntp969
Rp970
(dp971
g13
I01
sg14
F0.694656150318555
sg15
g968
sbs(I-9
I233
tp972
g0
(g9
g2
Ntp973
Rp974
(dp975
g13
I01
sg14
F-0.8245648551383175
sg15
g972
sbs(I-15
I226
tp976
g0
(g9
g2
Ntp977
Rp978
(dp979
g13
I01
sg14
F0.3041122569323949
sg15
g976
sbs(I-6
I232
tp980
g0
(g9
g2
Ntp981
Rp982
(dp983
g13
I01
sg14
F-0.6811596068513839
sg15
g980
sbs(I-5
I234
tp984
g0
(g9
g2
Ntp985
Rp986
(dp987
g13
I01
sg14
F-0.6655646431922199
sg15
g984
sbs(I-20
I228
tp988
g0
(g9
g2
Ntp989
Rp990
(dp991
g13
I01
sg14
F1.0
sg15
g988
sbs(I-11
I234
tp992
g0
(g9
g2
Ntp993
Rp994
(dp995
g13
I01
sg14
F-1.0
sg15
g992
sbs(I-10
I232
tp996
g0
(g9
g2
Ntp997
Rp998
(dp999
g13
I01
sg14
F0.3701700650084211
sg15
g996
sbs(I-6
I231
tp1000
g0
(g9
g2
Ntp1001
Rp1002
(dp1003
g13
I01
sg14
F0.13599642189059308
sg15
g1000
sbs(I-11
I231
tp1004
g0
(g9
g2
Ntp1005
Rp1006
(dp1007
g13
I01
sg14
F-1.0
sg15
g1004
sbs(I-8
I234
tp1008
g0
(g9
g2
Ntp1009
Rp1010
(dp1011
g13
I01
sg14
F0.601457826382937
sg15
g1008
sbssS'nodes'
p1012
(dp1013
I0
g0
(cneat.genes
DefaultNodeGene
p1014
g2
Ntp1015
Rp1016
(dp1017
S'activation'
p1018
S'sigmoid'
p1019
sS'bias'
p1020
F-0.27380846212212007
sS'response'
p1021
F1.0
sg15
I0
sS'aggregation'
p1022
S'product'
p1023
sbsI1
g0
(g1014
g2
Ntp1024
Rp1025
(dp1026
g1018
g1019
sg1020
F-1.0
sg1021
F1.0
sg15
I1
sg1022
g1023
sbsI2
g0
(g1014
g2
Ntp1027
Rp1028
(dp1029
g1018
g1019
sg1020
F-1.0
sg1021
F1.0
sg15
I2
sg1022
g1023
sbsI3
g0
(g1014
g2
Ntp1030
Rp1031
(dp1032
g1018
g1019
sg1020
F0.8285736736602983
sg1021
F1.0
sg15
I3
sg1022
g1023
sbsI4
g0
(g1014
g2
Ntp1033
Rp1034
(dp1035
g1018
g1019
sg1020
F0.7790811999298051
sg1021
F1.0
sg15
I4
sg1022
g1023
sbsI229
g0
(g1014
g2
Ntp1036
Rp1037
(dp1038
g1018
g1019
sg1020
F-0.9602213467720175
sg1021
F1.0
sg15
I229
sg1022
g1023
sbsI230
g0
(g1014
g2
Ntp1039
Rp1040
(dp1041
g1018
g1019
sg1020
F-0.7225469640796554
sg1021
F1.0
sg15
I230
sg1022
g1023
sbsI225
g0
(g1014
g2
Ntp1042
Rp1043
(dp1044
g1018
g1019
sg1020
F-1.0
sg1021
F1.0
sg15
I225
sg1022
g1023
sbsI232
g0
(g1014
g2
Ntp1045
Rp1046
(dp1047
g1018
g1019
sg1020
F0.0563427858338139
sg1021
F1.0
sg15
I232
sg1022
g1023
sbsI233
g0
(g1014
g2
Ntp1048
Rp1049
(dp1050
g1018
g1019
sg1020
F-0.6083989159890405
sg1021
F1.0
sg15
I233
sg1022
g1023
sbsI234
g0
(g1014
g2
Ntp1051
Rp1052
(dp1053
g1018
g1019
sg1020
F-0.9865230127780734
sg1021
F1.0
sg15
I234
sg1022
g1023
sbsI231
g0
(g1014
g2
Ntp1054
Rp1055
(dp1056
g1018
g1019
sg1020
F0.07541264963876354
sg1021
F1.0
sg15
I231
sg1022
g1023
sbsI226
g0
(g1014
g2
Ntp1057
Rp1058
(dp1059
g1018
g1019
sg1020
F1.0
sg1021
F1.0
sg15
I226
sg1022
g1023
sbsI227
g0
(g1014
g2
Ntp1060
Rp1061
(dp1062
g1018
g1019
sg1020
F0.6335007757015311
sg1021
F1.0
sg15
I227
sg1022
g1023
sbsI228
g0
(g1014
g2
Ntp1063
Rp1064
(dp1065
g1018
g1019
sg1020
F0.6663365011193758
sg1021
F1.0
sg15
I228
sg1022
g1023
sbssg15
I23
sS'fitness'
p1066
cnumpy.core.multiarray
scalar
p1067
(cnumpy
dtype
p1068
(S'f8'
p1069
I0
I1
tp1070
Rp1071
(I3
S'<'
p1072
NNNI-1
I-1
I0
tp1073
bS'b\x80\xe7\xf8\xb5a5@'
p1074
tp1075
Rp1076
sb.