ccopy_reg
_reconstructor
p0
(cneat.genome
DefaultGenome
p1
c__builtin__
object
p2
Ntp3
Rp4
(dp5
S'connections'
p6
(dp7
(I19
I4
tp8
g0
(cneat.genes
DefaultConnectionGene
p9
g2
Ntp10
Rp11
(dp12
S'enabled'
p13
I01
sS'weight'
p14
F0.7323281834967313
sS'key'
p15
g8
sbs(I-18
I18
tp16
g0
(g9
g2
Ntp17
Rp18
(dp19
g13
I01
sg14
F-0.5618640743642135
sg15
g16
sbs(I-1
I23
tp20
g0
(g9
g2
Ntp21
Rp22
(dp23
g13
I01
sg14
F-0.9173449972074772
sg15
g20
sbs(I18
I4
tp24
g0
(g9
g2
Ntp25
Rp26
(dp27
g13
I01
sg14
F0.0740293451845951
sg15
g24
sbs(I15
I1
tp28
g0
(g9
g2
Ntp29
Rp30
(dp31
g13
I01
sg14
F1.0
sg15
g28
sbs(I-16
I22
tp32
g0
(g9
g2
Ntp33
Rp34
(dp35
g13
I01
sg14
F0.17439408281009944
sg15
g32
sbs(I-20
I20
tp36
g0
(g9
g2
Ntp37
Rp38
(dp39
g13
I01
sg14
F-1.0
sg15
g36
sbs(I-20
I17
tp40
g0
(g9
g2
Ntp41
Rp42
(dp43
g13
I01
sg14
F-0.14038801484539365
sg15
g40
sbs(I-16
I23
tp44
g0
(g9
g2
Ntp45
Rp46
(dp47
g13
I01
sg14
F0.8404753634729343
sg15
g44
sbs(I-6
I17
tp48
g0
(g9
g2
Ntp49
Rp50
(dp51
g13
I01
sg14
F0.9422545248711764
sg15
g48
sbs(I-7
I15
tp52
g0
(g9
g2
Ntp53
Rp54
(dp55
g13
I01
sg14
F-1.0
sg15
g52
sbs(I19
I2
tp56
g0
(g9
g2
Ntp57
Rp58
(dp59
g13
I01
sg14
F-1.0
sg15
g56
sbs(I-19
I20
tp60
g0
(g9
g2
Ntp61
Rp62
(dp63
g13
I01
sg14
F-0.8435157254510355
sg15
g60
sbs(I20
I0
tp64
g0
(g9
g2
Ntp65
Rp66
(dp67
g13
I01
sg14
F1.0
sg15
g64
sbs(I-14
I20
tp68
g0
(g9
g2
Ntp69
Rp70
(dp71
g13
I01
sg14
F0.5548836981519237
sg15
g68
sbs(I-3
I17
tp72
g0
(g9
g2
Ntp73
Rp74
(dp75
g13
I01
sg14
F1.0
sg15
g72
sbs(I-17
I16
tp76
g0
(g9
g2
Ntp77
Rp78
(dp79
g13
I01
sg14
F-0.361911799472784
sg15
g76
sbs(I16
I3
tp80
g0
(g9
g2
Ntp81
Rp82
(dp83
g13
I01
sg14
F-1.0
sg15
g80
sbs(I-18
I24
tp84
g0
(g9
g2
Ntp85
Rp86
(dp87
g13
I01
sg14
F1.0
sg15
g84
sbs(I-13
I24
tp88
g0
(g9
g2
Ntp89
Rp90
(dp91
g13
I01
sg14
F0.4662082475484588
sg15
g88
sbs(I-8
I24
tp92
g0
(g9
g2
Ntp93
Rp94
(dp95
g13
I01
sg14
F-0.6668362314094326
sg15
g92
sbs(I-18
I15
tp96
g0
(g9
g2
Ntp97
Rp98
(dp99
g13
I01
sg14
F-0.12535675255479944
sg15
g96
sbs(I-1
I16
tp100
g0
(g9
g2
Ntp101
Rp102
(dp103
g13
I01
sg14
F1.0
sg15
g100
sbs(I-12
I19
tp104
g0
(g9
g2
Ntp105
Rp106
(dp107
g13
I01
sg14
F0.5934481484959641
sg15
g104
sbs(I15
I4
tp108
g0
(g9
g2
Ntp109
Rp110
(dp111
g13
I01
sg14
F0.4575984224480889
sg15
g108
sbs(I-7
I21
tp112
g0
(g9
g2
Ntp113
Rp114
(dp115
g13
I01
sg14
F0.17352452934324245
sg15
g112
sbs(I-16
I19
tp116
g0
(g9
g2
Ntp117
Rp118
(dp119
g13
I01
sg14
F-0.8402768293637337
sg15
g116
sbs(I20
I4
tp120
g0
(g9
g2
Ntp121
Rp122
(dp123
g13
I01
sg14
F-0.23023024925545238
sg15
g120
sbs(I-11
I18
tp124
g0
(g9
g2
Ntp125
Rp126
(dp127
g13
I01
sg14
F-0.4120395986328145
sg15
g124
sbs(I-20
I22
tp128
g0
(g9
g2
Ntp129
Rp130
(dp131
g13
I01
sg14
F1.0
sg15
g128
sbs(I-5
I22
tp132
g0
(g9
g2
Ntp133
Rp134
(dp135
g13
I01
sg14
F-0.06387871058442052
sg15
g132
sbs(I-6
I18
tp136
g0
(g9
g2
Ntp137
Rp138
(dp139
g13
I01
sg14
F0.9886813011623852
sg15
g136
sbs(I-15
I18
tp140
g0
(g9
g2
Ntp141
Rp142
(dp143
g13
I01
sg14
F-1.0
sg15
g140
sbs(I-9
I19
tp144
g0
(g9
g2
Ntp145
Rp146
(dp147
g13
I01
sg14
F-1.0
sg15
g144
sbs(I-11
I15
tp148
g0
(g9
g2
Ntp149
Rp150
(dp151
g13
I01
sg14
F-1.0
sg15
g148
sbs(I-4
I17
tp152
g0
(g9
g2
Ntp153
Rp154
(dp155
g13
I01
sg14
F-1.0
sg15
g152
sbs(I-20
I23
tp156
g0
(g9
g2
Ntp157
Rp158
(dp159
g13
I01
sg14
F1.0
sg15
g156
sbs(I-2
I23
tp160
g0
(g9
g2
Ntp161
Rp162
(dp163
g13
I01
sg14
F-1.0
sg15
g160
sbs(I-3
I20
tp164
g0
(g9
g2
Ntp165
Rp166
(dp167
g13
I01
sg14
F0.9057374553659451
sg15
g164
sbs(I-4
I15
tp168
g0
(g9
g2
Ntp169
Rp170
(dp171
g13
I01
sg14
F0.7178184740320928
sg15
g168
sbs(I16
I0
tp172
g0
(g9
g2
Ntp173
Rp174
(dp175
g13
I01
sg14
F1.0
sg15
g172
sbs(I-18
I21
tp176
g0
(g9
g2
Ntp177
Rp178
(dp179
g13
I01
sg14
F-1.0
sg15
g176
sbs(I-13
I23
tp180
g0
(g9
g2
Ntp181
Rp182
(dp183
g13
I01
sg14
F-0.346747864238482
sg15
g180
sbs(I24
I4
tp184
g0
(g9
g2
Ntp185
Rp186
(dp187
g13
I01
sg14
F-0.9028815945342576
sg15
g184
sbs(I-8
I21
tp188
g0
(g9
g2
Ntp189
Rp190
(dp191
g13
I01
sg14
F0.9117514874334316
sg15
g188
sbs(I-11
I24
tp192
g0
(g9
g2
Ntp193
Rp194
(dp195
g13
I01
sg14
F-1.0
sg15
g192
sbs(I-12
I16
tp196
g0
(g9
g2
Ntp197
Rp198
(dp199
g13
I01
sg14
F-0.6091472826174223
sg15
g196
sbs(I-6
I24
tp200
g0
(g9
g2
Ntp201
Rp202
(dp203
g13
I01
sg14
F0.7097084357931077
sg15
g200
sbs(I-7
I16
tp204
g0
(g9
g2
Ntp205
Rp206
(dp207
g13
I01
sg14
F1.0
sg15
g204
sbs(I-16
I16
tp208
g0
(g9
g2
Ntp209
Rp210
(dp211
g13
I01
sg14
F-0.8524326873978605
sg15
g208
sbs(I-10
I23
tp212
g0
(g9
g2
Ntp213
Rp214
(dp215
g13
I01
sg14
F-0.05450575330384911
sg15
g212
sbs(I-11
I21
tp216
g0
(g9
g2
Ntp217
Rp218
(dp219
g13
I01
sg14
F-1.0
sg15
g216
sbs(I-5
I21
tp220
g0
(g9
g2
Ntp221
Rp222
(dp223
g13
I01
sg14
F-0.9690644254047821
sg15
g220
sbs(I-6
I23
tp224
g0
(g9
g2
Ntp225
Rp226
(dp227
g13
I01
sg14
F0.3317554371425338
sg15
g224
sbs(I-9
I22
tp228
g0
(g9
g2
Ntp229
Rp230
(dp231
g13
I01
sg14
F-0.12960913027512913
sg15
g228
sbs(I-4
I22
tp232
g0
(g9
g2
Ntp233
Rp234
(dp235
g13
I01
sg14
F0.8879822477092266
sg15
g232
sbs(I-14
I15
tp236
g0
(g9
g2
Ntp237
Rp238
(dp239
g13
I01
sg14
F0.4040048116908752
sg15
g236
sbs(I-14
I23
tp240
g0
(g9
g2
Ntp241
Rp242
(dp243
g13
I01
sg14
F-0.32382484720862953
sg15
g240
sbs(I-3
I23
tp244
g0
(g9
g2
Ntp245
Rp246
(dp247
g13
I01
sg14
F0.6618776160421124
sg15
g244
sbs(I19
I1
tp248
g0
(g9
g2
Ntp249
Rp250
(dp251
g13
I01
sg14
F-0.28209267135903754
sg15
g248
sbs(I-17
I17
tp252
g0
(g9
g2
Ntp253
Rp254
(dp255
g13
I01
sg14
F-0.47012501982972893
sg15
g252
sbs(I-18
I22
tp256
g0
(g9
g2
Ntp257
Rp258
(dp259
g13
I01
sg14
F0.9839610502248514
sg15
g256
sbs(I18
I0
tp260
g0
(g9
g2
Ntp261
Rp262
(dp263
g13
I01
sg14
F0.8760060641570856
sg15
g260
sbs(I-13
I18
tp264
g0
(g9
g2
Ntp265
Rp266
(dp267
g13
I01
sg14
F-0.5920197195557847
sg15
g264
sbs(I-8
I18
tp268
g0
(g9
g2
Ntp269
Rp270
(dp271
g13
I01
sg14
F1.0
sg15
g268
sbs(I20
I3
tp272
g0
(g9
g2
Ntp273
Rp274
(dp275
g13
I01
sg14
F-0.3995063388669984
sg15
g272
sbs(I-12
I21
tp276
g0
(g9
g2
Ntp277
Rp278
(dp279
g13
I01
sg14
F1.0
sg15
g276
sbs(I-7
I19
tp280
g0
(g9
g2
Ntp281
Rp282
(dp283
g13
I01
sg14
F-1.0
sg15
g280
sbs(I21
I2
tp284
g0
(g9
g2
Ntp285
Rp286
(dp287
g13
I01
sg14
F-1.0
sg15
g284
sbs(I-10
I16
tp288
g0
(g9
g2
Ntp289
Rp290
(dp291
g13
I01
sg14
F-0.3152174095246699
sg15
g288
sbs(I-19
I16
tp292
g0
(g9
g2
Ntp293
Rp294
(dp295
g13
I01
sg14
F1.0
sg15
g292
sbs(I-20
I24
tp296
g0
(g9
g2
Ntp297
Rp298
(dp299
g13
I01
sg14
F-0.2919531312785238
sg15
g296
sbs(I-5
I16
tp300
g0
(g9
g2
Ntp301
Rp302
(dp303
g13
I01
sg14
F-0.6792928386018129
sg15
g300
sbs(I-14
I16
tp304
g0
(g9
g2
Ntp305
Rp306
(dp307
g13
I01
sg14
F-1.0
sg15
g304
sbs(I-15
I24
tp308
g0
(g9
g2
Ntp309
Rp310
(dp311
g13
I01
sg14
F0.7911900893618452
sg15
g308
sbs(I-9
I21
tp312
g0
(g9
g2
Ntp313
Rp314
(dp315
g13
I01
sg14
F0.5354508904967091
sg15
g312
sbs(I-1
I15
tp316
g0
(g9
g2
Ntp317
Rp318
(dp319
g13
I01
sg14
F0.655405949475893
sg15
g316
sbs(I-1
I22
tp320
g0
(g9
g2
Ntp321
Rp322
(dp323
g13
I01
sg14
F0.4278174927110569
sg15
g320
sbs(I19
I0
tp324
g0
(g9
g2
Ntp325
Rp326
(dp327
g13
I01
sg14
F-0.0417056716129029
sg15
g324
sbs(I-20
I15
tp328
g0
(g9
g2
Ntp329
Rp330
(dp331
g13
I01
sg14
F-0.5663069819354666
sg15
g328
sbs(I21
I0
tp332
g0
(g9
g2
Ntp333
Rp334
(dp335
g13
I01
sg14
F1.0
sg15
g332
sbs(I-18
I19
tp336
g0
(g9
g2
Ntp337
Rp338
(dp339
g13
I01
sg14
F-0.7242674989052063
sg15
g336
sbs(I-1
I20
tp340
g0
(g9
g2
Ntp341
Rp342
(dp343
g13
I01
sg14
F0.8731141942081622
sg15
g340
sbs(I-13
I17
tp344
g0
(g9
g2
Ntp345
Rp346
(dp347
g13
I01
sg14
F0.003774313036241603
sg15
g344
sbs(I15
I0
tp348
g0
(g9
g2
Ntp349
Rp350
(dp351
g13
I01
sg14
F-1.0
sg15
g348
sbs(I-8
I15
tp352
g0
(g9
g2
Ntp353
Rp354
(dp355
g13
I01
sg14
F0.47050935890884116
sg15
g352
sbs(I-1
I24
tp356
g0
(g9
g2
Ntp357
Rp358
(dp359
g13
I01
sg14
F0.34142453274552514
sg15
g356
sbs(I-20
I18
tp360
g0
(g9
g2
Ntp361
Rp362
(dp363
g13
I01
sg14
F-0.31624657616218166
sg15
g360
sbs(I-15
I22
tp364
g0
(g9
g2
Ntp365
Rp366
(dp367
g13
I01
sg14
F1.0
sg15
g364
sbs(I-19
I19
tp368
g0
(g9
g2
Ntp369
Rp370
(dp371
g13
I01
sg14
F-0.2636000269619528
sg15
g368
sbs(I-14
I21
tp372
g0
(g9
g2
Ntp373
Rp374
(dp375
g13
I01
sg14
F-1.0
sg15
g372
sbs(I-9
I24
tp376
g0
(g9
g2
Ntp377
Rp378
(dp379
g13
I01
sg14
F1.0
sg15
g376
sbs(I-3
I16
tp380
g0
(g9
g2
Ntp381
Rp382
(dp383
g13
I01
sg14
F1.0
sg15
g380
sbs(I-4
I24
tp384
g0
(g9
g2
Ntp385
Rp386
(dp387
g13
I01
sg14
F-0.059909785999048906
sg15
g384
sbs(I23
I2
tp388
g0
(g9
g2
Ntp389
Rp390
(dp391
g13
I01
sg14
F-0.620911270273717
sg15
g388
sbs(I-2
I15
tp392
g0
(g9
g2
Ntp393
Rp394
(dp395
g13
I01
sg14
F0.018669723779817817
sg15
g392
sbs(I16
I4
tp396
g0
(g9
g2
Ntp397
Rp398
(dp399
g13
I01
sg14
F-1.0
sg15
g396
sbs(I-17
I22
tp400
g0
(g9
g2
Ntp401
Rp402
(dp403
g13
I01
sg14
F-1.0
sg15
g400
sbs(I17
I1
tp404
g0
(g9
g2
Ntp405
Rp406
(dp407
g13
I01
sg14
F1.0
sg15
g404
sbs(I-2
I17
tp408
g0
(g9
g2
Ntp409
Rp410
(dp411
g13
I01
sg14
F-0.3730561650908213
sg15
g408
sbs(I23
I0
tp412
g0
(g9
g2
Ntp413
Rp414
(dp415
g13
I01
sg14
F-1.0
sg15
g412
sbs(I24
I2
tp416
g0
(g9
g2
Ntp417
Rp418
(dp419
g13
I01
sg14
F0.32972008270337316
sg15
g416
sbs(I-7
I20
tp420
g0
(g9
g2
Ntp421
Rp422
(dp423
g13
I01
sg14
F0.24102334919684779
sg15
g420
sbs(I-16
I20
tp424
g0
(g9
g2
Ntp425
Rp426
(dp427
g13
I01
sg14
F-0.6058631327496734
sg15
g424
sbs(I-11
I17
tp428
g0
(g9
g2
Ntp429
Rp430
(dp431
g13
I01
sg14
F0.49950862963448783
sg15
g428
sbs(I-12
I15
tp432
g0
(g9
g2
Ntp433
Rp434
(dp435
g13
I01
sg14
F-0.06978630484486585
sg15
g432
sbs(I-6
I19
tp436
g0
(g9
g2
Ntp437
Rp438
(dp439
g13
I01
sg14
F1.0
sg15
g436
sbs(I-15
I17
tp440
g0
(g9
g2
Ntp441
Rp442
(dp443
g13
I01
sg14
F0.04272494312296843
sg15
g440
sbs(I-9
I18
tp444
g0
(g9
g2
Ntp445
Rp446
(dp447
g13
I01
sg14
F-1.0
sg15
g444
sbs(I-19
I22
tp448
g0
(g9
g2
Ntp449
Rp450
(dp451
g13
I01
sg14
F-0.5258975204999944
sg15
g448
sbs(I-4
I18
tp452
g0
(g9
g2
Ntp453
Rp454
(dp455
g13
I01
sg14
F-0.9716858143971768
sg15
g452
sbs(I-14
I22
tp456
g0
(g9
g2
Ntp457
Rp458
(dp459
g13
I01
sg14
F1.0
sg15
g456
sbs(I-3
I19
tp460
g0
(g9
g2
Ntp461
Rp462
(dp463
g13
I01
sg14
F0.762297915396554
sg15
g460
sbs(I-5
I15
tp464
g0
(g9
g2
Ntp465
Rp466
(dp467
g13
I01
sg14
F-0.058097731813143684
sg15
g464
sbs(I22
I1
tp468
g0
(g9
g2
Ntp469
Rp470
(dp471
g13
I01
sg14
F0.9388929693562861
sg15
g468
sbs(I-1
I17
tp472
g0
(g9
g2
Ntp473
Rp474
(dp475
g13
I01
sg14
F0.07137188765108594
sg15
g472
sbs(I16
I1
tp476
g0
(g9
g2
Ntp477
Rp478
(dp479
g13
I01
sg14
F1.0
sg15
g476
sbs(I23
I1
tp480
g0
(g9
g2
Ntp481
Rp482
(dp483
g13
I01
sg14
F-1.0
sg15
g480
sbs(I-13
I22
tp484
g0
(g9
g2
Ntp485
Rp486
(dp487
g13
I01
sg14
F-0.10616076323618225
sg15
g484
sbs(I19
I3
tp488
g0
(g9
g2
Ntp489
Rp490
(dp491
g13
I01
sg14
F0.11677677945217092
sg15
g488
sbs(I-8
I22
tp492
g0
(g9
g2
Ntp493
Rp494
(dp495
g13
I01
sg14
F-0.6516819867406243
sg15
g492
sbs(I-1
I18
tp496
g0
(g9
g2
Ntp497
Rp498
(dp499
g13
I01
sg14
F0.9230199771518207
sg15
g496
sbs(I-12
I17
tp500
g0
(g9
g2
Ntp501
Rp502
(dp503
g13
I01
sg14
F1.0
sg15
g500
sbs(I-7
I23
tp504
g0
(g9
g2
Ntp505
Rp506
(dp507
g13
I01
sg14
F-1.0
sg15
g504
sbs(I-16
I17
tp508
g0
(g9
g2
Ntp509
Rp510
(dp511
g13
I01
sg14
F-1.0
sg15
g508
sbs(I-10
I20
tp512
g0
(g9
g2
Ntp513
Rp514
(dp515
g13
I01
sg14
F0.5975797631411827
sg15
g512
sbs(I-11
I20
tp516
g0
(g9
g2
Ntp517
Rp518
(dp519
g13
I01
sg14
F0.6529495086416188
sg15
g516
sbs(I-19
I15
tp520
g0
(g9
g2
Ntp521
Rp522
(dp523
g13
I01
sg14
F-0.7365601799929663
sg15
g520
sbs(I-5
I20
tp524
g0
(g9
g2
Ntp525
Rp526
(dp527
g13
I01
sg14
F1.0
sg15
g524
sbs(I-6
I20
tp528
g0
(g9
g2
Ntp529
Rp530
(dp531
g13
I01
sg14
F1.0
sg15
g528
sbs(I-9
I17
tp532
g0
(g9
g2
Ntp533
Rp534
(dp535
g13
I01
sg14
F0.8742417295433412
sg15
g532
sbs(I-4
I23
tp536
g0
(g9
g2
Ntp537
Rp538
(dp539
g13
I01
sg14
F-0.19068572986077098
sg15
g536
sbs(I-3
I22
tp540
g0
(g9
g2
Ntp541
Rp542
(dp543
g13
I01
sg14
F0.18978277028614834
sg15
g540
sbs(I-9
I15
tp544
g0
(g9
g2
Ntp545
Rp546
(dp547
g13
I01
sg14
F0.548192159492911
sg15
g544
sbs(I-18
I23
tp548
g0
(g9
g2
Ntp549
Rp550
(dp551
g13
I01
sg14
F0.2928829988153524
sg15
g548
sbs(I-2
I24
tp552
g0
(g9
g2
Ntp553
Rp554
(dp555
g13
I01
sg14
F1.0
sg15
g552
sbs(I18
I1
tp556
g0
(g9
g2
Ntp557
Rp558
(dp559
g13
I01
sg14
F0.6888801087284598
sg15
g556
sbs(I-13
I21
tp560
g0
(g9
g2
Ntp561
Rp562
(dp563
g13
I01
sg14
F-1.0
sg15
g560
sbs(I17
I2
tp564
g0
(g9
g2
Ntp565
Rp566
(dp567
g13
I01
sg14
F1.0
sg15
g564
sbs(I-8
I19
tp568
g0
(g9
g2
Ntp569
Rp570
(dp571
g13
I01
sg14
F0.6429685182715039
sg15
g568
sbs(I-12
I22
tp572
g0
(g9
g2
Ntp573
Rp574
(dp575
g13
I01
sg14
F-0.3938879101122448
sg15
g572
sbs(I-7
I18
tp576
g0
(g9
g2
Ntp577
Rp578
(dp579
g13
I01
sg14
F0.4389058062611007
sg15
g576
sbs(I21
I1
tp580
g0
(g9
g2
Ntp581
Rp582
(dp583
g13
I01
sg14
F-0.07533237907781568
sg15
g580
sbs(I-10
I17
tp584
g0
(g9
g2
Ntp585
Rp586
(dp587
g13
I01
sg14
F-1.0
sg15
g584
sbs(I-11
I23
tp588
g0
(g9
g2
Ntp589
Rp590
(dp591
g13
I01
sg14
F-1.0
sg15
g588
sbs(I-5
I19
tp592
g0
(g9
g2
Ntp593
Rp594
(dp595
g13
I01
sg14
F-0.6595001264300834
sg15
g592
sbs(I-14
I17
tp596
g0
(g9
g2
Ntp597
Rp598
(dp599
g13
I01
sg14
F-0.42010474179414464
sg15
g596
sbs(I22
I0
tp600
g0
(g9
g2
Ntp601
Rp602
(dp603
g13
I01
sg14
F-0.4671394375291115
sg15
g600
sbs(I-9
I20
tp604
g0
(g9
g2
Ntp605
Rp606
(dp607
g13
I01
sg14
F0.08254566591655109
sg15
g604
sbs(I-4
I20
tp608
g0
(g9
g2
Ntp609
Rp610
(dp611
g13
I01
sg14
F1.0
sg15
g608
sbs(I-2
I16
tp612
g0
(g9
g2
Ntp613
Rp614
(dp615
g13
I01
sg14
F-0.45994621071403213
sg15
g612
sbs(I-17
I24
tp616
g0
(g9
g2
Ntp617
Rp618
(dp619
g13
I01
sg14
F-0.3298158631404365
sg15
g616
sbs(I-18
I16
tp620
g0
(g9
g2
Ntp621
Rp622
(dp623
g13
I01
sg14
F0.13835893847437952
sg15
g620
sbs(I-1
I21
tp624
g0
(g9
g2
Ntp625
Rp626
(dp627
g13
I01
sg14
F1.0
sg15
g624
sbs(I-12
I24
tp628
g0
(g9
g2
Ntp629
Rp630
(dp631
g13
I01
sg14
F0.8946182906108169
sg15
g628
sbs(I-13
I16
tp632
g0
(g9
g2
Ntp633
Rp634
(dp635
g13
I01
sg14
F1.0
sg15
g632
sbs(I15
I3
tp636
g0
(g9
g2
Ntp637
Rp638
(dp639
g13
I01
sg14
F-1.0
sg15
g636
sbs(I-7
I24
tp640
g0
(g9
g2
Ntp641
Rp642
(dp643
g13
I01
sg14
F-0.29461758219107503
sg15
g640
sbs(I-8
I16
tp644
g0
(g9
g2
Ntp645
Rp646
(dp647
g13
I01
sg14
F-0.18791441876228682
sg15
g644
sbs(I20
I1
tp648
g0
(g9
g2
Ntp649
Rp650
(dp651
g13
I01
sg14
F0.7327110578763207
sg15
g648
sbs(I-20
I19
tp652
g0
(g9
g2
Ntp653
Rp654
(dp655
g13
I01
sg14
F0.7492428019533839
sg15
g652
sbs(I-17
I23
tp656
g0
(g9
g2
Ntp657
Rp658
(dp659
g13
I01
sg14
F1.0
sg15
g656
sbs(I-15
I21
tp660
g0
(g9
g2
Ntp661
Rp662
(dp663
g13
I01
sg14
F0.4807699030623155
sg15
g660
sbs(I21
I4
tp664
g0
(g9
g2
Ntp665
Rp666
(dp667
g13
I01
sg14
F0.17786690882053488
sg15
g664
sbs(I-10
I18
tp668
g0
(g9
g2
Ntp669
Rp670
(dp671
g13
I01
sg14
F1.0
sg15
g668
sbs(I-19
I18
tp672
g0
(g9
g2
Ntp673
Rp674
(dp675
g13
I01
sg14
F-0.4843725951580498
sg15
g672
sbs(I-14
I18
tp676
g0
(g9
g2
Ntp677
Rp678
(dp679
g13
I01
sg14
F1.0
sg15
g676
sbs(I23
I3
tp680
g0
(g9
g2
Ntp681
Rp682
(dp683
g13
I01
sg14
F0.21786448520053403
sg15
g680
sbs(I17
I0
tp684
g0
(g9
g2
Ntp685
Rp686
(dp687
g13
I01
sg14
F0.12935615664072758
sg15
g684
sbs(I-2
I22
tp688
g0
(g9
g2
Ntp689
Rp690
(dp691
g13
I01
sg14
F0.44614911942304997
sg15
g688
sbs(I-13
I15
tp692
g0
(g9
g2
Ntp693
Rp694
(dp695
g13
I01
sg14
F0.7860771082986844
sg15
g692
sbs(I24
I3
tp696
g0
(g9
g2
Ntp697
Rp698
(dp699
g13
I01
sg14
F0.1931621413611025
sg15
g696
sbs(I17
I3
tp700
g0
(g9
g2
Ntp701
Rp702
(dp703
g13
I01
sg14
F-0.861750306154269
sg15
g700
sbs(I-16
I21
tp704
g0
(g9
g2
Ntp705
Rp706
(dp707
g13
I01
sg14
F0.6837684076909948
sg15
g704
sbs(I-11
I16
tp708
g0
(g9
g2
Ntp709
Rp710
(dp711
g13
I01
sg14
F0.7277426722753787
sg15
g708
sbs(I-20
I16
tp712
g0
(g9
g2
Ntp713
Rp714
(dp715
g13
I01
sg14
F1.0
sg15
g712
sbs(I-6
I16
tp716
g0
(g9
g2
Ntp717
Rp718
(dp719
g13
I01
sg14
F-0.5309231178504528
sg15
g716
sbs(I-15
I16
tp720
g0
(g9
g2
Ntp721
Rp722
(dp723
g13
I01
sg14
F0.3559829384518469
sg15
g720
sbs(I-16
I24
tp724
g0
(g9
g2
Ntp725
Rp726
(dp727
g13
I01
sg14
F-0.27638092447858376
sg15
g724
sbs(I-19
I21
tp728
g0
(g9
g2
Ntp729
Rp730
(dp731
g13
I01
sg14
F0.2827873434223211
sg15
g728
sbs(I-4
I19
tp732
g0
(g9
g2
Ntp733
Rp734
(dp735
g13
I01
sg14
F-0.6144448736050447
sg15
g732
sbs(I-6
I15
tp736
g0
(g9
g2
Ntp737
Rp738
(dp739
g13
I01
sg14
F1.0
sg15
g736
sbs(I22
I3
tp740
g0
(g9
g2
Ntp741
Rp742
(dp743
g13
I01
sg14
F-0.9163026907071834
sg15
g740
sbs(I23
I4
tp744
g0
(g9
g2
Ntp745
Rp746
(dp747
g13
I01
sg14
F-0.27652381144077354
sg15
g744
sbs(I-3
I18
tp748
g0
(g9
g2
Ntp749
Rp750
(dp751
g13
I01
sg14
F1.0
sg15
g748
sbs(I-16
I15
tp752
g0
(g9
g2
Ntp753
Rp754
(dp755
g13
I01
sg14
F-0.20987588175199845
sg15
g752
sbs(I-15
I23
tp756
g0
(g9
g2
Ntp757
Rp758
(dp759
g13
I01
sg14
F-0.1192408160430491
sg15
g756
sbs(I16
I2
tp760
g0
(g9
g2
Ntp761
Rp762
(dp763
g13
I01
sg14
F-1.0
sg15
g760
sbs(I-2
I19
tp764
g0
(g9
g2
Ntp765
Rp766
(dp767
g13
I01
sg14
F-1.0
sg15
g764
sbs(I-19
I23
tp768
g0
(g9
g2
Ntp769
Rp770
(dp771
g13
I01
sg14
F-1.0
sg15
g768
sbs(I-8
I23
tp772
g0
(g9
g2
Ntp773
Rp774
(dp775
g13
I01
sg14
F-0.1309968410418889
sg15
g772
sbs(I-1
I19
tp776
g0
(g9
g2
Ntp777
Rp778
(dp779
g13
I01
sg14
F0.8954109360131249
sg15
g776
sbs(I-12
I18
tp780
g0
(g9
g2
Ntp781
Rp782
(dp783
g13
I01
sg14
F-0.27422315012970655
sg15
g780
sbs(I24
I0
tp784
g0
(g9
g2
Ntp785
Rp786
(dp787
g13
I01
sg14
F-1.0
sg15
g784
sbs(I-7
I22
tp788
g0
(g9
g2
Ntp789
Rp790
(dp791
g13
I01
sg14
F0.39399896113046445
sg15
g788
sbs(I-16
I18
tp792
g0
(g9
g2
Ntp793
Rp794
(dp795
g13
I01
sg14
F-0.19564274853243296
sg15
g792
sbs(I-10
I21
tp796
g0
(g9
g2
Ntp797
Rp798
(dp799
g13
I01
sg14
F0.19485716887065005
sg15
g796
sbs(I-11
I19
tp800
g0
(g9
g2
Ntp801
Rp802
(dp803
g13
I01
sg14
F1.0
sg15
g800
sbs(I-20
I21
tp804
g0
(g9
g2
Ntp805
Rp806
(dp807
g13
I01
sg14
F-0.5798372989339748
sg15
g804
sbs(I-5
I23
tp808
g0
(g9
g2
Ntp809
Rp810
(dp811
g13
I01
sg14
F-0.3277784936226901
sg15
g808
sbs(I-6
I21
tp812
g0
(g9
g2
Ntp813
Rp814
(dp815
g13
I01
sg14
F-1.0
sg15
g812
sbs(I-15
I19
tp816
g0
(g9
g2
Ntp817
Rp818
(dp819
g13
I01
sg14
F0.9488904289206059
sg15
g816
sbs(I-9
I16
tp820
g0
(g9
g2
Ntp821
Rp822
(dp823
g13
I01
sg14
F0.3349077735530398
sg15
g820
sbs(I-2
I21
tp824
g0
(g9
g2
Ntp825
Rp826
(dp827
g13
I01
sg14
F0.944626657043967
sg15
g824
sbs(I-19
I24
tp828
g0
(g9
g2
Ntp829
Rp830
(dp831
g13
I01
sg14
F-1.0
sg15
g828
sbs(I-4
I16
tp832
g0
(g9
g2
Ntp833
Rp834
(dp835
g13
I01
sg14
F-0.9378655451397587
sg15
g832
sbs(I-5
I24
tp836
g0
(g9
g2
Ntp837
Rp838
(dp839
g13
I01
sg14
F-0.42476658127858047
sg15
g836
sbs(I-14
I24
tp840
g0
(g9
g2
Ntp841
Rp842
(dp843
g13
I01
sg14
F1.0
sg15
g840
sbs(I18
I2
tp844
g0
(g9
g2
Ntp845
Rp846
(dp847
g13
I01
sg14
F0.1324919953206037
sg15
g844
sbs(I-10
I15
tp848
g0
(g9
g2
Ntp849
Rp850
(dp851
g13
I01
sg14
F1.0
sg15
g848
sbs(I-3
I21
tp852
g0
(g9
g2
Ntp853
Rp854
(dp855
g13
I01
sg14
F0.41009917248613237
sg15
g852
sbs(I-17
I15
tp856
g0
(g9
g2
Ntp857
Rp858
(dp859
g13
I01
sg14
F-0.14533767602112405
sg15
g856
sbs(I24
I1
tp860
g0
(g9
g2
Ntp861
Rp862
(dp863
g13
I01
sg14
F1.0
sg15
g860
sbs(I-17
I20
tp864
g0
(g9
g2
Ntp865
Rp866
(dp867
g13
I01
sg14
F-1.0
sg15
g864
sbs(I-18
I20
tp868
g0
(g9
g2
Ntp869
Rp870
(dp871
g13
I01
sg14
F-0.21541211389770146
sg15
g868
sbs(I-3
I15
tp872
g0
(g9
g2
Ntp873
Rp874
(dp875
g13
I01
sg14
F-1.0
sg15
g872
sbs(I-13
I20
tp876
g0
(g9
g2
Ntp877
Rp878
(dp879
g13
I01
sg14
F0.58328945320917
sg15
g876
sbs(I-8
I20
tp880
g0
(g9
g2
Ntp881
Rp882
(dp883
g13
I01
sg14
F-0.8760085799756407
sg15
g880
sbs(I-12
I23
tp884
g0
(g9
g2
Ntp885
Rp886
(dp887
g13
I01
sg14
F-0.742718459364535
sg15
g884
sbs(I-17
I21
tp888
g0
(g9
g2
Ntp889
Rp890
(dp891
g13
I01
sg14
F0.28059508125661875
sg15
g888
sbs(I-7
I17
tp892
g0
(g9
g2
Ntp893
Rp894
(dp895
g13
I01
sg14
F1.0
sg15
g892
sbs(I-17
I18
tp896
g0
(g9
g2
Ntp897
Rp898
(dp899
g13
I01
sg14
F-0.8533182521027202
sg15
g896
sbs(I-10
I22
tp900
g0
(g9
g2
Ntp901
Rp902
(dp903
g13
I01
sg14
F1.0
sg15
g900
sbs(I-11
I22
tp904
g0
(g9
g2
Ntp905
Rp906
(dp907
g13
I01
sg14
F-0.47334505436911933
sg15
g904
sbs(I-5
I18
tp908
g0
(g9
g2
Ntp909
Rp910
(dp911
g13
I01
sg14
F-0.7724051296937872
sg15
g908
sbs(I-6
I22
tp912
g0
(g9
g2
Ntp913
Rp914
(dp915
g13
I01
sg14
F-0.9773285132049835
sg15
g912
sbs(I-9
I23
tp916
g0
(g9
g2
Ntp917
Rp918
(dp919
g13
I01
sg14
F-0.16718007238758298
sg15
g916
sbs(I-4
I21
tp920
g0
(g9
g2
Ntp921
Rp922
(dp923
g13
I01
sg14
F0.2548378065571576
sg15
g920
sbs(I22
I2
tp924
g0
(g9
g2
Ntp925
Rp926
(dp927
g13
I01
sg14
F1.0
sg15
g924
sbs(I-3
I24
tp928
g0
(g9
g2
Ntp929
Rp930
(dp931
g13
I01
sg14
F-0.6010697443096725
sg15
g928
sbs(I-17
I19
tp932
g0
(g9
g2
Ntp933
Rp934
(dp935
g13
I01
sg14
F-0.5762702927132893
sg15
g932
sbs(I17
I4
tp936
g0
(g9
g2
Ntp937
Rp938
(dp939
g13
I01
sg14
F-0.9703581497033281
sg15
g936
sbs(I-10
I24
tp940
g0
(g9
g2
Ntp941
Rp942
(dp943
g13
I01
sg14
F-0.18103610918510452
sg15
g940
sbs(I-18
I17
tp944
g0
(g9
g2
Ntp945
Rp946
(dp947
g13
I01
sg14
F-0.2778251685036028
sg15
g944
sbs(I-2
I18
tp948
g0
(g9
g2
Ntp949
Rp950
(dp951
g13
I01
sg14
F0.7716215034657568
sg15
g948
sbs(I18
I3
tp952
g0
(g9
g2
Ntp953
Rp954
(dp955
g13
I01
sg14
F0.5714601748376983
sg15
g952
sbs(I-13
I19
tp956
g0
(g9
g2
Ntp957
Rp958
(dp959
g13
I01
sg14
F0.261928544516071
sg15
g956
sbs(I15
I2
tp960
g0
(g9
g2
Ntp961
Rp962
(dp963
g13
I01
sg14
F1.0
sg15
g960
sbs(I22
I4
tp964
g0
(g9
g2
Ntp965
Rp966
(dp967
g13
I01
sg14
F1.0
sg15
g964
sbs(I-8
I17
tp968
g0
(g9
g2
Ntp969
Rp970
(dp971
g13
I01
sg14
F1.0
sg15
g968
sbs(I20
I2
tp972
g0
(g9
g2
Ntp973
Rp974
(dp975
g13
I01
sg14
F-1.0
sg15
g972
sbs(I-12
I20
tp976
g0
(g9
g2
Ntp977
Rp978
(dp979
g13
I01
sg14
F0.9449990218921385
sg15
g976
sbs(I-15
I20
tp980
g0
(g9
g2
Ntp981
Rp982
(dp983
g13
I01
sg14
F-1.0
sg15
g980
sbs(I21
I3
tp984
g0
(g9
g2
Ntp985
Rp986
(dp987
g13
I01
sg14
F1.0
sg15
g984
sbs(I-10
I19
tp988
g0
(g9
g2
Ntp989
Rp990
(dp991
g13
I01
sg14
F1.0
sg15
g988
sbs(I-19
I17
tp992
g0
(g9
g2
Ntp993
Rp994
(dp995
g13
I01
sg14
F-1.0
sg15
g992
sbs(I-5
I17
tp996
g0
(g9
g2
Ntp997
Rp998
(dp999
g13
I01
sg14
F-0.12892509304026056
sg15
g996
sbs(I-14
I19
tp1000
g0
(g9
g2
Ntp1001
Rp1002
(dp1003
g13
I01
sg14
F1.0
sg15
g1000
sbs(I-2
I20
tp1004
g0
(g9
g2
Ntp1005
Rp1006
(dp1007
g13
I01
sg14
F0.49695928617999485
sg15
g1004
sbs(I-15
I15
tp1008
g0
(g9
g2
Ntp1009
Rp1010
(dp1011
g13
I01
sg14
F-0.7081057347190161
sg15
g1008
sbssS'nodes'
p1012
(dp1013
I0
g0
(cneat.genes
DefaultNodeGene
p1014
g2
Ntp1015
Rp1016
(dp1017
S'activation'
p1018
S'sigmoid'
p1019
sS'bias'
p1020
F1.0
sS'response'
p1021
F1.0
sg15
I0
sS'aggregation'
p1022
S'product'
p1023
sbsI1
g0
(g1014
g2
Ntp1024
Rp1025
(dp1026
g1018
g1019
sg1020
F0.8159191912833066
sg1021
F1.0
sg15
I1
sg1022
g1023
sbsI2
g0
(g1014
g2
Ntp1027
Rp1028
(dp1029
g1018
g1019
sg1020
F-0.6881514510007937
sg1021
F1.0
sg15
I2
sg1022
g1023
sbsI3
g0
(g1014
g2
Ntp1030
Rp1031
(dp1032
g1018
g1019
sg1020
F1.0
sg1021
F1.0
sg15
I3
sg1022
g1023
sbsI4
g0
(g1014
g2
Ntp1033
Rp1034
(dp1035
g1018
g1019
sg1020
F-0.4298711952748244
sg1021
F1.0
sg15
I4
sg1022
g1023
sbsI15
g0
(g1014
g2
Ntp1036
Rp1037
(dp1038
g1018
g1019
sg1020
F1.0
sg1021
F1.0
sg15
I15
sg1022
g1023
sbsI16
g0
(g1014
g2
Ntp1039
Rp1040
(dp1041
g1018
g1019
sg1020
F-1.0
sg1021
F1.0
sg15
I16
sg1022
g1023
sbsI17
g0
(g1014
g2
Ntp1042
Rp1043
(dp1044
g1018
g1019
sg1020
F0.1518234754106463
sg1021
F1.0
sg15
I17
sg1022
g1023
sbsI18
g0
(g1014
g2
Ntp1045
Rp1046
(dp1047
g1018
g1019
sg1020
F1.0
sg1021
F1.0
sg15
I18
sg1022
g1023
sbsI19
g0
(g1014
g2
Ntp1048
Rp1049
(dp1050
g1018
g1019
sg1020
F-0.9473860166256576
sg1021
F1.0
sg15
I19
sg1022
g1023
sbsI20
g0
(g1014
g2
Ntp1051
Rp1052
(dp1053
g1018
g1019
sg1020
F0.5768472159926425
sg1021
F1.0
sg15
I20
sg1022
g1023
sbsI21
g0
(g1014
g2
Ntp1054
Rp1055
(dp1056
g1018
g1019
sg1020
F1.0
sg1021
F1.0
sg15
I21
sg1022
g1023
sbsI22
g0
(g1014
g2
Ntp1057
Rp1058
(dp1059
g1018
g1019
sg1020
F0.32537744898873305
sg1021
F1.0
sg15
I22
sg1022
g1023
sbsI23
g0
(g1014
g2
Ntp1060
Rp1061
(dp1062
g1018
g1019
sg1020
F0.5234172142547209
sg1021
F1.0
sg15
I23
sg1022
g1023
sbsI24
g0
(g1014
g2
Ntp1063
Rp1064
(dp1065
g1018
g1019
sg1020
F-0.7784947844258795
sg1021
F1.0
sg15
I24
sg1022
g1023
sbssg15
I2
sS'fitness'
p1066
cnumpy.core.multiarray
scalar
p1067
(cnumpy
dtype
p1068
(S'f8'
p1069
I0
I1
tp1070
Rp1071
(I3
S'<'
p1072
NNNI-1
I-1
I0
tp1073
bS'\xe0v,&\x87\xb0\n@'
p1074
tp1075
Rp1076
sb.