ccopy_reg
_reconstructor
p0
(cneat.genome
DefaultGenome
p1
c__builtin__
object
p2
Ntp3
Rp4
(dp5
S'connections'
p6
(dp7
(I-1
I0
tp8
g0
(cneat.genes
DefaultConnectionGene
p9
g2
Ntp10
Rp11
(dp12
S'enabled'
p13
I01
sS'weight'
p14
F1.2412004195718045
sS'key'
p15
g8
sbs(I-16
I3
tp16
g0
(g9
g2
Ntp17
Rp18
(dp19
g13
I01
sg14
F-1.9573226199471698
sg15
g16
sbs(I-15
I2
tp20
g0
(g9
g2
Ntp21
Rp22
(dp23
g13
I01
sg14
F0.36165215321134536
sg15
g20
sbs(I-18
I1
tp24
g0
(g9
g2
Ntp25
Rp26
(dp27
g13
I01
sg14
F0.9759399827495439
sg15
g24
sbs(I-13
I3
tp28
g0
(g9
g2
Ntp29
Rp30
(dp31
g13
I01
sg14
F-1.307007888946076
sg15
g28
sbs(I-17
I4
tp32
g0
(g9
g2
Ntp33
Rp34
(dp35
g13
I01
sg14
F0.3525718566509741
sg15
g32
sbs(I-12
I4
tp36
g0
(g9
g2
Ntp37
Rp38
(dp39
g13
I01
sg14
F0.9008890783487918
sg15
g36
sbs(I-2
I0
tp40
g0
(g9
g2
Ntp41
Rp42
(dp43
g13
I01
sg14
F-1.558550438464052
sg15
g40
sbs(I-10
I3
tp44
g0
(g9
g2
Ntp45
Rp46
(dp47
g13
I01
sg14
F1.0071005762614949
sg15
g44
sbs(I-5
I1
tp48
g0
(g9
g2
Ntp49
Rp50
(dp51
g13
I01
sg14
F-1.471172057236065
sg15
g48
sbs(I-16
I0
tp52
g0
(g9
g2
Ntp53
Rp54
(dp55
g13
I01
sg14
F-0.28950626521698375
sg15
g52
sbs(I-18
I2
tp56
g0
(g9
g2
Ntp57
Rp58
(dp59
g13
I01
sg14
F-0.22852042909513864
sg15
g56
sbs(I-6
I1
tp60
g0
(g9
g2
Ntp61
Rp62
(dp63
g13
I01
sg14
F-0.833311934297054
sg15
g60
sbs(I-3
I1
tp64
g0
(g9
g2
Ntp65
Rp66
(dp67
g13
I01
sg14
F-0.030600536868952644
sg15
g64
sbs(I-19
I0
tp68
g0
(g9
g2
Ntp69
Rp70
(dp71
g13
I01
sg14
F0.999907164636724
sg15
g68
sbs(I-14
I0
tp72
g0
(g9
g2
Ntp73
Rp74
(dp75
g13
I01
sg14
F0.4976763875270623
sg15
g72
sbs(I-12
I3
tp76
g0
(g9
g2
Ntp77
Rp78
(dp79
g13
I00
sg14
F0.2360300368909181
sg15
g76
sbs(I-11
I2
tp80
g0
(g9
g2
Ntp81
Rp82
(dp83
g13
I01
sg14
F1.3249069418146777
sg15
g80
sbs(I-6
I2
tp84
g0
(g9
g2
Ntp85
Rp86
(dp87
g13
I01
sg14
F-1.338889403417958
sg15
g84
sbs(I-2
I3
tp88
g0
(g9
g2
Ntp89
Rp90
(dp91
g13
I01
sg14
F0.7473838567059267
sg15
g88
sbs(I-4
I1
tp92
g0
(g9
g2
Ntp93
Rp94
(dp95
g13
I01
sg14
F0.18764885927511385
sg15
g92
sbs(I-2
I4
tp96
g0
(g9
g2
Ntp97
Rp98
(dp99
g13
I01
sg14
F-0.039423486940126436
sg15
g96
sbs(I-3
I4
tp100
g0
(g9
g2
Ntp101
Rp102
(dp103
g13
I01
sg14
F-1.034682833628372
sg15
g100
sbs(I-20
I2
tp104
g0
(g9
g2
Ntp105
Rp106
(dp107
g13
I01
sg14
F-0.017403665942844093
sg15
g104
sbs(I-17
I0
tp108
g0
(g9
g2
Ntp109
Rp110
(dp111
g13
I00
sg14
F4.094934086494654
sg15
g108
sbs(I-12
I0
tp112
g0
(g9
g2
Ntp113
Rp114
(dp115
g13
I01
sg14
F-1.767394754728428
sg15
g112
sbs(I-8
I1
tp116
g0
(g9
g2
Ntp117
Rp118
(dp119
g13
I01
sg14
F-1.4532780222962063
sg15
g116
sbs(I-7
I0
tp120
g0
(g9
g2
Ntp121
Rp122
(dp123
g13
I01
sg14
F1.2195091426630165
sg15
g120
sbs(I-1
I1
tp124
g0
(g9
g2
Ntp125
Rp126
(dp127
g13
I01
sg14
F-0.23476983935167073
sg15
g124
sbs(I-16
I4
tp128
g0
(g9
g2
Ntp129
Rp130
(dp131
g13
I01
sg14
F-4.623268862282154
sg15
g128
sbs(I-15
I1
tp132
g0
(g9
g2
Ntp133
Rp134
(dp135
g13
I01
sg14
F-1.490458928648345
sg15
g132
sbs(I-13
I2
tp136
g0
(g9
g2
Ntp137
Rp138
(dp139
g13
I01
sg14
F0.7830528734733011
sg15
g136
sbs(I-8
I2
tp140
g0
(g9
g2
Ntp141
Rp142
(dp143
g13
I01
sg14
F-0.3799075711840036
sg15
g140
sbs(I-7
I3
tp144
g0
(g9
g2
Ntp145
Rp146
(dp147
g13
I01
sg14
F0.28780444266824035
sg15
g144
sbs(I-10
I0
tp148
g0
(g9
g2
Ntp149
Rp150
(dp151
g13
I01
sg14
F-4.355223295935236
sg15
g148
sbs(I-5
I0
tp152
g0
(g9
g2
Ntp153
Rp154
(dp155
g13
I01
sg14
F1.4803119115342525
sg15
g152
sbs(I-2
I2
tp156
g0
(g9
g2
Ntp157
Rp158
(dp159
g13
I01
sg14
F1.0146591631754251
sg15
g156
sbs(I-1
I2
tp160
g0
(g9
g2
Ntp161
Rp162
(dp163
g13
I01
sg14
F-1.6916905267842441
sg15
g160
sbs(I-16
I1
tp164
g0
(g9
g2
Ntp165
Rp166
(dp167
g13
I01
sg14
F1.2445111002246945
sg15
g164
sbs(I-20
I4
tp168
g0
(g9
g2
Ntp169
Rp170
(dp171
g13
I01
sg14
F2.8574540534464363
sg15
g168
sbs(I-1
I4
tp172
g0
(g9
g2
Ntp173
Rp174
(dp175
g13
I01
sg14
F3.638037249746525
sg15
g172
sbs(I-18
I3
tp176
g0
(g9
g2
Ntp177
Rp178
(dp179
g13
I01
sg14
F1.3005123773558798
sg15
g176
sbs(I-13
I1
tp180
g0
(g9
g2
Ntp181
Rp182
(dp183
g13
I01
sg14
F-3.5703884377842416
sg15
g180
sbs(I-3
I0
tp184
g0
(g9
g2
Ntp185
Rp186
(dp187
g13
I01
sg14
F0.034274860261034046
sg15
g184
sbs(I-14
I1
tp188
g0
(g9
g2
Ntp189
Rp190
(dp191
g13
I01
sg14
F-0.9306677263142913
sg15
g188
sbs(I-7
I4
tp192
g0
(g9
g2
Ntp193
Rp194
(dp195
g13
I01
sg14
F4.215349120124038
sg15
g192
sbs(I-11
I1
tp196
g0
(g9
g2
Ntp197
Rp198
(dp199
g13
I01
sg14
F-1.3921928508429557
sg15
g196
sbs(I-6
I3
tp200
g0
(g9
g2
Ntp201
Rp202
(dp203
g13
I01
sg14
F-2.5379011493450587
sg15
g200
sbs(I-9
I2
tp204
g0
(g9
g2
Ntp205
Rp206
(dp207
g13
I01
sg14
F-0.1383282520402623
sg15
g204
sbs(I-4
I2
tp208
g0
(g9
g2
Ntp209
Rp210
(dp211
g13
I01
sg14
F-0.21299350020793184
sg15
g208
sbs(I-3
I3
tp212
g0
(g9
g2
Ntp213
Rp214
(dp215
g13
I01
sg14
F-0.31143638144097097
sg15
g212
sbs(I-20
I3
tp216
g0
(g9
g2
Ntp217
Rp218
(dp219
g13
I01
sg14
F0.006084717211420232
sg15
g216
sbs(I-19
I2
tp220
g0
(g9
g2
Ntp221
Rp222
(dp223
g13
I01
sg14
F0.38463629626272966
sg15
g220
sbs(I-14
I2
tp224
g0
(g9
g2
Ntp225
Rp226
(dp227
g13
I01
sg14
F-0.24171539146283955
sg15
g224
sbs(I-17
I3
tp228
g0
(g9
g2
Ntp229
Rp230
(dp231
g13
I01
sg14
F-0.9014312803818713
sg15
g228
sbs(I-12
I1
tp232
g0
(g9
g2
Ntp233
Rp234
(dp235
g13
I01
sg14
F-2.629123486952374
sg15
g232
sbs(I-10
I4
tp236
g0
(g9
g2
Ntp237
Rp238
(dp239
g13
I01
sg14
F-1.6044578972100616
sg15
g236
sbs(I-11
I4
tp240
g0
(g9
g2
Ntp241
Rp242
(dp243
g13
I01
sg14
F0.1432912860460912
sg15
g240
sbs(I-5
I4
tp244
g0
(g9
g2
Ntp245
Rp246
(dp247
g13
I00
sg14
F-0.5683266189506431
sg15
g244
sbs(I-6
I4
tp248
g0
(g9
g2
Ntp249
Rp250
(dp251
g13
I01
sg14
F0.9600843184373289
sg15
g248
sbs(I-9
I3
tp252
g0
(g9
g2
Ntp253
Rp254
(dp255
g13
I01
sg14
F0.9022159094427845
sg15
g252
sbs(I-15
I0
tp256
g0
(g9
g2
Ntp257
Rp258
(dp259
g13
I01
sg14
F1.3535954131836117
sg15
g256
sbs(I-8
I3
tp260
g0
(g9
g2
Ntp261
Rp262
(dp263
g13
I01
sg14
F1.0576638558731264
sg15
g260
sbs(I-7
I2
tp264
g0
(g9
g2
Ntp265
Rp266
(dp267
g13
I01
sg14
F0.6445479372547795
sg15
g264
sbs(I-10
I1
tp268
g0
(g9
g2
Ntp269
Rp270
(dp271
g13
I01
sg14
F-1.4336741604744285
sg15
g268
sbs(I-5
I3
tp272
g0
(g9
g2
Ntp273
Rp274
(dp275
g13
I01
sg14
F1.2974004606030958
sg15
g272
sbs(I-9
I4
tp276
g0
(g9
g2
Ntp277
Rp278
(dp279
g13
I01
sg14
F0.7135199423959687
sg15
g276
sbs(I-4
I4
tp280
g0
(g9
g2
Ntp281
Rp282
(dp283
g13
I01
sg14
F-0.8015216082689152
sg15
g280
sbs(I-1
I3
tp284
g0
(g9
g2
Ntp285
Rp286
(dp287
g13
I01
sg14
F-0.14590703222392834
sg15
g284
sbs(I-16
I2
tp288
g0
(g9
g2
Ntp289
Rp290
(dp291
g13
I01
sg14
F2.439699190349389
sg15
g288
sbs(I-15
I3
tp292
g0
(g9
g2
Ntp293
Rp294
(dp295
g13
I01
sg14
F1.3971109684348089
sg15
g292
sbs(I-18
I0
tp296
g0
(g9
g2
Ntp297
Rp298
(dp299
g13
I00
sg14
F-1.3827655637989367
sg15
g296
sbs(I-13
I0
tp300
g0
(g9
g2
Ntp301
Rp302
(dp303
g13
I01
sg14
F0.611274570894588
sg15
g300
sbs(I-8
I0
tp304
g0
(g9
g2
Ntp305
Rp306
(dp307
g13
I01
sg14
F-0.8647367961426126
sg15
g304
sbs(I-10
I2
tp308
g0
(g9
g2
Ntp309
Rp310
(dp311
g13
I01
sg14
F2.0556280718774236
sg15
g308
sbs(I-8
I4
tp312
g0
(g9
g2
Ntp313
Rp314
(dp315
g13
I01
sg14
F0.9833913158084546
sg15
g312
sbs(I-11
I0
tp316
g0
(g9
g2
Ntp317
Rp318
(dp319
g13
I01
sg14
F-3.2759358125209443
sg15
g316
sbs(I-6
I0
tp320
g0
(g9
g2
Ntp321
Rp322
(dp323
g13
I01
sg14
F0.9418645049029161
sg15
g320
sbs(I-4
I3
tp324
g0
(g9
g2
Ntp325
Rp326
(dp327
g13
I01
sg14
F2.1448366316467697
sg15
g324
sbs(I-3
I2
tp328
g0
(g9
g2
Ntp329
Rp330
(dp331
g13
I01
sg14
F-0.6665585200789916
sg15
g328
sbs(I-15
I4
tp332
g0
(g9
g2
Ntp333
Rp334
(dp335
g13
I01
sg14
F-0.6556755587568237
sg15
g332
sbs(I-19
I1
tp336
g0
(g9
g2
Ntp337
Rp338
(dp339
g13
I01
sg14
F1.598690806189415
sg15
g336
sbs(I-14
I3
tp340
g0
(g9
g2
Ntp341
Rp342
(dp343
g13
I01
sg14
F-0.1247284297899442
sg15
g340
sbs(I-12
I2
tp344
g0
(g9
g2
Ntp345
Rp346
(dp347
g13
I01
sg14
F-1.4572272887805882
sg15
g344
sbs(I-2
I1
tp348
g0
(g9
g2
Ntp349
Rp350
(dp351
g13
I01
sg14
F-1.2977048021727828
sg15
g348
sbs(I-11
I3
tp352
g0
(g9
g2
Ntp353
Rp354
(dp355
g13
I01
sg14
F3.5896111632649337
sg15
g352
sbs(I-9
I0
tp356
g0
(g9
g2
Ntp357
Rp358
(dp359
g13
I00
sg14
F-1.316592117502034
sg15
g356
sbs(I-4
I0
tp360
g0
(g9
g2
Ntp361
Rp362
(dp363
g13
I00
sg14
F-3.0130792793519285
sg15
g360
sbs(I-20
I1
tp364
g0
(g9
g2
Ntp365
Rp366
(dp367
g13
I01
sg14
F0.7715916342871002
sg15
g364
sbs(I-18
I4
tp368
g0
(g9
g2
Ntp369
Rp370
(dp371
g13
I01
sg14
F0.46234605274785046
sg15
g368
sbs(I-19
I4
tp372
g0
(g9
g2
Ntp373
Rp374
(dp375
g13
I01
sg14
F0.17198929543480945
sg15
g372
sbs(I-13
I4
tp376
g0
(g9
g2
Ntp377
Rp378
(dp379
g13
I01
sg14
F0.697980723400452
sg15
g376
sbs(I-14
I4
tp380
g0
(g9
g2
Ntp381
Rp382
(dp383
g13
I01
sg14
F-0.5808107725351517
sg15
g380
sbs(I-17
I1
tp384
g0
(g9
g2
Ntp385
Rp386
(dp387
g13
I01
sg14
F0.3254225609855134
sg15
g384
sbs(I-7
I1
tp388
g0
(g9
g2
Ntp389
Rp390
(dp391
g13
I01
sg14
F1.1826350833811439
sg15
g388
sbs(I-5
I2
tp392
g0
(g9
g2
Ntp393
Rp394
(dp395
g13
I01
sg14
F-0.5194786029344061
sg15
g392
sbssS'nodes'
p396
(dp397
I0
g0
(cneat.genes
DefaultNodeGene
p398
g2
Ntp399
Rp400
(dp401
S'activation'
p402
S'tanh'
p403
sS'bias'
p404
F1.4389087671412324
sS'response'
p405
F1.0
sg15
I0
sS'aggregation'
p406
S'sum'
p407
sbsI1
g0
(g398
g2
Ntp408
Rp409
(dp410
g402
g403
sg404
F-0.05811976156553056
sg405
F1.0
sg15
I1
sg406
g407
sbsI2
g0
(g398
g2
Ntp411
Rp412
(dp413
g402
g403
sg404
F0.02212286638633776
sg405
F1.0
sg15
I2
sg406
g407
sbsI3
g0
(g398
g2
Ntp414
Rp415
(dp416
g402
g403
sg404
F0.6891338102817961
sg405
F1.0
sg15
I3
sg406
g407
sbsI4
g0
(g398
g2
Ntp417
Rp418
(dp419
g402
g403
sg404
F0.3580316278887501
sg405
F1.0
sg15
I4
sg406
g407
sbssg15
I922
sS'fitness'
p420
F86.0
sb.